
; File #0: C:\Users\geniw\source\repos\NewGame\NewGame\ZxBasicFiles\Program.zxbas.z80asm

8000             0 2 org 32768
8000             0 3 ; Defines HEAP SIZE
8000             0 4 ZXBASIC_HEAP_SIZE EQU 128
8000             0 5 __START_PROGRAM:
8000 F3          0 6 di
8001 DD E5       0 7 push ix
8003 FD E5       0 8 push iy
8005 D9          0 9 exx
8006 E5          0 10 push hl
8007 D9          0 11 exx
8008 21 00 00    0 12 ld hl, 0
800B 39          0 13 add hl, sp
800C 22 F7 84    0 14 ld (__CALL_BACK__), hl
800F FB          0 15 ei
8010 CD 28 CC    0 16 call __MEM_INIT
8013 CD 67 CF    0 17 call __PRINT_INIT
8016 21 A8 00    0 18 ld hl, 168
8019 CD CE 87    0 19 call _allocate
801C 22 7B 5C    0 20 ld (23675), hl
801F 21 FC FA    0 22 ld hl, ZXBASIC_MEM_HEAP
8022 21 5B CB    0 24 ld hl, __LABEL0
8025 CD 89 D3    0 25 call __LOADSTR
8028 E5          0 26 push hl
8029 21 D6 5E    0 27 ld hl, 24278
802C E5          0 28 push hl
802D 21 00 00    0 29 ld hl, 0
8030 E5          0 30 push hl
8031 3E 01       0 31 ld a, 1
8033 F5          0 32 push af
8034 CD 74 D2    0 33 call LOAD_CODE
8037 CD 1D 88    0 34 call _initTable
803A AF          0 35 xor a
803B CD 9B 22    0 36 call BORDER
803E             0 37 __LABEL1:
803E 3A 5E D6    0 38 ld a, (_state)
8041 D6 01       0 39 sub 1
8043 9F          0 40 sbc a, a
8044 CD 65 D5    0 41 call __NORMALIZE_BOOLEAN
8047 B7          0 42 or a
8048 CA 8F 80    0 43 jp z, __LABEL3
804B CD D7 96    0 44 call _intro
804E 3E 01       0 45 ld a, 1
8050 32 5E D6    0 46 ld (_state), a
8053 3E 01       0 47 ld a, 1
8055 32 1C D6    0 48 ld (_currentMap), a
8058 21 01 00    0 49 ld hl, 1
805B 22 1A D6    0 50 ld (_currentMapIndex), hl
805E 21 01 00    0 51 ld hl, 1
8061 22 38 D6    0 52 ld (_currentEntryIndex), hl
8064 3E 01       0 53 ld a, 1
8066 32 37 D6    0 54 ld (_entryScreen), a
8069 3E 04       0 55 ld a, 4
806B 32 35 D6    0 56 ld (_lifes), a
806E 3E 04       0 57 ld a, 4
8070 32 36 D6    0 58 ld (_dynamites), a
8073 3E FF       0 59 ld a, 255
8075 32 30 D6    0 60 ld (_dynaCounter), a
8078 AF          0 61 xor a
8079 32 25 D6    0 62 ld (_playerX), a
807C AF          0 63 xor a
807D 32 26 D6    0 64 ld (_playerY), a
8080 21 00 14    0 65 ld hl, 5120
8083 22 47 D6    0 66 ld (_power), hl
8086 21 00 00    0 67 ld hl, 0
8089 22 49 D6    0 68 ld (_score), hl
808C C3 E1 84    0 69 jp __LABEL4
808F             0 70 __LABEL3:
808F 3A 5E D6    0 71 ld a, (_state)
8092 3D          0 72 dec a
8093 D6 01       0 73 sub 1
8095 9F          0 74 sbc a, a
8096 CD 65 D5    0 75 call __NORMALIZE_BOOLEAN
8099 B7          0 76 or a
809A CA 1D 81    0 77 jp z, __LABEL5
809D AF          0 78 xor a
809E 32 20 D6    0 79 ld (_lampX), a
80A1 AF          0 80 xor a
80A2 32 21 D6    0 81 ld (_lampY), a
80A5 3E 01       0 82 ld a, 1
80A7 32 22 D6    0 83 ld (_lightOn), a
80AA AF          0 84 xor a
80AB 32 40 D6    0 85 ld (_prevShotX), a
80AE AF          0 86 xor a
80AF 32 41 D6    0 87 ld (_prevShotY), a
80B2 AF          0 88 xor a
80B3 32 42 D6    0 89 ld (_shotX), a
80B6 AF          0 90 xor a
80B7 32 43 D6    0 91 ld (_shotY), a
80BA AF          0 92 xor a
80BB 32 45 D6    0 93 ld (_personX), a
80BE AF          0 94 xor a
80BF 32 46 D6    0 95 ld (_personY), a
80C2 3A 37 D6    0 96 ld a, (_entryScreen)
80C5 B7          0 97 or a
80C6 CA CF 80    0 98 jp z, __LABEL7
80C9 CD D4 C2    0 99 call _entrance
80CC C3 D2 80    0 100 jp __LABEL8
80CF             0 101 __LABEL7:
80CF CD C7 97    0 102 call _decodeCurrentScreen
80D2             0 103 __LABEL8:
80D2 AF          0 104 xor a
80D3 32 5F D6    0 105 ld (_updateResult), a
80D6 3A 25 D6    0 106 ld a, (_playerX)
80D9 32 23 D6    0 107 ld (_playerXEnter), a
80DC 3A 26 D6    0 108 ld a, (_playerY)
80DF 32 24 D6    0 109 ld (_playerYEnter), a
80E2 3A 29 D6    0 110 ld a, (_playerDir)
80E5 32 2A D6    0 111 ld (_playerEnterDir), a
80E8 3A 25 D6    0 112 ld a, (_playerX)
80EB 6F          0 113 ld l, a
80EC 26 00       0 114 ld h, 0
80EE E5          0 115 push hl
80EF 3A 26 D6    0 116 ld a, (_playerY)
80F2 6F          0 117 ld l, a
80F3 26 00       0 118 ld h, 0
80F5 E5          0 119 push hl
80F6 2A 2B D6    0 120 ld hl, (_lastHead)
80F9 CD D4 8C    0 121 call _drawSprite
80FC 3A 25 D6    0 122 ld a, (_playerX)
80FF 6F          0 123 ld l, a
8100 26 00       0 124 ld h, 0
8102 E5          0 125 push hl
8103 3A 26 D6    0 126 ld a, (_playerY)
8106 C6 08       0 127 add a, 8
8108 6F          0 128 ld l, a
8109 26 00       0 129 ld h, 0
810B E5          0 130 push hl
810C 2A 2D D6    0 131 ld hl, (_lastBody)
810F CD D4 8C    0 132 call _drawSprite
8112 CD 0D 90    0 133 call _dumpScreenCenter
8115 3E 02       0 134 ld a, 2
8117 32 5E D6    0 135 ld (_state), a
811A C3 E1 84    0 136 jp __LABEL6
811D             0 137 __LABEL5:
811D 3A 5E D6    0 138 ld a, (_state)
8120 D6 02       0 139 sub 2
8122 D6 01       0 140 sub 1
8124 9F          0 141 sbc a, a
8125 CD 65 D5    0 142 call __NORMALIZE_BOOLEAN
8128 B7          0 143 or a
8129 CA A1 82    0 144 jp z, __LABEL9
812C 21 1F D6    0 145 ld hl, _frameCounter
812F 34          0 146 inc (hl)
8130 AF          0 147 xor a
8131 32 5F D6    0 148 ld (_updateResult), a
8134 2A 47 D6    0 149 ld hl, (_power)
8137 2B          0 150 dec hl
8138 22 47 D6    0 151 ld (_power), hl
813B 11 FF 01    0 152 ld de, 511
813E 2A 47 D6    0 153 ld hl, (_power)
8141 CD 25 CE    0 154 call __BAND16
8144 E5          0 155 push hl
8145 11 00 00    0 156 ld de, 0
8148 E1          0 157 pop hl
8149 CD 6E D2    0 158 call __EQ16
814C CD 65 D5    0 159 call __NORMALIZE_BOOLEAN
814F B7          0 160 or a
8150 CA 8A 81    0 161 jp z, __LABEL12
8153 2A 47 D6    0 162 ld hl, (_power)
8156 11 00 02    0 163 ld de, 512
8159 CD F0 D1    0 164 call __DIVU16
815C 23          0 165 inc hl
815D 7D          0 166 ld a, l
815E 32 3B D6    0 167 ld (_tmpX), a
8161 3E 47       0 168 ld a, 71
8163 F5          0 169 push af
8164 3A 3B D6    0 170 ld a, (_tmpX)
8167 C6 0D       0 171 add a, 13
8169 F5          0 172 push af
816A 3E 13       0 173 ld a, 19
816C F5          0 174 push af
816D CD 1A 85    0 175 call _setattr
8170 11 00 00    0 176 ld de, 0
8173 2A 47 D6    0 177 ld hl, (_power)
8176 CD 6E D2    0 178 call __EQ16
8179 CD 65 D5    0 179 call __NORMALIZE_BOOLEAN
817C B7          0 180 or a
817D CA 8A 81    0 181 jp z, __LABEL14
8180 CD E1 BA    0 182 call _gameOver
8183 AF          0 183 xor a
8184 32 5E D6    0 184 ld (_state), a
8187 C3 3E 80    0 185 jp __LABEL1
818A             0 186 __LABEL14:
818A             0 187 __LABEL12:
818A CD E5 B0    0 188 call _movePlayer
818D 67          0 189 ld h, a
818E 3A 5F D6    0 190 ld a, (_updateResult)
8191 B4          0 191 or h
8192 32 5F D6    0 192 ld (_updateResult), a
8195 CD 52 AB    0 193 call _moveEnemies
8198 67          0 194 ld h, a
8199 3A 5F D6    0 195 ld a, (_updateResult)
819C B4          0 196 or h
819D 32 5F D6    0 197 ld (_updateResult), a
81A0 CD 68 C8    0 198 call _checkFire
81A3 3A 5F D6    0 199 ld a, (_updateResult)
81A6 D6 01       0 200 sub 1
81A8 9F          0 201 sbc a, a
81A9 CD 65 D5    0 202 call __NORMALIZE_BOOLEAN
81AC B7          0 203 or a
81AD CA B6 81    0 204 jp z, __LABEL16
81B0 CD 4B BC    0 205 call _checkDynamite
81B3 32 5F D6    0 206 ld (_updateResult), a
81B6             0 207 __LABEL16:
81B6 CD 9B C2    0 208 call _checkLight
81B9 CD 94 BA    0 209 call _render
81BC 3A 5F D6    0 210 ld a, (_updateResult)
81BF 3D          0 211 dec a
81C0 D6 01       0 212 sub 1
81C2 9F          0 213 sbc a, a
81C3 CD 65 D5    0 214 call __NORMALIZE_BOOLEAN
81C6 B7          0 215 or a
81C7 CA 73 82    0 216 jp z, __LABEL17
81CA CD 5A B9    0 217 call _processDeath
81CD 32 5F D6    0 218 ld (_updateResult), a
81D0 B7          0 219 or a
81D1 CA 69 82    0 220 jp z, __LABEL19
81D4 3A 23 D6    0 221 ld a, (_playerXEnter)
81D7 32 25 D6    0 222 ld (_playerX), a
81DA 3A 24 D6    0 223 ld a, (_playerYEnter)
81DD 32 26 D6    0 224 ld (_playerY), a
81E0 3A 2A D6    0 225 ld a, (_playerEnterDir)
81E3 32 29 D6    0 226 ld (_playerDir), a
81E6 3A 30 D6    0 227 ld a, (_dynaCounter)
81E9 D6 FF       0 228 sub 255
81EB CD 65 D5    0 229 call __NORMALIZE_BOOLEAN
81EE B7          0 230 or a
81EF CA 0B 82    0 231 jp z, __LABEL22
81F2 3E FF       0 232 ld a, 255
81F4 32 30 D6    0 233 ld (_dynaCounter), a
81F7 3A 33 D6    0 234 ld a, (_dynaX)
81FA 6F          0 235 ld l, a
81FB 26 00       0 236 ld h, 0
81FD E5          0 237 push hl
81FE 3A 34 D6    0 238 ld a, (_dynaY)
8201 6F          0 239 ld l, a
8202 26 00       0 240 ld h, 0
8204 E5          0 241 push hl
8205 2A 31 D6    0 242 ld hl, (_lastDyna)
8208 CD D4 8C    0 243 call _drawSprite
820B             0 244 __LABEL22:
820B 3A 29 D6    0 245 ld a, (_playerDir)
820E 3D          0 246 dec a
820F D6 01       0 247 sub 1
8211 9F          0 248 sbc a, a
8212 CD 65 D5    0 249 call __NORMALIZE_BOOLEAN
8215 B7          0 250 or a
8216 CA 28 82    0 251 jp z, __LABEL23
8219 21 E0 F7    0 252 ld hl, _head1l.__DATA__
821C 22 2B D6    0 253 ld (_lastHead), hl
821F 21 0D F8    0 254 ld hl, _body2l.__DATA__
8222 22 2D D6    0 255 ld (_lastBody), hl
8225 C3 34 82    0 256 jp __LABEL24
8228             0 257 __LABEL23:
8228 21 A4 F7    0 258 ld hl, _head1r.__DATA__
822B 22 2B D6    0 259 ld (_lastHead), hl
822E 21 D1 F7    0 260 ld hl, _body2r.__DATA__
8231 22 2D D6    0 261 ld (_lastBody), hl
8234             0 262 __LABEL24:
8234 3E 01       0 263 ld a, 1
8236 32 22 D6    0 264 ld (_lightOn), a
8239 3A 25 D6    0 265 ld a, (_playerX)
823C 6F          0 266 ld l, a
823D 26 00       0 267 ld h, 0
823F E5          0 268 push hl
8240 3A 26 D6    0 269 ld a, (_playerY)
8243 6F          0 270 ld l, a
8244 26 00       0 271 ld h, 0
8246 E5          0 272 push hl
8247 2A 2B D6    0 273 ld hl, (_lastHead)
824A CD D4 8C    0 274 call _drawSprite
824D 3A 25 D6    0 275 ld a, (_playerX)
8250 6F          0 276 ld l, a
8251 26 00       0 277 ld h, 0
8253 E5          0 278 push hl
8254 3A 26 D6    0 279 ld a, (_playerY)
8257 C6 08       0 280 add a, 8
8259 6F          0 281 ld l, a
825A 26 00       0 282 ld h, 0
825C E5          0 283 push hl
825D 2A 2D D6    0 284 ld hl, (_lastBody)
8260 CD D4 8C    0 285 call _drawSprite
8263 CD 0D 90    0 286 call _dumpScreenCenter
8266 C3 70 82    0 287 jp __LABEL20
8269             0 288 __LABEL19:
8269 CD E1 BA    0 289 call _gameOver
826C AF          0 290 xor a
826D 32 5E D6    0 291 ld (_state), a
8270             0 292 __LABEL20:
8270 C3 9E 82    0 293 jp __LABEL18
8273             0 294 __LABEL17:
8273 3A 5F D6    0 295 ld a, (_updateResult)
8276 D6 02       0 296 sub 2
8278 D6 01       0 297 sub 1
827A 9F          0 298 sbc a, a
827B CD 65 D5    0 299 call __NORMALIZE_BOOLEAN
827E B7          0 300 or a
827F CA 8A 82    0 301 jp z, __LABEL25
8282 3E 04       0 302 ld a, 4
8284 32 5E D6    0 303 ld (_state), a
8287 C3 9E 82    0 304 jp __LABEL26
828A             0 305 __LABEL25:
828A 3A 5F D6    0 306 ld a, (_updateResult)
828D D6 03       0 307 sub 3
828F D6 01       0 308 sub 1
8291 9F          0 309 sbc a, a
8292 CD 65 D5    0 310 call __NORMALIZE_BOOLEAN
8295 B7          0 311 or a
8296 CA 9E 82    0 312 jp z, __LABEL28
8299 3E 03       0 313 ld a, 3
829B 32 5E D6    0 314 ld (_state), a
829E             0 315 __LABEL28:
829E             0 316 __LABEL26:
829E             0 317 __LABEL18:
829E C3 E1 84    0 318 jp __LABEL10
82A1             0 319 __LABEL9:
82A1 3A 5E D6    0 320 ld a, (_state)
82A4 D6 03       0 321 sub 3
82A6 D6 01       0 322 sub 1
82A8 9F          0 323 sbc a, a
82A9 CD 65 D5    0 324 call __NORMALIZE_BOOLEAN
82AC B7          0 325 or a
82AD CA 6F 83    0 326 jp z, __LABEL29
82B0 CD B3 C9    0 327 call _personSaved
82B3 2A 47 D6    0 328 ld hl, (_power)
82B6 11 0A 00    0 329 ld de, 10
82B9 CD F0 D1    0 330 call __DIVU16
82BC 11 F4 01    0 331 ld de, 500
82BF 19          0 332 add hl, de
82C0 E5          0 333 push hl
82C1 CD 07 CA    0 334 call _updateScore
82C4 2A 1A D6    0 335 ld hl, (_currentMapIndex)
82C7 23          0 336 inc hl
82C8 22 1A D6    0 337 ld (_currentMapIndex), hl
82CB 3E 01       0 338 ld a, 1
82CD 32 5E D6    0 339 ld (_state), a
82D0 AF          0 340 xor a
82D1 32 25 D6    0 341 ld (_playerX), a
82D4 AF          0 342 xor a
82D5 32 26 D6    0 343 ld (_playerY), a
82D8 3E 01       0 344 ld a, 1
82DA 32 37 D6    0 345 ld (_entryScreen), a
82DD 3E 04       0 346 ld a, 4
82DF 32 36 D6    0 347 ld (_dynamites), a
82E2 21 00 14    0 348 ld hl, 5120
82E5 22 47 D6    0 349 ld (_power), hl
82E8 3E 01       0 350 ld a, 1
82EA 32 3B D6    0 351 ld (_tmpX), a
82ED C3 0E 83    0 352 jp __LABEL31
82F0             0 353 __LABEL34:
82F0 AF          0 354 xor a
82F1 F5          0 355 push af
82F2 3E 01       0 356 ld a, 1
82F4 F5          0 357 push af
82F5 AF          0 358 xor a
82F6 F5          0 359 push af
82F7 3E 02       0 360 ld a, 2
82F9 CD C8 89    0 361 call _createAttrib
82FC F5          0 362 push af
82FD 3A 3B D6    0 363 ld a, (_tmpX)
8300 87          0 364 add a, a
8301 C6 17       0 365 add a, 23
8303 F5          0 366 push af
8304 3E 15       0 367 ld a, 21
8306 F5          0 368 push af
8307 CD 1A 85    0 369 call _setattr
830A             0 370 __LABEL35:
830A 21 3B D6    0 371 ld hl, _tmpX
830D 34          0 372 inc (hl)
830E             0 373 __LABEL31:
830E 3E 04       0 374 ld a, 4
8310 2A 3A D6    0 375 ld hl, (_tmpX - 1)
8313 BC          0 376 cp h
8314 9F          0 377 sbc a, a
8315 CD 65 D5    0 378 call __NORMALIZE_BOOLEAN
8318 B7          0 379 or a
8319 CA F0 82    0 380 jp z, __LABEL34
831C             0 381 __LABEL33:
831C 3E 01       0 382 ld a, 1
831E 32 3B D6    0 383 ld (_tmpX), a
8321 C3 41 83    0 384 jp __LABEL36
8324             0 385 __LABEL39:
8324 AF          0 386 xor a
8325 F5          0 387 push af
8326 3E 01       0 388 ld a, 1
8328 F5          0 389 push af
8329 AF          0 390 xor a
832A F5          0 391 push af
832B 3E 04       0 392 ld a, 4
832D CD C8 89    0 393 call _createAttrib
8330 F5          0 394 push af
8331 3A 3B D6    0 395 ld a, (_tmpX)
8334 C6 0E       0 396 add a, 14
8336 F5          0 397 push af
8337 3E 13       0 398 ld a, 19
8339 F5          0 399 push af
833A CD 1A 85    0 400 call _setattr
833D             0 401 __LABEL40:
833D 21 3B D6    0 402 ld hl, _tmpX
8340 34          0 403 inc (hl)
8341             0 404 __LABEL36:
8341 3E 0A       0 405 ld a, 10
8343 2A 3A D6    0 406 ld hl, (_tmpX - 1)
8346 BC          0 407 cp h
8347 9F          0 408 sbc a, a
8348 CD 65 D5    0 409 call __NORMALIZE_BOOLEAN
834B B7          0 410 or a
834C CA 24 83    0 411 jp z, __LABEL39
834F             0 412 __LABEL38:
834F 2A 1A D6    0 413 ld hl, (_currentMapIndex)
8352 2B          0 414 dec hl
8353 E5          0 415 push hl
8354 21 F1 FA    0 416 ld hl, _maps
8357 CD B4 CC    0 417 call __ARRAY
835A 7E          0 418 ld a, (hl)
835B D6 01       0 419 sub 1
835D 9F          0 420 sbc a, a
835E CD 65 D5    0 421 call __NORMALIZE_BOOLEAN
8361 B7          0 422 or a
8362 CA 6C 83    0 423 jp z, __LABEL42
8365 CD 79 CA    0 424 call _presentEnd
8368 AF          0 425 xor a
8369 32 5E D6    0 426 ld (_state), a
836C             0 427 __LABEL42:
836C C3 E1 84    0 428 jp __LABEL30
836F             0 429 __LABEL29:
836F 3A 5E D6    0 430 ld a, (_state)
8372 D6 04       0 431 sub 4
8374 D6 01       0 432 sub 1
8376 9F          0 433 sbc a, a
8377 CD 65 D5    0 434 call __NORMALIZE_BOOLEAN
837A B7          0 435 or a
837B CA E1 84    0 436 jp z, __LABEL44
837E AF          0 437 xor a
837F 32 60 D6    0 438 ld (_exitResult), a
8382 3A 1D D6    0 439 ld a, (_currentMapExit)
8385 D6 01       0 440 sub 1
8387 9F          0 441 sbc a, a
8388 CD 65 D5    0 442 call __NORMALIZE_BOOLEAN
838B F5          0 443 push af
838C 3A 26 D6    0 444 ld a, (_playerY)
838F D6 28       0 445 sub 40
8391 D6 01       0 446 sub 1
8393 9F          0 447 sbc a, a
8394 CD 65 D5    0 448 call __NORMALIZE_BOOLEAN
8397 67          0 449 ld h, a
8398 F1          0 450 pop af
8399 B7          0 451 or a
839A 28 01       0 452 jr z, __LABEL669
839C 7C          0 453 ld a, h
839D             0 454 __LABEL669:
839D CD 65 D5    0 455 call __NORMALIZE_BOOLEAN
83A0 B7          0 456 or a
83A1 CA B1 83    0 457 jp z, __LABEL45
83A4 3E 88       0 458 ld a, 136
83A6 32 26 D6    0 459 ld (_playerY), a
83A9 3E 01       0 460 ld a, 1
83AB 32 60 D6    0 461 ld (_exitResult), a
83AE C3 96 84    0 462 jp __LABEL46
83B1             0 463 __LABEL45:
83B1 3A 1D D6    0 464 ld a, (_currentMapExit)
83B4 3D          0 465 dec a
83B5 D6 01       0 466 sub 1
83B7 9F          0 467 sbc a, a
83B8 CD 65 D5    0 468 call __NORMALIZE_BOOLEAN
83BB F5          0 469 push af
83BC 3A 26 D6    0 470 ld a, (_playerY)
83BF D6 88       0 471 sub 136
83C1 D6 01       0 472 sub 1
83C3 9F          0 473 sbc a, a
83C4 CD 65 D5    0 474 call __NORMALIZE_BOOLEAN
83C7 67          0 475 ld h, a
83C8 F1          0 476 pop af
83C9 B7          0 477 or a
83CA 28 01       0 478 jr z, __LABEL670
83CC 7C          0 479 ld a, h
83CD             0 480 __LABEL670:
83CD CD 65 D5    0 481 call __NORMALIZE_BOOLEAN
83D0 B7          0 482 or a
83D1 CA E1 83    0 483 jp z, __LABEL47
83D4 3E 28       0 484 ld a, 40
83D6 32 26 D6    0 485 ld (_playerY), a
83D9 3E 01       0 486 ld a, 1
83DB 32 60 D6    0 487 ld (_exitResult), a
83DE C3 96 84    0 488 jp __LABEL48
83E1             0 489 __LABEL47:
83E1 3A 1D D6    0 490 ld a, (_currentMapExit)
83E4 D6 02       0 491 sub 2
83E6 D6 01       0 492 sub 1
83E8 9F          0 493 sbc a, a
83E9 CD 65 D5    0 494 call __NORMALIZE_BOOLEAN
83EC F5          0 495 push af
83ED 3A 25 D6    0 496 ld a, (_playerX)
83F0 D6 01       0 497 sub 1
83F2 9F          0 498 sbc a, a
83F3 CD 65 D5    0 499 call __NORMALIZE_BOOLEAN
83F6 67          0 500 ld h, a
83F7 F1          0 501 pop af
83F8 B7          0 502 or a
83F9 28 01       0 503 jr z, __LABEL671
83FB 7C          0 504 ld a, h
83FC             0 505 __LABEL671:
83FC CD 65 D5    0 506 call __NORMALIZE_BOOLEAN
83FF B7          0 507 or a
8400 CA 10 84    0 508 jp z, __LABEL49
8403 3E F8       0 509 ld a, 248
8405 32 25 D6    0 510 ld (_playerX), a
8408 3E 01       0 511 ld a, 1
840A 32 60 D6    0 512 ld (_exitResult), a
840D C3 96 84    0 513 jp __LABEL50
8410             0 514 __LABEL49:
8410 3A 1D D6    0 515 ld a, (_currentMapExit)
8413 D6 03       0 516 sub 3
8415 D6 01       0 517 sub 1
8417 9F          0 518 sbc a, a
8418 CD 65 D5    0 519 call __NORMALIZE_BOOLEAN
841B F5          0 520 push af
841C 3A 25 D6    0 521 ld a, (_playerX)
841F D6 F8       0 522 sub 248
8421 D6 01       0 523 sub 1
8423 9F          0 524 sbc a, a
8424 CD 65 D5    0 525 call __NORMALIZE_BOOLEAN
8427 67          0 526 ld h, a
8428 F1          0 527 pop af
8429 B7          0 528 or a
842A 28 01       0 529 jr z, __LABEL672
842C 7C          0 530 ld a, h
842D             0 531 __LABEL672:
842D CD 65 D5    0 532 call __NORMALIZE_BOOLEAN
8430 B7          0 533 or a
8431 CA 40 84    0 534 jp z, __LABEL51
8434 AF          0 535 xor a
8435 32 25 D6    0 536 ld (_playerX), a
8438 3E 01       0 537 ld a, 1
843A 32 60 D6    0 538 ld (_exitResult), a
843D C3 96 84    0 539 jp __LABEL52
8440             0 540 __LABEL51:
8440 3A 26 D6    0 541 ld a, (_playerY)
8443 D6 28       0 542 sub 40
8445 D6 01       0 543 sub 1
8447 9F          0 544 sbc a, a
8448 CD 65 D5    0 545 call __NORMALIZE_BOOLEAN
844B B7          0 546 or a
844C CA 57 84    0 547 jp z, __LABEL53
844F 3E 88       0 548 ld a, 136
8451 32 26 D6    0 549 ld (_playerY), a
8454 C3 96 84    0 550 jp __LABEL54
8457             0 551 __LABEL53:
8457 3A 26 D6    0 552 ld a, (_playerY)
845A D6 88       0 553 sub 136
845C D6 01       0 554 sub 1
845E 9F          0 555 sbc a, a
845F CD 65 D5    0 556 call __NORMALIZE_BOOLEAN
8462 B7          0 557 or a
8463 CA 6E 84    0 558 jp z, __LABEL55
8466 3E 28       0 559 ld a, 40
8468 32 26 D6    0 560 ld (_playerY), a
846B C3 96 84    0 561 jp __LABEL56
846E             0 562 __LABEL55:
846E 3A 25 D6    0 563 ld a, (_playerX)
8471 D6 01       0 564 sub 1
8473 9F          0 565 sbc a, a
8474 CD 65 D5    0 566 call __NORMALIZE_BOOLEAN
8477 B7          0 567 or a
8478 CA 83 84    0 568 jp z, __LABEL57
847B 3E F8       0 569 ld a, 248
847D 32 25 D6    0 570 ld (_playerX), a
8480 C3 96 84    0 571 jp __LABEL58
8483             0 572 __LABEL57:
8483 3A 25 D6    0 573 ld a, (_playerX)
8486 D6 F8       0 574 sub 248
8488 D6 01       0 575 sub 1
848A 9F          0 576 sbc a, a
848B CD 65 D5    0 577 call __NORMALIZE_BOOLEAN
848E B7          0 578 or a
848F CA 96 84    0 579 jp z, __LABEL60
8492 AF          0 580 xor a
8493 32 25 D6    0 581 ld (_playerX), a
8496             0 582 __LABEL60:
8496             0 583 __LABEL58:
8496             0 584 __LABEL56:
8496             0 585 __LABEL54:
8496             0 586 __LABEL52:
8496             0 587 __LABEL50:
8496             0 588 __LABEL48:
8496             0 589 __LABEL46:
8496 3A 60 D6    0 590 ld a, (_exitResult)
8499 3D          0 591 dec a
849A D6 01       0 592 sub 1
849C 9F          0 593 sbc a, a
849D CD 65 D5    0 594 call __NORMALIZE_BOOLEAN
84A0 B7          0 595 or a
84A1 CA BC 84    0 596 jp z, __LABEL61
84A4 3A 37 D6    0 597 ld a, (_entryScreen)
84A7 B7          0 598 or a
84A8 CA B2 84    0 599 jp z, __LABEL63
84AB AF          0 600 xor a
84AC 32 37 D6    0 601 ld (_entryScreen), a
84AF C3 B9 84    0 602 jp __LABEL64
84B2             0 603 __LABEL63:
84B2 2A 1A D6    0 604 ld hl, (_currentMapIndex)
84B5 23          0 605 inc hl
84B6 22 1A D6    0 606 ld (_currentMapIndex), hl
84B9             0 607 __LABEL64:
84B9 C3 DC 84    0 608 jp __LABEL62
84BC             0 609 __LABEL61:
84BC ED 5B 1A D6 0 610 ld de, (_currentMapIndex)
84C0 2A 38 D6    0 611 ld hl, (_currentEntryIndex)
84C3 CD 6E D2    0 612 call __EQ16
84C6 CD 65 D5    0 613 call __NORMALIZE_BOOLEAN
84C9 B7          0 614 or a
84CA CA D5 84    0 615 jp z, __LABEL65
84CD 3E 01       0 616 ld a, 1
84CF 32 37 D6    0 617 ld (_entryScreen), a
84D2 C3 DC 84    0 618 jp __LABEL66
84D5             0 619 __LABEL65:
84D5 2A 1A D6    0 620 ld hl, (_currentMapIndex)
84D8 2B          0 621 dec hl
84D9 22 1A D6    0 622 ld (_currentMapIndex), hl
84DC             0 623 __LABEL66:
84DC             0 624 __LABEL62:
84DC 3E 01       0 625 ld a, 1
84DE 32 5E D6    0 626 ld (_state), a
84E1             0 627 __LABEL44:
84E1             0 628 __LABEL30:
84E1             0 629 __LABEL10:
84E1             0 630 __LABEL6:
84E1             0 631 __LABEL4:
84E1 C3 3E 80    0 632 jp __LABEL1
84E4             0 633 __LABEL2:
84E4 21 00 00    0 634 ld hl, 0
84E7 44          0 635 ld b, h
84E8 4D          0 636 ld c, l
84E9             0 637 __END_PROGRAM:
84E9 F3          0 638 di
84EA 2A F7 84    0 639 ld hl, (__CALL_BACK__)
84ED F9          0 640 ld sp, hl
84EE D9          0 641 exx
84EF E1          0 642 pop hl
84F0 D9          0 643 exx
84F1 FD E1       0 644 pop iy
84F3 DD E1       0 645 pop ix
84F5 FB          0 646 ei
84F6 C9          0 647 ret
84F7             0 648 __CALL_BACK__:
84F7 00 00       0 649 DEFW 0
84F9             0 650 _attr:
84F9 DD E5       0 651 push ix
84FB DD 21 00 00 0 652 ld ix, 0
84FF DD 39       0 653 add ix, sp
8501 DD 5E 07    0 657 ld e, (ix+7)
8504 DD 56 05    0 658 ld d, (ix+5)
8507 CD BB CD    0 659 call __IN_SCREEN
850A 30 04       0 660 jr nc, __ATTR_END
850C CD EE CD    0 661 call __ATTR_ADDR
850F 7E          0 662 ld a, (hl)
8510             0 663 __ATTR_END:
8510             0 666 _attr__leave:
8510 DD F9       0 667 ld sp, ix
8512 DD E1       0 668 pop ix
8514 D9          0 669 exx
8515 E1          0 670 pop hl
8516 C1          0 671 pop bc
8517 E3          0 672 ex (sp), hl
8518 D9          0 673 exx
8519 C9          0 674 ret
851A             0 675 _setattr:
851A DD E5       0 676 push ix
851C DD 21 00 00 0 677 ld ix, 0
8520 DD 39       0 678 add ix, sp
8522 DD 5E 07    0 682 ld e, (ix+7)
8525 DD 56 05    0 683 ld d, (ix+5)
8528 CD BB CD    0 684 call __IN_SCREEN
852B 30 07       0 685 jr nc, __ATTR_END
852D CD EE CD    0 686 call __ATTR_ADDR
8530 DD 7E 09    0 687 ld a, (ix+9)
8533 77          0 688 ld (hl), a
8534             0 689 __ATTR_END:
8534             0 692 _setattr__leave:
8534 DD F9       0 693 ld sp, ix
8536 DD E1       0 694 pop ix
8538 D9          0 695 exx
8539 E1          0 696 pop hl
853A C1          0 697 pop bc
853B C1          0 698 pop bc
853C E3          0 699 ex (sp), hl
853D D9          0 700 exx
853E C9          0 701 ret
853F             0 702 _attraddr:
853F E1          0 704 pop hl
8540 E3          0 705 ex (sp), hl
8541 57          0 706 ld d, a
8542 5C          0 707 ld e, h
8543 C3 EE CD    0 708 jp __ATTR_ADDR
8546             0 710 _attraddr__leave:
8546 C9          0 711 ret
8547             0 712 _point:
8547 DD E5       0 713 push ix
8549 DD 21 00 00 0 714 ld ix, 0
854D DD 39       0 715 add ix, sp
854F             0 722 PIXEL_ADDR EQU (22AAh + 6)
854F DD 46 07    0 723 ld b, (ix+7)
8552 DD 4E 05    0 724 ld c, (ix+5)
8555 3E BF       0 725 ld a, 191
8557 90          0 726 sub b
8558 D2 5F 85    0 727 jp nc, POINT_1
855B 3E FF       0 728 ld a, -1
855D 18 0B       0 729 jr POINT_END
855F             0 730 POINT_1:
855F CD B0 22    0 731 call PIXEL_ADDR
8562 47          0 732 ld b, a
8563 04          0 733 inc b
8564 7E          0 734 ld a, (hl)
8565             0 735 POINT_LOOP:
8565 07          0 736 rlca
8566 10 FD       0 737 djnz POINT_LOOP
8568 E6 01       0 738 and 1
856A             0 739 POINT_END:
856A             0 742 _point__leave:
856A DD F9       0 743 ld sp, ix
856C DD E1       0 744 pop ix
856E D9          0 745 exx
856F E1          0 746 pop hl
8570 C1          0 747 pop bc
8571 E3          0 748 ex (sp), hl
8572 D9          0 749 exx
8573 C9          0 750 ret
8574             0 751 _screen:
8574 DD E5       0 752 push ix
8576 DD 21 00 00 0 753 ld ix, 0
857A DD 39       0 754 add ix, sp
857C 21 00 00    0 755 ld hl, 0
857F E5          0 756 push hl
8580             0 763 __S_SCRNS_BC EQU 2538h
8580             0 764 STK_END EQU 5C65h
8580             0 765 RECLAIM2 EQU 19E8h
8580 01 04 00    0 766 ld bc, 4
8583 CD 4C CC    0 767 call __MEM_ALLOC
8586 E5          0 768 push hl
8587 7C          0 769 ld a, h
8588 B5          0 770 or l
8589 28 20       0 771 jr z, __SCREEN_END
858B 2A 65 5C    0 772 ld hl, (STK_END)
858E E5          0 773 push hl
858F DD 46 07    0 774 ld b, (ix+7)
8592 DD 4E 05    0 775 ld c, (ix+5)
8595 CD 38 25    0 776 call __S_SCRNS_BC
8598 CD F1 2B    0 777 call __FPSTACK_POP
859B E1          0 778 pop hl
859C 22 65 5C    0 779 ld (STK_END), hl
859F E1          0 780 pop hl
85A0 E5          0 781 push hl
85A1 71          0 782 ld (hl), c
85A2 23          0 783 inc hl
85A3 70          0 784 ld (hl), b
85A4 23          0 785 inc hl
85A5 1A          0 786 ld a, (de)
85A6 77          0 787 ld (hl), a
85A7 EB          0 788 ex de, hl
85A8 CD E8 19    0 789 call RECLAIM2
85AB             0 790 __SCREEN_END:
85AB E1          0 791 pop hl
85AC DD 75 FE    0 792 ld (ix-2), l
85AF DD 74 FF    0 793 ld (ix-1), h
85B2 DD 6E FE    0 796 ld l, (ix-2)
85B5 DD 66 FF    0 797 ld h, (ix-1)
85B8 CD 89 D3    0 798 call __LOADSTR
85BB             0 799 _screen__leave:
85BB 08          0 800 ex af, af'
85BC D9          0 801 exx
85BD DD 6E FE    0 802 ld l, (ix-2)
85C0 DD 66 FF    0 803 ld h, (ix-1)
85C3 CD 3D CD    0 804 call __MEM_FREE
85C6 08          0 805 ex af, af'
85C7 D9          0 806 exx
85C8 DD F9       0 807 ld sp, ix
85CA DD E1       0 808 pop ix
85CC D9          0 809 exx
85CD E1          0 810 pop hl
85CE C1          0 811 pop bc
85CF E3          0 812 ex (sp), hl
85D0 D9          0 813 exx
85D1 C9          0 814 ret
85D2             0 815 _pos:
85D2 CD A5 CD    0 818 call __LOAD_S_POSN
85D5 7B          0 819 ld a, e
85D6             0 822 _pos__leave:
85D6 C9          0 823 ret
85D7             0 824 _csrlin:
85D7 CD A5 CD    0 827 call __LOAD_S_POSN
85DA 7A          0 828 ld a, d
85DB             0 831 _csrlin__leave:
85DB C9          0 832 ret
85DC             0 833 _input:
85DC DD E5       0 834 push ix
85DE DD 21 00 00 0 835 ld ix, 0
85E2 DD 39       0 836 add ix, sp
85E4 21 00 00    0 837 ld hl, 0
85E7 E5          0 838 push hl
85E8 E5          0 839 push hl
85E9 11 5B CB    0 840 ld de, __LABEL0
85EC 01 FE FF    0 841 ld bc, -2
85EF CD 8D D4    0 842 call __PSTORE_STR
85F2 3A 3B 5C    0 843 ld a, (23611)
85F5 F5          0 844 push af
85F6 26 08       0 845 ld h, 8
85F8 F1          0 846 pop af
85F9 B4          0 847 or h
85FA 32 3B 5C    0 848 ld (23611), a
85FD             0 849 __LABEL67:
85FD CD 85 87    0 850 call _PRIVATEInputShowCursor
8600 AF          0 851 xor a
8601 32 08 5C    0 852 ld (_input_LastK), a
8604             0 853 __LABEL70:
8604             0 854 __LABEL72:
8604 3A 08 5C    0 855 ld a, (_input_LastK)
8607 CD 65 D5    0 856 call __NORMALIZE_BOOLEAN
860A B7          0 857 or a
860B CA 04 86    0 858 jp z, __LABEL70
860E             0 859 __LABEL71:
860E CD AA 87    0 860 call _PRIVATEInputHideCursor
8611 3A 08 5C    0 861 ld a, (_input_LastK)
8614 D6 0C       0 862 sub 12
8616 D6 01       0 863 sub 1
8618 9F          0 864 sbc a, a
8619 CD 65 D5    0 865 call __NORMALIZE_BOOLEAN
861C B7          0 866 or a
861D CA 80 86    0 867 jp z, __LABEL73
8620 DD 6E FE    0 868 ld l, (ix-2)
8623 DD 66 FF    0 869 ld h, (ix-1)
8626 CD 08 D5    0 870 call __STRLEN
8629 7C          0 871 ld a, h
862A B5          0 872 or l
862B CA 7D 86    0 873 jp z, __LABEL76
862E DD 6E FE    0 874 ld l, (ix-2)
8631 DD 66 FF    0 875 ld h, (ix-1)
8634 CD 08 D5    0 876 call __STRLEN
8637 E5          0 877 push hl
8638 11 01 00    0 878 ld de, 1
863B E1          0 879 pop hl
863C CD 6E D2    0 880 call __EQ16
863F CD 65 D5    0 881 call __NORMALIZE_BOOLEAN
8642 B7          0 882 or a
8643 CA 52 86    0 883 jp z, __LABEL77
8646 11 5B CB    0 884 ld de, __LABEL0
8649 01 FE FF    0 885 ld bc, -2
864C CD 8D D4    0 886 call __PSTORE_STR
864F C3 76 86    0 887 jp __LABEL78
8652             0 888 __LABEL77:
8652 DD 6E FE    0 889 ld l, (ix-2)
8655 DD 66 FF    0 890 ld h, (ix-1)
8658 E5          0 891 push hl
8659 21 00 00    0 892 ld hl, 0
865C E5          0 893 push hl
865D DD 6E FE    0 894 ld l, (ix-2)
8660 DD 66 FF    0 895 ld h, (ix-1)
8663 CD 08 D5    0 896 call __STRLEN
8666 2B          0 897 dec hl
8667 2B          0 898 dec hl
8668 2B          0 899 dec hl
8669 E5          0 900 push hl
866A AF          0 901 xor a
866B CD 6A D5    0 902 call __STRSLICE
866E 54          0 903 ld d, h
866F 5D          0 904 ld e, l
8670 01 FE FF    0 905 ld bc, -2
8673 CD AC D4    0 906 call __PSTORE_STR2
8676             0 907 __LABEL78:
8676 21 5D CB    0 908 ld hl, __LABEL79
8679 AF          0 909 xor a
867A CD D6 D3    0 910 call __PRINTSTR
867D             0 911 __LABEL76:
867D C3 E4 86    0 912 jp __LABEL74
8680             0 913 __LABEL73:
8680 3A 08 5C    0 914 ld a, (_input_LastK)
8683 D6 20       0 915 sub 32
8685 3F          0 916 ccf
8686 9F          0 917 sbc a, a
8687 CD 65 D5    0 918 call __NORMALIZE_BOOLEAN
868A F5          0 919 push af
868B DD 6E FE    0 920 ld l, (ix-2)
868E DD 66 FF    0 921 ld h, (ix-1)
8691 CD 08 D5    0 922 call __STRLEN
8694 E5          0 923 push hl
8695 DD 6E 04    0 924 ld l, (ix+4)
8698 DD 66 05    0 925 ld h, (ix+5)
869B EB          0 926 ex de, hl
869C E1          0 927 pop hl
869D B7          0 928 or a
869E ED 52       0 929 sbc hl, de
86A0 9F          0 930 sbc a, a
86A1 CD 65 D5    0 931 call __NORMALIZE_BOOLEAN
86A4 67          0 932 ld h, a
86A5 F1          0 933 pop af
86A6 B7          0 934 or a
86A7 28 01       0 935 jr z, __LABEL673
86A9 7C          0 936 ld a, h
86AA             0 937 __LABEL673:
86AA CD 65 D5    0 938 call __NORMALIZE_BOOLEAN
86AD B7          0 939 or a
86AE CA E4 86    0 940 jp z, __LABEL81
86B1 DD 6E FE    0 941 ld l, (ix-2)
86B4 DD 66 FF    0 942 ld h, (ix-1)
86B7 E5          0 943 push hl
86B8 3A 08 5C    0 944 ld a, (_input_LastK)
86BB F5          0 945 push af
86BC 21 01 00    0 946 ld hl, 1
86BF CD 2C CE    0 947 call CHR
86C2 EB          0 948 ex de, hl
86C3 E1          0 949 pop hl
86C4 D5          0 950 push de
86C5 CD 10 D5    0 951 call __ADDSTR
86C8 E3          0 952 ex (sp), hl
86C9 CD 3D CD    0 953 call __MEM_FREE
86CC E1          0 954 pop hl
86CD 54          0 955 ld d, h
86CE 5D          0 956 ld e, l
86CF 01 FE FF    0 957 ld bc, -2
86D2 CD AC D4    0 958 call __PSTORE_STR2
86D5 3A 08 5C    0 959 ld a, (_input_LastK)
86D8 F5          0 960 push af
86D9 21 01 00    0 961 ld hl, 1
86DC CD 2C CE    0 962 call CHR
86DF 3E 01       0 963 ld a, 1
86E1 CD D6 D3    0 964 call __PRINTSTR
86E4             0 965 __LABEL81:
86E4             0 966 __LABEL74:
86E4             0 967 __LABEL69:
86E4 3A 08 5C    0 968 ld a, (_input_LastK)
86E7 D6 0D       0 969 sub 13
86E9 D6 01       0 970 sub 1
86EB 9F          0 971 sbc a, a
86EC CD 65 D5    0 972 call __NORMALIZE_BOOLEAN
86EF B7          0 973 or a
86F0 CA FD 85    0 974 jp z, __LABEL67
86F3             0 975 __LABEL68:
86F3 DD 36 FC 01 0 976 ld (ix-4), 1
86F7 DD 36 FD 00 0 977 ld (ix-3), 0
86FB C3 4A 87    0 978 jp __LABEL82
86FE             0 979 __LABEL85:
86FE AF          0 980 xor a
86FF CD 00 CF    0 981 call OVER_TMP
8702 3E 08       0 982 ld a, 8
8704 F5          0 983 push af
8705 21 01 00    0 984 ld hl, 1
8708 CD 2C CE    0 985 call CHR
870B E5          0 986 push hl
870C 11 60 CB    0 987 ld de, __LABEL87
870F E1          0 988 pop hl
8710 E5          0 989 push hl
8711 CD 10 D5    0 990 call __ADDSTR
8714 E3          0 991 ex (sp), hl
8715 CD 3D CD    0 992 call __MEM_FREE
8718 E1          0 993 pop hl
8719 E5          0 994 push hl
871A 3E 08       0 995 ld a, 8
871C F5          0 996 push af
871D 21 01 00    0 997 ld hl, 1
8720 CD 2C CE    0 998 call CHR
8723 EB          0 999 ex de, hl
8724 E1          0 1000 pop hl
8725 E5          0 1001 push hl
8726 D5          0 1002 push de
8727 CD 10 D5    0 1003 call __ADDSTR
872A D1          0 1004 pop de
872B E3          0 1005 ex (sp), hl
872C D5          0 1006 push de
872D CD 3D CD    0 1007 call __MEM_FREE
8730 E1          0 1008 pop hl
8731 CD 3D CD    0 1009 call __MEM_FREE
8734 E1          0 1010 pop hl
8735 3E 01       0 1011 ld a, 1
8737 CD D6 D3    0 1012 call __PRINTSTR
873A CD A7 D1    0 1013 call COPY_ATTR
873D             0 1014 __LABEL86:
873D DD 6E FC    0 1015 ld l, (ix-4)
8740 DD 66 FD    0 1016 ld h, (ix-3)
8743 23          0 1017 inc hl
8744 DD 75 FC    0 1018 ld (ix-4), l
8747 DD 74 FD    0 1019 ld (ix-3), h
874A             0 1020 __LABEL82:
874A DD 6E FC    0 1021 ld l, (ix-4)
874D DD 66 FD    0 1022 ld h, (ix-3)
8750 E5          0 1023 push hl
8751 DD 6E FE    0 1024 ld l, (ix-2)
8754 DD 66 FF    0 1025 ld h, (ix-1)
8757 CD 08 D5    0 1026 call __STRLEN
875A D1          0 1027 pop de
875B B7          0 1028 or a
875C ED 52       0 1029 sbc hl, de
875E 9F          0 1030 sbc a, a
875F CD 65 D5    0 1031 call __NORMALIZE_BOOLEAN
8762 B7          0 1032 or a
8763 CA FE 86    0 1033 jp z, __LABEL85
8766             0 1034 __LABEL84:
8766 DD 6E FE    0 1035 ld l, (ix-2)
8769 DD 66 FF    0 1036 ld h, (ix-1)
876C CD 89 D3    0 1037 call __LOADSTR
876F             0 1038 _input__leave:
876F 08          0 1039 ex af, af'
8770 D9          0 1040 exx
8771 DD 6E FE    0 1041 ld l, (ix-2)
8774 DD 66 FF    0 1042 ld h, (ix-1)
8777 CD 3D CD    0 1043 call __MEM_FREE
877A 08          0 1044 ex af, af'
877B D9          0 1045 exx
877C DD F9       0 1046 ld sp, ix
877E DD E1       0 1047 pop ix
8780 D9          0 1048 exx
8781 E1          0 1049 pop hl
8782 E3          0 1050 ex (sp), hl
8783 D9          0 1051 exx
8784 C9          0 1052 ret
8785             0 1053 _PRIVATEInputShowCursor:
8785 CD D7 85    0 1054 call _csrlin
8788 F5          0 1055 push af
8789 CD D2 85    0 1056 call _pos
878C CD 67 D1    0 1057 call PRINT_AT
878F AF          0 1058 xor a
8790 CD 00 CF    0 1059 call OVER_TMP
8793 3E 01       0 1060 ld a, 1
8795 CD C6 CE    0 1061 call FLASH_TMP
8798 11 5D CB    0 1062 ld de, __LABEL79
879B 21 60 CB    0 1063 ld hl, __LABEL87
879E CD 10 D5    0 1064 call __ADDSTR
87A1 3E 01       0 1065 ld a, 1
87A3 CD D6 D3    0 1066 call __PRINTSTR
87A6 CD A7 D1    0 1067 call COPY_ATTR
87A9             0 1068 _PRIVATEInputShowCursor__leave:
87A9 C9          0 1069 ret
87AA             0 1070 _PRIVATEInputHideCursor:
87AA CD D7 85    0 1071 call _csrlin
87AD F5          0 1072 push af
87AE CD D2 85    0 1073 call _pos
87B1 CD 67 D1    0 1074 call PRINT_AT
87B4 AF          0 1075 xor a
87B5 CD 00 CF    0 1076 call OVER_TMP
87B8 AF          0 1077 xor a
87B9 CD C6 CE    0 1078 call FLASH_TMP
87BC 11 5D CB    0 1079 ld de, __LABEL79
87BF 21 60 CB    0 1080 ld hl, __LABEL87
87C2 CD 10 D5    0 1081 call __ADDSTR
87C5 3E 01       0 1082 ld a, 1
87C7 CD D6 D3    0 1083 call __PRINTSTR
87CA CD A7 D1    0 1084 call COPY_ATTR
87CD             0 1085 _PRIVATEInputHideCursor__leave:
87CD C9          0 1086 ret
87CE             0 1087 _allocate:
87CE 44          0 1089 ld b, h
87CF 4D          0 1090 ld c, l
87D0 C3 4C CC    0 1091 jp __MEM_ALLOC
87D3             0 1093 _allocate__leave:
87D3 C9          0 1094 ret
87D4             0 1095 _callocate:
87D4 44          0 1097 ld b, h
87D5 4D          0 1098 ld c, l
87D6 C3 09 CD    0 1099 jp __MEM_CALLOC
87D9             0 1101 _callocate__leave:
87D9 C9          0 1102 ret
87DA             0 1103 _deallocate:
87DA C3 3D CD    0 1105 jp __MEM_FREE
87DD             0 1107 _deallocate__leave:
87DD C9          0 1108 ret
87DE             0 1109 _reallocate:
87DE EB          0 1111 ex de, hl
87DF E1          0 1112 pop hl
87E0 E3          0 1113 ex (sp), hl
87E1 44          0 1114 ld b, h
87E2 4D          0 1115 ld c, l
87E3 EB          0 1116 ex de, hl
87E4 C3 F8 D3    0 1117 jp __REALLOC
87E7             0 1119 _reallocate__leave:
87E7 C9          0 1120 ret
87E8             0 1121 _memavail:
87E8 21 FC FA    0 1125 ld hl, ZXBASIC_MEM_HEAP
87EB 11 00 00    0 1126 ld de, 0
87EE             0 1127 LOOP:
87EE 4E          0 1128 ld c, (hl)
87EF 23          0 1129 inc hl
87F0 46          0 1130 ld b, (hl)
87F1 23          0 1131 inc hl
87F2 7E          0 1132 ld a, (hl)
87F3 23          0 1133 inc hl
87F4 66          0 1134 ld h, (hl)
87F5 6F          0 1135 ld l, a
87F6 EB          0 1136 ex de, hl
87F7 09          0 1137 add hl, bc
87F8 EB          0 1138 ex de, hl
87F9 7C          0 1139 ld a, h
87FA B5          0 1140 or l
87FB 20 F1       0 1141 jr nz, LOOP
87FD EB          0 1142 ex de, hl
87FE             0 1145 _memavail__leave:
87FE C9          0 1146 ret
87FF             0 1147 _maxavail:
87FF 21 FC FA    0 1151 ld hl, ZXBASIC_MEM_HEAP
8802 11 00 00    0 1152 ld de, 0
8805             0 1153 LOOP:
8805 4E          0 1154 ld c, (hl)
8806 23          0 1155 inc hl
8807 46          0 1156 ld b, (hl)
8808 23          0 1157 inc hl
8809 7E          0 1158 ld a, (hl)
880A 23          0 1159 inc hl
880B 66          0 1160 ld h, (hl)
880C 6F          0 1161 ld l, a
880D EB          0 1162 ex de, hl
880E B7          0 1163 or a
880F ED 42       0 1164 sbc hl, bc
8811 09          0 1165 add hl, bc
8812 EB          0 1166 ex de, hl
8813 30 02       0 1167 jr nc, CONT
8815 50          0 1168 ld d, b
8816 59          0 1169 ld e, c
8817             0 1170 CONT:
8817 7C          0 1171 ld a, h
8818 B5          0 1172 or l
8819 20 EA       0 1173 jr nz, LOOP
881B EB          0 1174 ex de, hl
881C             0 1177 _maxavail__leave:
881C C9          0 1178 ret
881D             0 1179 _initTable:
881D DD E5       0 1180 push ix
881F DD 21 00 00 0 1181 ld ix, 0
8823 DD 39       0 1182 add ix, sp
8825 06 00       0 1184 ld b, 0
8827 11 73 F1    0 1185 ld de, _tableCP.__DATA__
882A             0 1186 table_loop:
882A C5          0 1187 push bc
882B 78          0 1188 LD A,B
882C E6 07       0 1189 AND %00000111
882E F6 40       0 1190 OR %01000000
8830 67          0 1191 LD H,A
8831 78          0 1192 LD A,B
8832 1F          0 1193 RRA
8833 1F          0 1194 RRA
8834 1F          0 1195 RRA
8835 E6 18       0 1196 AND %00011000
8837 B4          0 1197 OR H
8838 67          0 1198 LD H,A
8839 78          0 1199 LD A,B
883A 17          0 1200 RLA
883B 17          0 1201 RLA
883C E6 E0       0 1202 AND %11100000
883E 6F          0 1203 ld l, a
883F 01 10 00    0 1204 ld bc, 16
8842 09          0 1205 add hl, bc
8843 7D          0 1206 ld a, l
8844 12          0 1207 ld (de), a
8845 13          0 1208 inc de
8846 7C          0 1209 ld a, h
8847 12          0 1210 ld (de), a
8848 13          0 1211 inc de
8849 09          0 1212 add hl, bc
884A 7D          0 1213 ld a,l
884B 12          0 1214 ld (de), a
884C 13          0 1215 inc de
884D 7C          0 1216 ld a, h
884E 12          0 1217 ld (de), a
884F 13          0 1218 inc de
8850 C1          0 1219 pop bc
8851 04          0 1220 inc b
8852 78          0 1221 ld a,b
8853 FE C0       0 1222 cp 192
8855 20 D3       0 1223 jr nz, table_loop
8857             0 1225 _initTable__leave:
8857 DD F9       0 1226 ld sp, ix
8859 DD E1       0 1227 pop ix
885B C9          0 1228 ret
885C             0 1229 _printRepeatColorChar:
885C DD E5       0 1230 push ix
885E DD 21 00 00 0 1231 ld ix, 0
8862 DD 39       0 1232 add ix, sp
8864 21 00 00    0 1233 ld hl, 0
8867 E5          0 1234 push hl
8868 33          0 1235 inc sp
8869 DD 7E 09    0 1236 ld a, (ix+9)
886C DD 77 FF    0 1237 ld (ix-1), a
886F C3 93 88    0 1238 jp __LABEL88
8872             0 1239 __LABEL91:
8872 DD 7E 0D    0 1240 ld a, (ix+13)
8875 6F          0 1241 ld l, a
8876 26 00       0 1242 ld h, 0
8878 E5          0 1243 push hl
8879 DD 7E FF    0 1244 ld a, (ix-1)
887C 6F          0 1245 ld l, a
887D 26 00       0 1246 ld h, 0
887F E5          0 1247 push hl
8880 DD 7E 07    0 1248 ld a, (ix+7)
8883 6F          0 1249 ld l, a
8884 26 00       0 1250 ld h, 0
8886 E5          0 1251 push hl
8887 DD 6E 04    0 1252 ld l, (ix+4)
888A DD 66 05    0 1253 ld h, (ix+5)
888D CD 16 8B    0 1254 call _printColorChar
8890             0 1255 __LABEL92:
8890 DD 34 FF    0 1256 inc (ix-1)
8893             0 1257 __LABEL88:
8893 DD 7E FF    0 1258 ld a, (ix-1)
8896 F5          0 1259 push af
8897 DD 7E 09    0 1260 ld a, (ix+9)
889A DD 86 0B    0 1261 add a, (ix+11)
889D E1          0 1262 pop hl
889E BC          0 1263 cp h
889F 9F          0 1264 sbc a, a
88A0 CD 65 D5    0 1265 call __NORMALIZE_BOOLEAN
88A3 B7          0 1266 or a
88A4 CA 72 88    0 1267 jp z, __LABEL91
88A7             0 1268 __LABEL90:
88A7             0 1269 _printRepeatColorChar__leave:
88A7 DD F9       0 1270 ld sp, ix
88A9 DD E1       0 1271 pop ix
88AB D9          0 1272 exx
88AC E1          0 1273 pop hl
88AD C1          0 1274 pop bc
88AE C1          0 1275 pop bc
88AF C1          0 1276 pop bc
88B0 C1          0 1277 pop bc
88B1 E3          0 1278 ex (sp), hl
88B2 D9          0 1279 exx
88B3 C9          0 1280 ret
88B4             0 1281 _ZXCharAddress:
88B4 DD E5       0 1282 push ix
88B6 DD 21 00 00 0 1283 ld ix, 0
88BA DD 39       0 1284 add ix, sp
88BC 21 00 00    0 1285 ld hl, 0
88BF E5          0 1286 push hl
88C0 DD 6E 04    0 1287 ld l, (ix+4)
88C3 DD 66 05    0 1288 ld h, (ix+5)
88C6 E5          0 1289 push hl
88C7 21 00 00    0 1290 ld hl, 0
88CA E5          0 1291 push hl
88CB 21 00 00    0 1292 ld hl, 0
88CE E5          0 1293 push hl
88CF AF          0 1294 xor a
88D0 CD 6A D5    0 1295 call __STRSLICE
88D3 3E 01       0 1296 ld a, 1
88D5 CD 8F CD    0 1297 call __ASC
88D8 6F          0 1298 ld l, a
88D9 26 00       0 1299 ld h, 0
88DB DD 75 FE    0 1300 ld (ix-2), l
88DE DD 74 FF    0 1301 ld (ix-1), h
88E1 DD 6E FE    0 1302 ld l, (ix-2)
88E4 DD 66 FF    0 1303 ld h, (ix-1)
88E7 29          0 1304 add hl, hl
88E8 29          0 1305 add hl, hl
88E9 29          0 1306 add hl, hl
88EA 11 00 3C    0 1307 ld de, 15360
88ED 19          0 1308 add hl, de
88EE DD 75 FE    0 1309 ld (ix-2), l
88F1 DD 74 FF    0 1310 ld (ix-1), h
88F4 DD 6E FE    0 1311 ld l, (ix-2)
88F7 DD 66 FF    0 1312 ld h, (ix-1)
88FA             0 1313 _ZXCharAddress__leave:
88FA 08          0 1314 ex af, af'
88FB D9          0 1315 exx
88FC DD 6E 04    0 1316 ld l, (ix+4)
88FF DD 66 05    0 1317 ld h, (ix+5)
8902 CD 3D CD    0 1318 call __MEM_FREE
8905 08          0 1319 ex af, af'
8906 D9          0 1320 exx
8907 DD F9       0 1321 ld sp, ix
8909 DD E1       0 1322 pop ix
890B D9          0 1323 exx
890C E1          0 1324 pop hl
890D E3          0 1325 ex (sp), hl
890E D9          0 1326 exx
890F C9          0 1327 ret
8910             0 1328 _printZXString:
8910 DD E5       0 1329 push ix
8912 DD 21 00 00 0 1330 ld ix, 0
8916 DD 39       0 1331 add ix, sp
8918 21 00 00    0 1332 ld hl, 0
891B E5          0 1333 push hl
891C E5          0 1334 push hl
891D 33          0 1335 inc sp
891E DD 7E 09    0 1336 ld a, (ix+9)
8921 DD 77 FF    0 1337 ld (ix-1), a
8924 C3 8C 89    0 1338 jp __LABEL93
8927             0 1339 __LABEL96:
8927 DD 6E 04    0 1340 ld l, (ix+4)
892A DD 66 05    0 1341 ld h, (ix+5)
892D E5          0 1342 push hl
892E DD 7E FF    0 1343 ld a, (ix-1)
8931 DD 96 09    0 1344 sub (ix+9)
8934 3C          0 1345 inc a
8935 3D          0 1346 dec a
8936 6F          0 1347 ld l, a
8937 26 00       0 1348 ld h, 0
8939 E5          0 1349 push hl
893A DD 7E FF    0 1350 ld a, (ix-1)
893D DD 96 09    0 1351 sub (ix+9)
8940 3C          0 1352 inc a
8941 3D          0 1353 dec a
8942 6F          0 1354 ld l, a
8943 26 00       0 1355 ld h, 0
8945 E5          0 1356 push hl
8946 AF          0 1357 xor a
8947 CD 6A D5    0 1358 call __STRSLICE
894A 3E 01       0 1359 ld a, 1
894C CD 8F CD    0 1360 call __ASC
894F 6F          0 1361 ld l, a
8950 26 00       0 1362 ld h, 0
8952 DD 75 FD    0 1363 ld (ix-3), l
8955 DD 74 FE    0 1364 ld (ix-2), h
8958 DD 6E FD    0 1365 ld l, (ix-3)
895B DD 66 FE    0 1366 ld h, (ix-2)
895E 29          0 1367 add hl, hl
895F 29          0 1368 add hl, hl
8960 29          0 1369 add hl, hl
8961 11 00 3C    0 1370 ld de, 15360
8964 19          0 1371 add hl, de
8965 DD 75 FD    0 1372 ld (ix-3), l
8968 DD 74 FE    0 1373 ld (ix-2), h
896B DD 7E 0B    0 1374 ld a, (ix+11)
896E 6F          0 1375 ld l, a
896F 26 00       0 1376 ld h, 0
8971 E5          0 1377 push hl
8972 DD 7E FF    0 1378 ld a, (ix-1)
8975 6F          0 1379 ld l, a
8976 26 00       0 1380 ld h, 0
8978 E5          0 1381 push hl
8979 DD 7E 07    0 1382 ld a, (ix+7)
897C 6F          0 1383 ld l, a
897D 26 00       0 1384 ld h, 0
897F E5          0 1385 push hl
8980 DD 6E FD    0 1386 ld l, (ix-3)
8983 DD 66 FE    0 1387 ld h, (ix-2)
8986 CD 16 8B    0 1388 call _printColorChar
8989             0 1389 __LABEL97:
8989 DD 34 FF    0 1390 inc (ix-1)
898C             0 1391 __LABEL93:
898C DD 7E FF    0 1392 ld a, (ix-1)
898F F5          0 1393 push af
8990 DD 7E 09    0 1394 ld a, (ix+9)
8993 6F          0 1395 ld l, a
8994 26 00       0 1396 ld h, 0
8996 E5          0 1397 push hl
8997 DD 6E 04    0 1398 ld l, (ix+4)
899A DD 66 05    0 1399 ld h, (ix+5)
899D CD 08 D5    0 1400 call __STRLEN
89A0 EB          0 1401 ex de, hl
89A1 E1          0 1402 pop hl
89A2 19          0 1403 add hl, de
89A3 2B          0 1404 dec hl
89A4 7D          0 1405 ld a, l
89A5 E1          0 1406 pop hl
89A6 BC          0 1407 cp h
89A7 9F          0 1408 sbc a, a
89A8 CD 65 D5    0 1409 call __NORMALIZE_BOOLEAN
89AB B7          0 1410 or a
89AC CA 27 89    0 1411 jp z, __LABEL96
89AF             0 1412 __LABEL95:
89AF             0 1413 _printZXString__leave:
89AF 08          0 1414 ex af, af'
89B0 D9          0 1415 exx
89B1 DD 6E 04    0 1416 ld l, (ix+4)
89B4 DD 66 05    0 1417 ld h, (ix+5)
89B7 CD 3D CD    0 1418 call __MEM_FREE
89BA 08          0 1419 ex af, af'
89BB D9          0 1420 exx
89BC DD F9       0 1421 ld sp, ix
89BE DD E1       0 1422 pop ix
89C0 D9          0 1423 exx
89C1 E1          0 1424 pop hl
89C2 C1          0 1425 pop bc
89C3 C1          0 1426 pop bc
89C4 C1          0 1427 pop bc
89C5 E3          0 1428 ex (sp), hl
89C6 D9          0 1429 exx
89C7 C9          0 1430 ret
89C8             0 1431 _createAttrib:
89C8 D9          0 1433 exx
89C9 E1          0 1434 pop hl
89CA D9          0 1435 exx
89CB C1          0 1436 pop bc
89CC D1          0 1437 pop de
89CD E1          0 1438 pop hl
89CE D9          0 1439 exx
89CF E5          0 1440 push hl
89D0 D9          0 1441 exx
89D1 E6 07       0 1442 and 7
89D3 4F          0 1443 ld c, a
89D4 78          0 1444 ld a, b
89D5 17          0 1445 rla
89D6 17          0 1446 rla
89D7 17          0 1447 rla
89D8 E6 38       0 1448 and 56
89DA B1          0 1449 or c
89DB 4F          0 1450 ld c, a
89DC 7A          0 1451 ld a, d
89DD FE 00       0 1452 cp 0
89DF 28 04       0 1453 jr z, noBrightAttrib
89E1 79          0 1454 ld a, c
89E2 F6 40       0 1455 or 64
89E4 4F          0 1456 ld c, a
89E5             0 1457 noBrightAttrib:
89E5 7C          0 1458 ld a, h
89E6 FE 00       0 1459 cp 0
89E8 28 05       0 1460 jr z, noFlash
89EA 79          0 1461 ld a, c
89EB F6 80       0 1462 or 128
89ED B1          0 1463 or c
89EE 4F          0 1464 ld c, a
89EF             0 1465 noFlash:
89EF 79          0 1466 ld a,c
89F0             0 1468 _createAttrib__leave:
89F0 C9          0 1469 ret
89F1             0 1470 _setAttrib:
89F1 D9          0 1472 exx
89F2 E1          0 1473 pop hl
89F3 D9          0 1474 exx
89F4 D1          0 1475 pop de
89F5 C1          0 1476 pop bc
89F6 D9          0 1477 exx
89F7 E5          0 1478 push hl
89F8 D9          0 1479 exx
89F9 29          0 1480 add hl, hl
89FA 29          0 1481 add hl, hl
89FB 29          0 1482 add hl, hl
89FC 29          0 1483 add hl, hl
89FD 29          0 1484 add hl, hl
89FE 19          0 1485 add hl, de
89FF 11 6C EE    0 1486 ld de, _attribBuffer.__DATA__
8A02 19          0 1487 add hl, de
8A03 71          0 1488 ld (hl), c
8A04             0 1490 _setAttrib__leave:
8A04 C9          0 1491 ret
8A05             0 1492 _clearScreen:
8A05 11 66 D6    0 1494 ld de, _bitmapBuffer.__DATA__ + 1
8A08 21 65 D6    0 1495 ld hl, _bitmapBuffer.__DATA__
8A0B 36 00       0 1496 ld (hl), 0
8A0D 01 FF 17    0 1497 ld bc, 6143
8A10 ED B0       0 1498 ldir
8A12 11 6D EE    0 1499 ld de, _attribBuffer.__DATA__ + 1
8A15 21 6C EE    0 1500 ld hl, _attribBuffer.__DATA__
8A18 77          0 1501 ld (hl), a
8A19 01 FF 02    0 1502 ld bc, 767
8A1C ED B0       0 1503 ldir
8A1E             0 1505 _clearScreen__leave:
8A1E C9          0 1506 ret
8A1F             0 1507 _clearScreenTop:
8A1F 11 66 D6    0 1509 ld de, _bitmapBuffer.__DATA__ + 1
8A22 21 65 D6    0 1510 ld hl, _bitmapBuffer.__DATA__
8A25 36 00       0 1511 ld (hl), 0
8A27 01 FF 05    0 1512 ld bc, 1535
8A2A ED B0       0 1513 ldir
8A2C 11 6D EE    0 1514 ld de, _attribBuffer.__DATA__ + 1
8A2F 21 6C EE    0 1515 ld hl, _attribBuffer.__DATA__
8A32 77          0 1516 ld (hl), a
8A33 01 BF 00    0 1517 ld bc, 191
8A36 ED B0       0 1518 ldir
8A38             0 1520 _clearScreenTop__leave:
8A38 C9          0 1521 ret
8A39             0 1522 _clearScreenCenter:
8A39 11 66 DC    0 1524 ld de, _bitmapBuffer.__DATA__ + 1 + 1536
8A3C 21 65 DC    0 1525 ld hl, _bitmapBuffer.__DATA__ + 1536
8A3F 36 00       0 1526 ld (hl), 0
8A41 01 FF 0B    0 1527 ld bc, 3071
8A44 ED B0       0 1528 ldir
8A46 11 2D EF    0 1529 ld de, _attribBuffer.__DATA__ + 1 + 192
8A49 21 2C EF    0 1530 ld hl, _attribBuffer.__DATA__ + 192
8A4C 77          0 1531 ld (hl), a
8A4D 01 7F 01    0 1532 ld bc, 383
8A50 ED B0       0 1533 ldir
8A52             0 1535 _clearScreenCenter__leave:
8A52 C9          0 1536 ret
8A53             0 1537 _clearScreenBottom:
8A53 11 66 E8    0 1539 ld de, _bitmapBuffer.__DATA__ + 1 + 4608
8A56 21 65 E8    0 1540 ld hl, _bitmapBuffer.__DATA__ + 4608
8A59 36 00       0 1541 ld (hl), 0
8A5B 01 FF 05    0 1542 ld bc, 1535
8A5E ED B0       0 1543 ldir
8A60 11 AD F0    0 1544 ld de, _attribBuffer.__DATA__ + 1 + 576
8A63 21 AC F0    0 1545 ld hl, _attribBuffer.__DATA__ + 576
8A66 77          0 1546 ld (hl), a
8A67 01 7F 01    0 1547 ld bc, 383
8A6A ED B0       0 1548 ldir
8A6C             0 1550 _clearScreenBottom__leave:
8A6C C9          0 1551 ret
8A6D             0 1552 _clearPixels:
8A6D DD E5       0 1553 push ix
8A6F DD 21 00 00 0 1554 ld ix, 0
8A73 DD 39       0 1555 add ix, sp
8A75 11 66 D6    0 1557 ld de, _bitmapBuffer.__DATA__ + 1
8A78 21 65 D6    0 1558 ld hl, _bitmapBuffer.__DATA__
8A7B 36 00       0 1559 ld (hl), 0
8A7D 01 FF 17    0 1560 ld bc, 6143
8A80 ED B0       0 1561 ldir
8A82             0 1563 _clearPixels__leave:
8A82 DD F9       0 1564 ld sp, ix
8A84 DD E1       0 1565 pop ix
8A86 C9          0 1566 ret
8A87             0 1567 _clearPixelsTop:
8A87 DD E5       0 1568 push ix
8A89 DD 21 00 00 0 1569 ld ix, 0
8A8D DD 39       0 1570 add ix, sp
8A8F 11 66 D6    0 1572 ld de, _bitmapBuffer.__DATA__ + 1
8A92 21 65 D6    0 1573 ld hl, _bitmapBuffer.__DATA__
8A95 36 00       0 1574 ld (hl), 0
8A97 01 FF 05    0 1575 ld bc, 1535
8A9A ED B0       0 1576 ldir
8A9C             0 1578 _clearPixelsTop__leave:
8A9C DD F9       0 1579 ld sp, ix
8A9E DD E1       0 1580 pop ix
8AA0 C9          0 1581 ret
8AA1             0 1582 _clearPixelsCenter:
8AA1 DD E5       0 1583 push ix
8AA3 DD 21 00 00 0 1584 ld ix, 0
8AA7 DD 39       0 1585 add ix, sp
8AA9 11 66 DC    0 1587 ld de, _bitmapBuffer.__DATA__ + 1 + 1536
8AAC 21 65 DC    0 1588 ld hl, _bitmapBuffer.__DATA__ + 1536
8AAF 36 00       0 1589 ld (hl), 0
8AB1 01 FF 0B    0 1590 ld bc, 3071
8AB4 ED B0       0 1591 ldir
8AB6             0 1593 _clearPixelsCenter__leave:
8AB6 DD F9       0 1594 ld sp, ix
8AB8 DD E1       0 1595 pop ix
8ABA C9          0 1596 ret
8ABB             0 1597 _clearPixelsBottom:
8ABB DD E5       0 1598 push ix
8ABD DD 21 00 00 0 1599 ld ix, 0
8AC1 DD 39       0 1600 add ix, sp
8AC3 11 66 E8    0 1602 ld de, _bitmapBuffer.__DATA__ + 1 + 4608
8AC6 21 65 E8    0 1603 ld hl, _bitmapBuffer.__DATA__ + 4608
8AC9 36 00       0 1604 ld (hl), 0
8ACB 01 FF 05    0 1605 ld bc, 1535
8ACE ED B0       0 1606 ldir
8AD0             0 1608 _clearPixelsBottom__leave:
8AD0 DD F9       0 1609 ld sp, ix
8AD2 DD E1       0 1610 pop ix
8AD4 C9          0 1611 ret
8AD5             0 1612 _clearAttribs:
8AD5 11 6D EE    0 1614 ld de, _attribBuffer.__DATA__ + 1
8AD8 21 6C EE    0 1615 ld hl, _attribBuffer.__DATA__
8ADB 77          0 1616 ld (hl), a
8ADC 01 FF 02    0 1617 ld bc, 767
8ADF ED B0       0 1618 ldir
8AE1             0 1620 _clearAttribs__leave:
8AE1 C9          0 1621 ret
8AE2             0 1622 _clearAttribsTop:
8AE2 11 6D EE    0 1624 ld de, _attribBuffer.__DATA__ + 1
8AE5 21 6C EE    0 1625 ld hl, _attribBuffer.__DATA__
8AE8 77          0 1626 ld (hl), a
8AE9 01 BF 00    0 1627 ld bc, 191
8AEC ED B0       0 1628 ldir
8AEE             0 1630 _clearAttribsTop__leave:
8AEE C9          0 1631 ret
8AEF             0 1632 _clearAttribsCenter:
8AEF 11 2D EF    0 1634 ld de, _attribBuffer.__DATA__ + 1 + 192
8AF2 21 2C EF    0 1635 ld hl, _attribBuffer.__DATA__ + 192
8AF5 77          0 1636 ld (hl), a
8AF6 01 7F 01    0 1637 ld bc, 383
8AF9 ED B0       0 1638 ldir
8AFB             0 1640 _clearAttribsCenter__leave:
8AFB C9          0 1641 ret
8AFC             0 1642 _clearAttribsBottom:
8AFC 11 66 E8    0 1644 ld de, _bitmapBuffer.__DATA__ + 1 + 4608
8AFF 21 65 E8    0 1645 ld hl, _bitmapBuffer.__DATA__ + 4608
8B02 36 00       0 1646 ld (hl), 0
8B04 01 FF 05    0 1647 ld bc, 1535
8B07 ED B0       0 1648 ldir
8B09 11 AD F0    0 1649 ld de, _attribBuffer.__DATA__ + 1 + 576
8B0C 21 AC F0    0 1650 ld hl, _attribBuffer.__DATA__ + 576
8B0F 77          0 1651 ld (hl), a
8B10 01 7F 01    0 1652 ld bc, 383
8B13 ED B0       0 1653 ldir
8B15             0 1655 _clearAttribsBottom__leave:
8B15 C9          0 1656 ret
8B16             0 1657 _printColorChar:
8B16 D9          0 1659 exx
8B17 E1          0 1660 pop hl
8B18 D9          0 1661 exx
8B19 D1          0 1662 pop de
8B1A C1          0 1663 pop bc
8B1B D9          0 1664 exx
8B1C D1          0 1665 pop de
8B1D E5          0 1666 push hl
8B1E D9          0 1667 exx
8B1F EB          0 1668 ex de, hl
8B20 29          0 1669 add hl, hl
8B21 29          0 1670 add hl, hl
8B22 29          0 1671 add hl, hl
8B23 29          0 1672 add hl, hl
8B24 29          0 1673 add hl, hl
8B25 C5          0 1674 push bc
8B26 E5          0 1675 push hl
8B27 29          0 1676 add hl, hl
8B28 29          0 1677 add hl, hl
8B29 29          0 1678 add hl, hl
8B2A 09          0 1679 add hl, bc
8B2B D9          0 1680 exx
8B2C C1          0 1681 pop bc
8B2D E1          0 1682 pop hl
8B2E 09          0 1683 add hl, bc
8B2F 01 6C EE    0 1684 ld bc, _attribBuffer.__DATA__
8B32 09          0 1685 add hl, bc
8B33 73          0 1686 ld (hl), e
8B34 D9          0 1687 exx
8B35 01 65 D6    0 1688 ld bc, _bitmapBuffer.__DATA__
8B38 09          0 1689 add hl, bc
8B39 1A          0 1690 ld a, (de)
8B3A 77          0 1691 ld (hl), a
8B3B 13          0 1692 inc de
8B3C 01 20 00    0 1693 ld bc, 32
8B3F 09          0 1694 add hl, bc
8B40 1A          0 1695 ld a, (de)
8B41 77          0 1696 ld (hl), a
8B42 13          0 1697 inc de
8B43 01 20 00    0 1698 ld bc, 32
8B46 09          0 1699 add hl, bc
8B47 1A          0 1700 ld a, (de)
8B48 77          0 1701 ld (hl), a
8B49 13          0 1702 inc de
8B4A 01 20 00    0 1703 ld bc, 32
8B4D 09          0 1704 add hl, bc
8B4E 1A          0 1705 ld a, (de)
8B4F 77          0 1706 ld (hl), a
8B50 13          0 1707 inc de
8B51 01 20 00    0 1708 ld bc, 32
8B54 09          0 1709 add hl, bc
8B55 1A          0 1710 ld a, (de)
8B56 77          0 1711 ld (hl), a
8B57 13          0 1712 inc de
8B58 01 20 00    0 1713 ld bc, 32
8B5B 09          0 1714 add hl, bc
8B5C 1A          0 1715 ld a, (de)
8B5D 77          0 1716 ld (hl), a
8B5E 13          0 1717 inc de
8B5F 01 20 00    0 1718 ld bc, 32
8B62 09          0 1719 add hl, bc
8B63 1A          0 1720 ld a, (de)
8B64 77          0 1721 ld (hl), a
8B65 13          0 1722 inc de
8B66 01 20 00    0 1723 ld bc, 32
8B69 09          0 1724 add hl, bc
8B6A 1A          0 1725 ld a, (de)
8B6B 77          0 1726 ld (hl), a
8B6C             0 1728 _printColorChar__leave:
8B6C C9          0 1729 ret
8B6D             0 1730 _drawColorSprite:
8B6D D9          0 1732 exx
8B6E E1          0 1733 pop hl
8B6F D9          0 1734 exx
8B70 D1          0 1735 pop de
8B71 C1          0 1736 pop bc
8B72 D9          0 1737 exx
8B73 D1          0 1738 pop de
8B74 E5          0 1739 push hl
8B75 D5          0 1740 push de
8B76 D9          0 1741 exx
8B77 EB          0 1742 ex de, hl
8B78 79          0 1743 ld a, c
8B79 CB 3F       0 1744 srl a
8B7B CB 3F       0 1745 srl a
8B7D CB 3F       0 1746 srl a
8B7F F5          0 1747 push af
8B80 E5          0 1748 push hl
8B81 F5          0 1749 push af
8B82 79          0 1750 ld a, c
8B83 E6 07       0 1751 and 7
8B85 C2 F6 8B    0 1752 jp nz, dcs_print_ext
8B88             0 1753 dcs_print_simple:
8B88 29          0 1754 add hl, hl
8B89 29          0 1755 add hl, hl
8B8A 29          0 1756 add hl, hl
8B8B 29          0 1757 add hl, hl
8B8C 29          0 1758 add hl, hl
8B8D 01 65 D6    0 1759 ld bc, _bitmapBuffer.__DATA__
8B90 09          0 1760 add hl, bc
8B91 F1          0 1761 pop af
8B92 4F          0 1762 ld c, a
8B93 06 00       0 1763 ld b, 0
8B95 09          0 1764 add hl, bc
8B96 01 20 00    0 1765 ld bc, 32
8B99 7E          0 1766 ld a, (hl)
8B9A EB          0 1767 ex de, hl
8B9B AE          0 1768 xor (hl)
8B9C EB          0 1769 ex de, hl
8B9D 77          0 1770 ld (hl), a
8B9E 13          0 1771 inc de
8B9F 09          0 1772 add hl, bc
8BA0 7E          0 1773 ld a, (hl)
8BA1 EB          0 1774 ex de, hl
8BA2 AE          0 1775 xor (hl)
8BA3 EB          0 1776 ex de, hl
8BA4 77          0 1777 ld (hl), a
8BA5 13          0 1778 inc de
8BA6 09          0 1779 add hl, bc
8BA7 7E          0 1780 ld a, (hl)
8BA8 EB          0 1781 ex de, hl
8BA9 AE          0 1782 xor (hl)
8BAA EB          0 1783 ex de, hl
8BAB 77          0 1784 ld (hl), a
8BAC 13          0 1785 inc de
8BAD 09          0 1786 add hl, bc
8BAE 7E          0 1787 ld a, (hl)
8BAF EB          0 1788 ex de, hl
8BB0 AE          0 1789 xor (hl)
8BB1 EB          0 1790 ex de, hl
8BB2 77          0 1791 ld (hl), a
8BB3 13          0 1792 inc de
8BB4 09          0 1793 add hl, bc
8BB5 7E          0 1794 ld a, (hl)
8BB6 EB          0 1795 ex de, hl
8BB7 AE          0 1796 xor (hl)
8BB8 EB          0 1797 ex de, hl
8BB9 77          0 1798 ld (hl), a
8BBA 13          0 1799 inc de
8BBB 09          0 1800 add hl, bc
8BBC 7E          0 1801 ld a, (hl)
8BBD EB          0 1802 ex de, hl
8BBE AE          0 1803 xor (hl)
8BBF EB          0 1804 ex de, hl
8BC0 77          0 1805 ld (hl), a
8BC1 13          0 1806 inc de
8BC2 09          0 1807 add hl, bc
8BC3 7E          0 1808 ld a, (hl)
8BC4 EB          0 1809 ex de, hl
8BC5 AE          0 1810 xor (hl)
8BC6 EB          0 1811 ex de, hl
8BC7 77          0 1812 ld (hl), a
8BC8 13          0 1813 inc de
8BC9 09          0 1814 add hl, bc
8BCA 7E          0 1815 ld a, (hl)
8BCB EB          0 1816 ex de, hl
8BCC AE          0 1817 xor (hl)
8BCD EB          0 1818 ex de, hl
8BCE 77          0 1819 ld (hl), a
8BCF E1          0 1820 pop hl
8BD0 7D          0 1821 ld a, l
8BD1 08          0 1822 ex af, af'
8BD2 CB 3D       0 1823 srl l
8BD4 CB 3D       0 1824 srl l
8BD6 CB 3D       0 1825 srl l
8BD8 29          0 1826 add hl, hl
8BD9 29          0 1827 add hl, hl
8BDA 29          0 1828 add hl, hl
8BDB 29          0 1829 add hl, hl
8BDC 29          0 1830 add hl, hl
8BDD F1          0 1831 pop af
8BDE 5F          0 1832 ld e, a
8BDF 16 00       0 1833 ld d, 0
8BE1 19          0 1834 add hl, de
8BE2 11 6C EE    0 1835 ld de, _attribBuffer.__DATA__
8BE5 19          0 1836 add hl, de
8BE6 D1          0 1837 pop de
8BE7 73          0 1838 ld (hl), e
8BE8 08          0 1839 ex af, af'
8BE9 E6 07       0 1840 and 7
8BEB CA 87 8C    0 1841 jp z, dcs_print_exit
8BEE 01 20 00    0 1842 ld bc, 32
8BF1 09          0 1843 add hl, bc
8BF2 73          0 1844 ld (hl), e
8BF3 C3 87 8C    0 1845 jp dcs_print_exit
8BF6             0 1846 dcs_print_ext:
8BF6 3E 08       0 1847 ld a, 8
8BF8 32 88 8C    0 1848 ld (dcs_loopCounter), a
8BFB C5          0 1849 push bc
8BFC D9          0 1850 exx
8BFD C1          0 1851 pop bc
8BFE F1          0 1852 pop af
8BFF 6F          0 1853 ld l, a
8C00 26 00       0 1854 ld h, 0
8C02 E5          0 1855 push hl
8C03 29          0 1856 add hl, hl
8C04 29          0 1857 add hl, hl
8C05 29          0 1858 add hl, hl
8C06 D5          0 1859 push de
8C07 C5          0 1860 push bc
8C08 D1          0 1861 pop de
8C09 EB          0 1862 ex de, hl
8C0A ED 52       0 1863 sbc hl, de
8C0C D1          0 1864 pop de
8C0D C1          0 1865 pop bc
8C0E E5          0 1866 push hl
8C0F C5          0 1867 push bc
8C10 D9          0 1868 exx
8C11 29          0 1869 add hl, hl
8C12 29          0 1870 add hl, hl
8C13 29          0 1871 add hl, hl
8C14 29          0 1872 add hl, hl
8C15 29          0 1873 add hl, hl
8C16 01 65 D6    0 1874 ld bc, _bitmapBuffer.__DATA__
8C19 09          0 1875 add hl, bc
8C1A C1          0 1876 pop bc
8C1B 09          0 1877 add hl, bc
8C1C EB          0 1878 ex de, hl
8C1D C1          0 1879 pop bc
8C1E C5          0 1880 push bc
8C1F E5          0 1881 push hl
8C20             0 1882 dcs_ext_loop:
8C20 7E          0 1883 ld a, (hl)
8C21 CD 7B 8C    0 1884 call dcs_rshift
8C24 D5          0 1885 push de
8C25 E1          0 1886 pop hl
8C26 AE          0 1887 xor (hl)
8C27 77          0 1888 ld (hl), a
8C28 E1          0 1889 pop hl
8C29 C1          0 1890 pop bc
8C2A C5          0 1891 push bc
8C2B E5          0 1892 push hl
8C2C 13          0 1893 inc de
8C2D 3E 08       0 1894 ld a, 8
8C2F 91          0 1895 sub c
8C30 4F          0 1896 ld c, a
8C31 7E          0 1897 ld a, (hl)
8C32 CD 81 8C    0 1898 call dcs_lshift
8C35 D5          0 1899 push de
8C36 E1          0 1900 pop hl
8C37 AE          0 1901 xor (hl)
8C38 77          0 1902 ld (hl), a
8C39 01 1F 00    0 1903 ld bc, 31
8C3C 09          0 1904 add hl, bc
8C3D E5          0 1905 push hl
8C3E D1          0 1906 pop de
8C3F E1          0 1907 pop hl
8C40 C1          0 1908 pop bc
8C41 23          0 1909 inc hl
8C42 C5          0 1910 push bc
8C43 E5          0 1911 push hl
8C44 3A 88 8C    0 1912 ld a, (dcs_loopCounter)
8C47 3D          0 1913 dec a
8C48 32 88 8C    0 1914 ld (dcs_loopCounter), a
8C4B C2 20 8C    0 1915 jp nz, dcs_ext_loop
8C4E E1          0 1916 pop hl
8C4F E1          0 1917 pop hl
8C50 E1          0 1918 pop hl
8C51 7D          0 1919 ld a, l
8C52 08          0 1920 ex af, af'
8C53 CB 3D       0 1921 srl l
8C55 CB 3D       0 1922 srl l
8C57 CB 3D       0 1923 srl l
8C59 29          0 1924 add hl, hl
8C5A 29          0 1925 add hl, hl
8C5B 29          0 1926 add hl, hl
8C5C 29          0 1927 add hl, hl
8C5D 29          0 1928 add hl, hl
8C5E F1          0 1929 pop af
8C5F 5F          0 1930 ld e, a
8C60 16 00       0 1931 ld d, 0
8C62 19          0 1932 add hl, de
8C63 11 6C EE    0 1933 ld de, _attribBuffer.__DATA__
8C66 19          0 1934 add hl, de
8C67 D1          0 1935 pop de
8C68 73          0 1936 ld (hl), e
8C69 23          0 1937 inc hl
8C6A 73          0 1938 ld (hl), e
8C6B 08          0 1939 ex af, af'
8C6C E6 07       0 1940 and 7
8C6E CA 87 8C    0 1941 jp z, dcs_print_exit
8C71 01 1F 00    0 1942 ld bc, 31
8C74 09          0 1943 add hl, bc
8C75 73          0 1944 ld (hl), e
8C76 23          0 1945 inc hl
8C77 73          0 1946 ld (hl), e
8C78 C3 87 8C    0 1947 jp dcs_print_exit
8C7B             0 1948 dcs_rshift:
8C7B CB 3F       0 1949 srl a
8C7D 0D          0 1950 dec c
8C7E 20 FB       0 1951 jr nz, dcs_rshift
8C80 C9          0 1952 ret
8C81             0 1953 dcs_lshift:
8C81 CB 27       0 1954 sla a
8C83 0D          0 1955 dec c
8C84 20 FB       0 1956 jr nz, dcs_lshift
8C86 C9          0 1957 ret
8C87             0 1958 dcs_print_exit:
8C87 C9          0 1959 ret
8C88             0 1960 dcs_loopCounter:
8C88 00          0 1961 defb 0
8C89             0 1963 _drawColorSprite__leave:
8C89 C9          0 1964 ret
8C8A             0 1965 _printChar:
8C8A D9          0 1967 exx
8C8B E1          0 1968 pop hl
8C8C D9          0 1969 exx
8C8D D1          0 1970 pop de
8C8E C1          0 1971 pop bc
8C8F D9          0 1972 exx
8C90 E5          0 1973 push hl
8C91 D9          0 1974 exx
8C92 EB          0 1975 ex de, hl
8C93 29          0 1976 add hl, hl
8C94 29          0 1977 add hl, hl
8C95 29          0 1978 add hl, hl
8C96 29          0 1979 add hl, hl
8C97 29          0 1980 add hl, hl
8C98 29          0 1981 add hl, hl
8C99 29          0 1982 add hl, hl
8C9A 29          0 1983 add hl, hl
8C9B 09          0 1984 add hl, bc
8C9C 01 65 D6    0 1985 ld bc, _bitmapBuffer.__DATA__
8C9F 09          0 1986 add hl, bc
8CA0 1A          0 1987 ld a, (de)
8CA1 77          0 1988 ld (hl), a
8CA2 13          0 1989 inc de
8CA3 01 20 00    0 1990 ld bc, 32
8CA6 09          0 1991 add hl, bc
8CA7 1A          0 1992 ld a, (de)
8CA8 77          0 1993 ld (hl), a
8CA9 13          0 1994 inc de
8CAA 01 20 00    0 1995 ld bc, 32
8CAD 09          0 1996 add hl, bc
8CAE 1A          0 1997 ld a, (de)
8CAF 77          0 1998 ld (hl), a
8CB0 13          0 1999 inc de
8CB1 01 20 00    0 2000 ld bc, 32
8CB4 09          0 2001 add hl, bc
8CB5 1A          0 2002 ld a, (de)
8CB6 77          0 2003 ld (hl), a
8CB7 13          0 2004 inc de
8CB8 01 20 00    0 2005 ld bc, 32
8CBB 09          0 2006 add hl, bc
8CBC 1A          0 2007 ld a, (de)
8CBD 77          0 2008 ld (hl), a
8CBE 13          0 2009 inc de
8CBF 01 20 00    0 2010 ld bc, 32
8CC2 09          0 2011 add hl, bc
8CC3 1A          0 2012 ld a, (de)
8CC4 77          0 2013 ld (hl), a
8CC5 13          0 2014 inc de
8CC6 01 20 00    0 2015 ld bc, 32
8CC9 09          0 2016 add hl, bc
8CCA 1A          0 2017 ld a, (de)
8CCB 77          0 2018 ld (hl), a
8CCC 13          0 2019 inc de
8CCD 01 20 00    0 2020 ld bc, 32
8CD0 09          0 2021 add hl, bc
8CD1 1A          0 2022 ld a, (de)
8CD2 77          0 2023 ld (hl), a
8CD3             0 2025 _printChar__leave:
8CD3 C9          0 2026 ret
8CD4             0 2027 _drawSprite:
8CD4 D9          0 2029 exx
8CD5 E1          0 2030 pop hl
8CD6 D9          0 2031 exx
8CD7 D1          0 2032 pop de
8CD8 C1          0 2033 pop bc
8CD9 D9          0 2034 exx
8CDA E5          0 2035 push hl
8CDB D9          0 2036 exx
8CDC EB          0 2037 ex de, hl
8CDD 79          0 2038 ld a, c
8CDE CB 3F       0 2039 srl a
8CE0 CB 3F       0 2040 srl a
8CE2 CB 3F       0 2041 srl a
8CE4 F5          0 2042 push af
8CE5 79          0 2043 ld a, c
8CE6 E6 07       0 2044 and 7
8CE8 C2 35 8D    0 2045 jp nz, ds_print_ext
8CEB             0 2046 ds_print_simple:
8CEB 29          0 2047 add hl, hl
8CEC 29          0 2048 add hl, hl
8CED 29          0 2049 add hl, hl
8CEE 29          0 2050 add hl, hl
8CEF 29          0 2051 add hl, hl
8CF0 01 65 D6    0 2052 ld bc, _bitmapBuffer.__DATA__
8CF3 09          0 2053 add hl, bc
8CF4 F1          0 2054 pop af
8CF5 4F          0 2055 ld c, a
8CF6 06 00       0 2056 ld b, 0
8CF8 09          0 2057 add hl, bc
8CF9 01 20 00    0 2058 ld bc, 32
8CFC 7E          0 2059 ld a, (hl)
8CFD EB          0 2060 ex de, hl
8CFE AE          0 2061 xor (hl)
8CFF EB          0 2062 ex de, hl
8D00 77          0 2063 ld (hl), a
8D01 13          0 2064 inc de
8D02 09          0 2065 add hl, bc
8D03 7E          0 2066 ld a, (hl)
8D04 EB          0 2067 ex de, hl
8D05 AE          0 2068 xor (hl)
8D06 EB          0 2069 ex de, hl
8D07 77          0 2070 ld (hl), a
8D08 13          0 2071 inc de
8D09 09          0 2072 add hl, bc
8D0A 7E          0 2073 ld a, (hl)
8D0B EB          0 2074 ex de, hl
8D0C AE          0 2075 xor (hl)
8D0D EB          0 2076 ex de, hl
8D0E 77          0 2077 ld (hl), a
8D0F 13          0 2078 inc de
8D10 09          0 2079 add hl, bc
8D11 7E          0 2080 ld a, (hl)
8D12 EB          0 2081 ex de, hl
8D13 AE          0 2082 xor (hl)
8D14 EB          0 2083 ex de, hl
8D15 77          0 2084 ld (hl), a
8D16 13          0 2085 inc de
8D17 09          0 2086 add hl, bc
8D18 7E          0 2087 ld a, (hl)
8D19 EB          0 2088 ex de, hl
8D1A AE          0 2089 xor (hl)
8D1B EB          0 2090 ex de, hl
8D1C 77          0 2091 ld (hl), a
8D1D 13          0 2092 inc de
8D1E 09          0 2093 add hl, bc
8D1F 7E          0 2094 ld a, (hl)
8D20 EB          0 2095 ex de, hl
8D21 AE          0 2096 xor (hl)
8D22 EB          0 2097 ex de, hl
8D23 77          0 2098 ld (hl), a
8D24 13          0 2099 inc de
8D25 09          0 2100 add hl, bc
8D26 7E          0 2101 ld a, (hl)
8D27 EB          0 2102 ex de, hl
8D28 AE          0 2103 xor (hl)
8D29 EB          0 2104 ex de, hl
8D2A 77          0 2105 ld (hl), a
8D2B 13          0 2106 inc de
8D2C 09          0 2107 add hl, bc
8D2D 7E          0 2108 ld a, (hl)
8D2E EB          0 2109 ex de, hl
8D2F AE          0 2110 xor (hl)
8D30 EB          0 2111 ex de, hl
8D31 77          0 2112 ld (hl), a
8D32 C3 9E 8D    0 2113 jp ds_print_exit
8D35             0 2114 ds_print_ext:
8D35 3E 08       0 2115 ld a, 8
8D37 32 9F 8D    0 2116 ld (ds_loopCounter), a
8D3A C5          0 2117 push bc
8D3B D9          0 2118 exx
8D3C C1          0 2119 pop bc
8D3D F1          0 2120 pop af
8D3E 6F          0 2121 ld l, a
8D3F 26 00       0 2122 ld h, 0
8D41 E5          0 2123 push hl
8D42 29          0 2124 add hl, hl
8D43 29          0 2125 add hl, hl
8D44 29          0 2126 add hl, hl
8D45 D5          0 2127 push de
8D46 C5          0 2128 push bc
8D47 D1          0 2129 pop de
8D48 EB          0 2130 ex de, hl
8D49 ED 52       0 2131 sbc hl, de
8D4B D1          0 2132 pop de
8D4C C1          0 2133 pop bc
8D4D E5          0 2134 push hl
8D4E C5          0 2135 push bc
8D4F D9          0 2136 exx
8D50 29          0 2137 add hl, hl
8D51 29          0 2138 add hl, hl
8D52 29          0 2139 add hl, hl
8D53 29          0 2140 add hl, hl
8D54 29          0 2141 add hl, hl
8D55 01 65 D6    0 2142 ld bc, _bitmapBuffer.__DATA__
8D58 09          0 2143 add hl, bc
8D59 C1          0 2144 pop bc
8D5A 09          0 2145 add hl, bc
8D5B EB          0 2146 ex de, hl
8D5C C1          0 2147 pop bc
8D5D C5          0 2148 push bc
8D5E E5          0 2149 push hl
8D5F             0 2150 ds_ext_loop:
8D5F 7E          0 2151 ld a, (hl)
8D60 CD 92 8D    0 2152 call ds_rshift
8D63 D5          0 2153 push de
8D64 E1          0 2154 pop hl
8D65 AE          0 2155 xor (hl)
8D66 77          0 2156 ld (hl), a
8D67 E1          0 2157 pop hl
8D68 C1          0 2158 pop bc
8D69 C5          0 2159 push bc
8D6A E5          0 2160 push hl
8D6B 13          0 2161 inc de
8D6C 3E 08       0 2162 ld a, 8
8D6E 91          0 2163 sub c
8D6F 4F          0 2164 ld c, a
8D70 7E          0 2165 ld a, (hl)
8D71 CD 98 8D    0 2166 call ds_lshift
8D74 D5          0 2167 push de
8D75 E1          0 2168 pop hl
8D76 AE          0 2169 xor (hl)
8D77 77          0 2170 ld (hl), a
8D78 01 1F 00    0 2171 ld bc, 31
8D7B 09          0 2172 add hl, bc
8D7C E5          0 2173 push hl
8D7D D1          0 2174 pop de
8D7E E1          0 2175 pop hl
8D7F C1          0 2176 pop bc
8D80 23          0 2177 inc hl
8D81 C5          0 2178 push bc
8D82 E5          0 2179 push hl
8D83 3A 9F 8D    0 2180 ld a, (ds_loopCounter)
8D86 3D          0 2181 dec a
8D87 32 9F 8D    0 2182 ld (ds_loopCounter), a
8D8A C2 5F 8D    0 2183 jp nz, ds_ext_loop
8D8D E1          0 2184 pop hl
8D8E E1          0 2185 pop hl
8D8F C3 9E 8D    0 2186 jp ds_print_exit
8D92             0 2187 ds_rshift:
8D92 CB 3F       0 2188 srl a
8D94 0D          0 2189 dec c
8D95 20 FB       0 2190 jr nz, ds_rshift
8D97 C9          0 2191 ret
8D98             0 2192 ds_lshift:
8D98 CB 27       0 2193 sla a
8D9A 0D          0 2194 dec c
8D9B 20 FB       0 2195 jr nz, ds_lshift
8D9D C9          0 2196 ret
8D9E             0 2197 ds_print_exit:
8D9E C9          0 2198 ret
8D9F             0 2199 ds_loopCounter:
8D9F 00          0 2200 defb 0
8DA0             0 2202 _drawSprite__leave:
8DA0 C9          0 2203 ret
8DA1             0 2204 _dumpScreen:
8DA1 DD E5       0 2205 push ix
8DA3 DD 21 00 00 0 2206 ld ix, 0
8DA7 DD 39       0 2207 add ix, sp
8DA9 DD E5       0 2209 push ix
8DAB FD E5       0 2210 push iy
8DAD ED 73 FF 8D 0 2211 ld (dsc_restore_stack + 1), sp
8DB1 11 80 01    0 2212 ld de, 384
8DB4 ED 53 FC 8D 0 2213 ld (dsc_counter), de
8DB8 21 65 D6    0 2214 ld hl, _bitmapBuffer.__DATA__
8DBB 22 C5 8D    0 2215 ld (dsc_copy + 1), hl
8DBE 21 73 F1    0 2216 ld hl, _tableCP.__DATA__
8DC1 22 D7 8D    0 2217 ld (dsc_target + 1), hl
8DC4             0 2218 dsc_copy:
8DC4 31 00 00    0 2219 ld sp, 0
8DC7 C1          0 2220 pop bc
8DC8 D1          0 2221 pop de
8DC9 E1          0 2222 pop hl
8DCA DD E1       0 2223 pop ix
8DCC FD E1       0 2224 pop iy
8DCE D9          0 2225 exx
8DCF C1          0 2226 pop bc
8DD0 D1          0 2227 pop de
8DD1 F1          0 2228 pop af
8DD2 ED 73 C5 8D 0 2229 ld (dsc_copy+1), sp
8DD6             0 2230 dsc_target:
8DD6 31 00 00    0 2231 ld sp, 0
8DD9 E1          0 2232 pop hl
8DDA ED 73 D7 8D 0 2233 ld (dsc_target + 1), sp
8DDE F9          0 2234 ld sp, hl
8DDF F5          0 2235 push af
8DE0 D5          0 2236 push de
8DE1 C5          0 2237 push bc
8DE2 D9          0 2238 exx
8DE3 FD E5       0 2239 push iy
8DE5 DD E5       0 2240 push ix
8DE7 E5          0 2241 push hl
8DE8 D5          0 2242 push de
8DE9 C5          0 2243 push bc
8DEA 2A FC 8D    0 2244 ld hl, (dsc_counter)
8DED 11 01 00    0 2245 ld de, 1
8DF0 AF          0 2246 xor a
8DF1 ED 52       0 2247 sbc hl, de
8DF3 22 FC 8D    0 2248 ld (dsc_counter), hl
8DF6 C2 C4 8D    0 2249 jp nz, dsc_copy
8DF9 C3 FE 8D    0 2250 jp dsc_restore_stack
8DFC             0 2251 dsc_counter:
8DFC 00 00       0 2252 defw 0
8DFE             0 2253 dsc_restore_stack:
8DFE 31 00 00    0 2254 ld sp, 0
8E01 21 6C EE    0 2255 ld hl, _attribBuffer.__DATA__
8E04 11 00 58    0 2256 ld de, 22528
8E07 01 00 03    0 2257 ld bc, 768
8E0A ED B0       0 2258 ldir
8E0C FD E1       0 2259 pop iy
8E0E DD E1       0 2260 pop ix
8E10             0 2262 _dumpScreen__leave:
8E10 DD F9       0 2263 ld sp, ix
8E12 DD E1       0 2264 pop ix
8E14 C9          0 2265 ret
8E15             0 2266 _dumpPixels:
8E15 DD E5       0 2267 push ix
8E17 DD 21 00 00 0 2268 ld ix, 0
8E1B DD 39       0 2269 add ix, sp
8E1D DD E5       0 2271 push ix
8E1F FD E5       0 2272 push iy
8E21 11 80 01    0 2273 ld de, 384
8E24 ED 53 70 8E 0 2274 ld (dpx_counter), de
8E28 ED 73 73 8E 0 2275 ld (dpx_restore_stack + 1), sp
8E2C 21 65 D6    0 2276 ld hl, _bitmapBuffer.__DATA__
8E2F 22 39 8E    0 2277 ld (dpx_copy + 1), hl
8E32 21 73 F1    0 2278 ld hl, _tableCP.__DATA__
8E35 22 4B 8E    0 2279 ld (dpx_target + 1), hl
8E38             0 2280 dpx_copy:
8E38 31 00 00    0 2281 ld sp, 0
8E3B C1          0 2282 pop bc
8E3C D1          0 2283 pop de
8E3D E1          0 2284 pop hl
8E3E DD E1       0 2285 pop ix
8E40 FD E1       0 2286 pop iy
8E42 D9          0 2287 exx
8E43 C1          0 2288 pop bc
8E44 D1          0 2289 pop de
8E45 F1          0 2290 pop af
8E46 ED 73 39 8E 0 2291 ld (dpx_copy+1), sp
8E4A             0 2292 dpx_target:
8E4A 31 00 00    0 2293 ld sp, 0
8E4D E1          0 2294 pop hl
8E4E ED 73 4B 8E 0 2295 ld (dpx_target + 1), sp
8E52 F9          0 2296 ld sp, hl
8E53 F5          0 2297 push af
8E54 D5          0 2298 push de
8E55 C5          0 2299 push bc
8E56 D9          0 2300 exx
8E57 FD E5       0 2301 push iy
8E59 DD E5       0 2302 push ix
8E5B E5          0 2303 push hl
8E5C D5          0 2304 push de
8E5D C5          0 2305 push bc
8E5E 2A 70 8E    0 2306 ld hl, (dpx_counter)
8E61 11 01 00    0 2307 ld de, 1
8E64 AF          0 2308 xor a
8E65 ED 52       0 2309 sbc hl, de
8E67 22 70 8E    0 2310 ld (dpx_counter), hl
8E6A C2 38 8E    0 2311 jp nz, dpx_copy
8E6D C3 72 8E    0 2312 jp dpx_restore_stack
8E70             0 2313 dpx_counter:
8E70 00 00       0 2314 defw 0
8E72             0 2315 dpx_restore_stack:
8E72 31 00 00    0 2316 ld sp, 0
8E75 FD E1       0 2317 pop iy
8E77 DD E1       0 2318 pop ix
8E79             0 2320 _dumpPixels__leave:
8E79 DD F9       0 2321 ld sp, ix
8E7B DD E1       0 2322 pop ix
8E7D C9          0 2323 ret
8E7E             0 2324 _dumpPixelsTop:
8E7E DD E5       0 2325 push ix
8E80 DD 21 00 00 0 2326 ld ix, 0
8E84 DD 39       0 2327 add ix, sp
8E86 DD E5       0 2329 push ix
8E88 FD E5       0 2330 push iy
8E8A 3E 60       0 2331 ld a, 96
8E8C 32 D2 8E    0 2332 ld (dpt_counter), a
8E8F ED 73 D4 8E 0 2333 ld (dpt_restore_stack + 1), sp
8E93 21 65 D6    0 2334 ld hl, _bitmapBuffer.__DATA__
8E96 22 A0 8E    0 2335 ld (dpt_copy + 1), hl
8E99 21 73 F1    0 2336 ld hl, _tableCP.__DATA__
8E9C 22 B2 8E    0 2337 ld (dpt_target + 1), hl
8E9F             0 2338 dpt_copy:
8E9F 31 00 00    0 2339 ld sp, 0
8EA2 C1          0 2340 pop bc
8EA3 D1          0 2341 pop de
8EA4 E1          0 2342 pop hl
8EA5 DD E1       0 2343 pop ix
8EA7 FD E1       0 2344 pop iy
8EA9 D9          0 2345 exx
8EAA C1          0 2346 pop bc
8EAB D1          0 2347 pop de
8EAC F1          0 2348 pop af
8EAD ED 73 A0 8E 0 2349 ld (dpt_copy+1), sp
8EB1             0 2350 dpt_target:
8EB1 31 00 00    0 2351 ld sp, 0
8EB4 E1          0 2352 pop hl
8EB5 ED 73 B2 8E 0 2353 ld (dpt_target + 1), sp
8EB9 F9          0 2354 ld sp, hl
8EBA F5          0 2355 push af
8EBB D5          0 2356 push de
8EBC C5          0 2357 push bc
8EBD D9          0 2358 exx
8EBE FD E5       0 2359 push iy
8EC0 DD E5       0 2360 push ix
8EC2 E5          0 2361 push hl
8EC3 D5          0 2362 push de
8EC4 C5          0 2363 push bc
8EC5 3A D2 8E    0 2364 ld a, (dpt_counter)
8EC8 3D          0 2365 dec a
8EC9 32 D2 8E    0 2366 ld (dpt_counter), a
8ECC C2 9F 8E    0 2367 jp nz, dpt_copy
8ECF C3 D3 8E    0 2368 jp dpt_restore_stack
8ED2             0 2369 dpt_counter:
8ED2 00          0 2370 defb 0
8ED3             0 2371 dpt_restore_stack:
8ED3 31 00 00    0 2372 ld sp, 0
8ED6 FD E1       0 2373 pop iy
8ED8 DD E1       0 2374 pop ix
8EDA             0 2376 _dumpPixelsTop__leave:
8EDA DD F9       0 2377 ld sp, ix
8EDC DD E1       0 2378 pop ix
8EDE C9          0 2379 ret
8EDF             0 2380 _dumpPixelsCenter:
8EDF DD E5       0 2381 push ix
8EE1 DD 21 00 00 0 2382 ld ix, 0
8EE5 DD 39       0 2383 add ix, sp
8EE7 DD E5       0 2385 push ix
8EE9 FD E5       0 2386 push iy
8EEB 3E C0       0 2387 ld a, 192
8EED 32 33 8F    0 2388 ld (dph_counter), a
8EF0 ED 73 35 8F 0 2389 ld (dph_restore_stack + 1), sp
8EF4 21 65 DC    0 2390 ld hl, _bitmapBuffer.__DATA__ + 1536
8EF7 22 01 8F    0 2391 ld (dph_copy + 1), hl
8EFA 21 33 F2    0 2392 ld hl, _tableCP.__DATA__ + 192
8EFD 22 13 8F    0 2393 ld (dph_target + 1), hl
8F00             0 2394 dph_copy:
8F00 31 00 00    0 2395 ld sp, 0
8F03 C1          0 2396 pop bc
8F04 D1          0 2397 pop de
8F05 E1          0 2398 pop hl
8F06 DD E1       0 2399 pop ix
8F08 FD E1       0 2400 pop iy
8F0A D9          0 2401 exx
8F0B C1          0 2402 pop bc
8F0C D1          0 2403 pop de
8F0D F1          0 2404 pop af
8F0E ED 73 01 8F 0 2405 ld (dph_copy+1), sp
8F12             0 2406 dph_target:
8F12 31 00 00    0 2407 ld sp, 0
8F15 E1          0 2408 pop hl
8F16 ED 73 13 8F 0 2409 ld (dph_target + 1), sp
8F1A F9          0 2410 ld sp, hl
8F1B F5          0 2411 push af
8F1C D5          0 2412 push de
8F1D C5          0 2413 push bc
8F1E D9          0 2414 exx
8F1F FD E5       0 2415 push iy
8F21 DD E5       0 2416 push ix
8F23 E5          0 2417 push hl
8F24 D5          0 2418 push de
8F25 C5          0 2419 push bc
8F26 3A 33 8F    0 2420 ld a, (dph_counter)
8F29 3D          0 2421 dec a
8F2A 32 33 8F    0 2422 ld (dph_counter), a
8F2D C2 00 8F    0 2423 jp nz, dph_copy
8F30 C3 34 8F    0 2424 jp dph_restore_stack
8F33             0 2425 dph_counter:
8F33 00          0 2426 defb 0
8F34             0 2427 dph_restore_stack:
8F34 31 00 00    0 2428 ld sp, 0
8F37 FD E1       0 2429 pop iy
8F39 DD E1       0 2430 pop ix
8F3B             0 2432 _dumpPixelsCenter__leave:
8F3B DD F9       0 2433 ld sp, ix
8F3D DD E1       0 2434 pop ix
8F3F C9          0 2435 ret
8F40             0 2436 _dumpPixelsBottom:
8F40 DD E5       0 2437 push ix
8F42 DD 21 00 00 0 2438 ld ix, 0
8F46 DD 39       0 2439 add ix, sp
8F48 DD E5       0 2441 push ix
8F4A FD E5       0 2442 push iy
8F4C 3E 60       0 2443 ld a, 96
8F4E 32 94 8F    0 2444 ld (dpb_counter), a
8F51 ED 73 96 8F 0 2445 ld (dpb_restore_stack + 1), sp
8F55 21 65 E6    0 2446 ld hl, _bitmapBuffer.__DATA__ + 4096
8F58 22 62 8F    0 2447 ld (dpb_copy + 1), hl
8F5B 21 B3 F3    0 2448 ld hl, _tableCP.__DATA__ + 576
8F5E 22 74 8F    0 2449 ld (dpb_target + 1), hl
8F61             0 2450 dpb_copy:
8F61 31 00 00    0 2451 ld sp, 0
8F64 C1          0 2452 pop bc
8F65 D1          0 2453 pop de
8F66 E1          0 2454 pop hl
8F67 DD E1       0 2455 pop ix
8F69 FD E1       0 2456 pop iy
8F6B D9          0 2457 exx
8F6C C1          0 2458 pop bc
8F6D D1          0 2459 pop de
8F6E F1          0 2460 pop af
8F6F ED 73 62 8F 0 2461 ld (dpb_copy+1), sp
8F73             0 2462 dpb_target:
8F73 31 00 00    0 2463 ld sp, 0
8F76 E1          0 2464 pop hl
8F77 ED 73 74 8F 0 2465 ld (dpb_target + 1), sp
8F7B F9          0 2466 ld sp, hl
8F7C F5          0 2467 push af
8F7D D5          0 2468 push de
8F7E C5          0 2469 push bc
8F7F D9          0 2470 exx
8F80 FD E5       0 2471 push iy
8F82 DD E5       0 2472 push ix
8F84 E5          0 2473 push hl
8F85 D5          0 2474 push de
8F86 C5          0 2475 push bc
8F87 3A 94 8F    0 2476 ld a, (dpb_counter)
8F8A 3D          0 2477 dec a
8F8B 32 94 8F    0 2478 ld (dpb_counter), a
8F8E C2 61 8F    0 2479 jp nz, dpb_copy
8F91 C3 95 8F    0 2480 jp dpb_restore_stack
8F94             0 2481 dpb_counter:
8F94 00          0 2482 defb 0
8F95             0 2483 dpb_restore_stack:
8F95 31 00 00    0 2484 ld sp, 0
8F98 FD E1       0 2485 pop iy
8F9A DD E1       0 2486 pop ix
8F9C             0 2488 _dumpPixelsBottom__leave:
8F9C DD F9       0 2489 ld sp, ix
8F9E DD E1       0 2490 pop ix
8FA0 C9          0 2491 ret
8FA1             0 2492 _dumpScreenTop:
8FA1 DD E5       0 2493 push ix
8FA3 DD 21 00 00 0 2494 ld ix, 0
8FA7 DD 39       0 2495 add ix, sp
8FA9 DD E5       0 2497 push ix
8FAB FD E5       0 2498 push iy
8FAD 3E 60       0 2499 ld a, 96
8FAF 32 F5 8F    0 2500 ld (dst_counter), a
8FB2 ED 73 F7 8F 0 2501 ld (dst_restore_stack + 1), sp
8FB6 21 65 D6    0 2502 ld hl, _bitmapBuffer.__DATA__
8FB9 22 C3 8F    0 2503 ld (dst_copy + 1), hl
8FBC 21 73 F1    0 2504 ld hl, _tableCP.__DATA__
8FBF 22 D5 8F    0 2505 ld (dst_target + 1), hl
8FC2             0 2506 dst_copy:
8FC2 31 00 00    0 2507 ld sp, 0
8FC5 C1          0 2508 pop bc
8FC6 D1          0 2509 pop de
8FC7 E1          0 2510 pop hl
8FC8 DD E1       0 2511 pop ix
8FCA FD E1       0 2512 pop iy
8FCC D9          0 2513 exx
8FCD C1          0 2514 pop bc
8FCE D1          0 2515 pop de
8FCF F1          0 2516 pop af
8FD0 ED 73 C3 8F 0 2517 ld (dst_copy+1), sp
8FD4             0 2518 dst_target:
8FD4 31 00 00    0 2519 ld sp, 0
8FD7 E1          0 2520 pop hl
8FD8 ED 73 D5 8F 0 2521 ld (dst_target + 1), sp
8FDC F9          0 2522 ld sp, hl
8FDD F5          0 2523 push af
8FDE D5          0 2524 push de
8FDF C5          0 2525 push bc
8FE0 D9          0 2526 exx
8FE1 FD E5       0 2527 push iy
8FE3 DD E5       0 2528 push ix
8FE5 E5          0 2529 push hl
8FE6 D5          0 2530 push de
8FE7 C5          0 2531 push bc
8FE8 3A F5 8F    0 2532 ld a, (dst_counter)
8FEB 3D          0 2533 dec a
8FEC 32 F5 8F    0 2534 ld (dst_counter), a
8FEF C2 C2 8F    0 2535 jp nz, dst_copy
8FF2 C3 F6 8F    0 2536 jp dst_restore_stack
8FF5             0 2537 dst_counter:
8FF5 00          0 2538 defb 0
8FF6             0 2539 dst_restore_stack:
8FF6 31 00 00    0 2540 ld sp, 0
8FF9 21 6C EE    0 2541 ld hl, _attribBuffer.__DATA__
8FFC 11 00 58    0 2542 ld de, 22528
8FFF 01 C0 00    0 2543 ld bc, 192
9002 ED B0       0 2544 ldir
9004 FD E1       0 2545 pop iy
9006 DD E1       0 2546 pop ix
9008             0 2548 _dumpScreenTop__leave:
9008 DD F9       0 2549 ld sp, ix
900A DD E1       0 2550 pop ix
900C C9          0 2551 ret
900D             0 2552 _dumpScreenCenter:
900D DD E5       0 2553 push ix
900F DD 21 00 00 0 2554 ld ix, 0
9013 DD 39       0 2555 add ix, sp
9015 DD E5       0 2557 push ix
9017 FD E5       0 2558 push iy
9019 3E C0       0 2559 ld a, 192
901B 32 61 90    0 2560 ld (dsh_counter), a
901E ED 73 63 90 0 2561 ld (dsh_restore_stack + 1), sp
9022 21 65 DC    0 2562 ld hl, _bitmapBuffer.__DATA__ + 1536
9025 22 2F 90    0 2563 ld (dsh_copy + 1), hl
9028 21 33 F2    0 2564 ld hl, _tableCP.__DATA__ + 192
902B 22 41 90    0 2565 ld (dsh_target + 1), hl
902E             0 2566 dsh_copy:
902E 31 00 00    0 2567 ld sp, 0
9031 C1          0 2568 pop bc
9032 D1          0 2569 pop de
9033 E1          0 2570 pop hl
9034 DD E1       0 2571 pop ix
9036 FD E1       0 2572 pop iy
9038 D9          0 2573 exx
9039 C1          0 2574 pop bc
903A D1          0 2575 pop de
903B F1          0 2576 pop af
903C ED 73 2F 90 0 2577 ld (dsh_copy+1), sp
9040             0 2578 dsh_target:
9040 31 00 00    0 2579 ld sp, 0
9043 E1          0 2580 pop hl
9044 ED 73 41 90 0 2581 ld (dsh_target + 1), sp
9048 F9          0 2582 ld sp, hl
9049 F5          0 2583 push af
904A D5          0 2584 push de
904B C5          0 2585 push bc
904C D9          0 2586 exx
904D FD E5       0 2587 push iy
904F DD E5       0 2588 push ix
9051 E5          0 2589 push hl
9052 D5          0 2590 push de
9053 C5          0 2591 push bc
9054 3A 61 90    0 2592 ld a, (dsh_counter)
9057 3D          0 2593 dec a
9058 32 61 90    0 2594 ld (dsh_counter), a
905B C2 2E 90    0 2595 jp nz, dsh_copy
905E C3 62 90    0 2596 jp dsh_restore_stack
9061             0 2597 dsh_counter:
9061 00          0 2598 defb 0
9062             0 2599 dsh_restore_stack:
9062 31 00 00    0 2600 ld sp, 0
9065 21 2C EF    0 2601 ld hl, _attribBuffer.__DATA__ + 192
9068 11 C0 58    0 2602 ld de, 22528 + 192
906B 01 80 01    0 2603 ld bc, 384
906E ED B0       0 2604 ldir
9070 FD E1       0 2605 pop iy
9072 DD E1       0 2606 pop ix
9074             0 2608 _dumpScreenCenter__leave:
9074 DD F9       0 2609 ld sp, ix
9076 DD E1       0 2610 pop ix
9078 C9          0 2611 ret
9079             0 2612 _dumpScreenBottom:
9079 DD E5       0 2613 push ix
907B DD 21 00 00 0 2614 ld ix, 0
907F DD 39       0 2615 add ix, sp
9081 DD E5       0 2617 push ix
9083 FD E5       0 2618 push iy
9085 3E 60       0 2619 ld a, 96
9087 32 CD 90    0 2620 ld (dsb_counter), a
908A ED 73 CF 90 0 2621 ld (dsb_restore_stack + 1), sp
908E 21 65 E8    0 2622 ld hl, _bitmapBuffer.__DATA__ + 4608
9091 22 9B 90    0 2623 ld (dsb_copy + 1), hl
9094 21 B3 F3    0 2624 ld hl, _tableCP.__DATA__ + 576
9097 22 AD 90    0 2625 ld (dsb_target + 1), hl
909A             0 2626 dsb_copy:
909A 31 00 00    0 2627 ld sp, 0
909D C1          0 2628 pop bc
909E D1          0 2629 pop de
909F E1          0 2630 pop hl
90A0 DD E1       0 2631 pop ix
90A2 FD E1       0 2632 pop iy
90A4 D9          0 2633 exx
90A5 C1          0 2634 pop bc
90A6 D1          0 2635 pop de
90A7 F1          0 2636 pop af
90A8 ED 73 9B 90 0 2637 ld (dsb_copy+1), sp
90AC             0 2638 dsb_target:
90AC 31 00 00    0 2639 ld sp, 0
90AF E1          0 2640 pop hl
90B0 ED 73 AD 90 0 2641 ld (dsb_target + 1), sp
90B4 F9          0 2642 ld sp, hl
90B5 F5          0 2643 push af
90B6 D5          0 2644 push de
90B7 C5          0 2645 push bc
90B8 D9          0 2646 exx
90B9 FD E5       0 2647 push iy
90BB DD E5       0 2648 push ix
90BD E5          0 2649 push hl
90BE D5          0 2650 push de
90BF C5          0 2651 push bc
90C0 3A CD 90    0 2652 ld a, (dsb_counter)
90C3 3D          0 2653 dec a
90C4 32 CD 90    0 2654 ld (dsb_counter), a
90C7 C2 9A 90    0 2655 jp nz, dsb_copy
90CA C3 CE 90    0 2656 jp dsb_restore_stack
90CD             0 2657 dsb_counter:
90CD 00          0 2658 defb 0
90CE             0 2659 dsb_restore_stack:
90CE 31 00 00    0 2660 ld sp, 0
90D1 21 AC F0    0 2661 ld hl, _attribBuffer.__DATA__ + 576
90D4 11 40 5A    0 2662 ld de, 22528 + 576
90D7 01 C0 00    0 2663 ld bc, 192
90DA ED B0       0 2664 ldir
90DC FD E1       0 2665 pop iy
90DE DD E1       0 2666 pop ix
90E0             0 2668 _dumpScreenBottom__leave:
90E0 DD F9       0 2669 ld sp, ix
90E2 DD E1       0 2670 pop ix
90E4 C9          0 2671 ret
90E5             0 2672 _dumpAttribs:
90E5 DD E5       0 2673 push ix
90E7 DD 21 00 00 0 2674 ld ix, 0
90EB DD 39       0 2675 add ix, sp
90ED AF          0 2677 xor a
90EE 11 00 58    0 2678 ld de, 22528
90F1 21 6C EE    0 2679 ld hl, _attribBuffer.__DATA__
90F4 01 00 03    0 2680 ld bc, 768
90F7 ED B0       0 2681 ldir
90F9             0 2683 _dumpAttribs__leave:
90F9 DD F9       0 2684 ld sp, ix
90FB DD E1       0 2685 pop ix
90FD C9          0 2686 ret
90FE             0 2687 _dumpAttribsTop:
90FE DD E5       0 2688 push ix
9100 DD 21 00 00 0 2689 ld ix, 0
9104 DD 39       0 2690 add ix, sp
9106 AF          0 2692 xor a
9107 11 00 58    0 2693 ld de, 22528
910A 21 6C EE    0 2694 ld hl, _attribBuffer.__DATA__
910D 01 C0 00    0 2695 ld bc, 192
9110 ED B0       0 2696 ldir
9112             0 2698 _dumpAttribsTop__leave:
9112 DD F9       0 2699 ld sp, ix
9114 DD E1       0 2700 pop ix
9116 C9          0 2701 ret
9117             0 2702 _dumpAttribsCenter:
9117 DD E5       0 2703 push ix
9119 DD 21 00 00 0 2704 ld ix, 0
911D DD 39       0 2705 add ix, sp
911F AF          0 2707 xor a
9120 11 C0 58    0 2708 ld de, 22528 + 192
9123 21 2C EF    0 2709 ld hl, _attribBuffer.__DATA__ + 192
9126 01 80 01    0 2710 ld bc, 384
9129 ED B0       0 2711 ldir
912B             0 2713 _dumpAttribsCenter__leave:
912B DD F9       0 2714 ld sp, ix
912D DD E1       0 2715 pop ix
912F C9          0 2716 ret
9130             0 2717 _dumpAttribsBottom:
9130 DD E5       0 2718 push ix
9132 DD 21 00 00 0 2719 ld ix, 0
9136 DD 39       0 2720 add ix, sp
9138 AF          0 2722 xor a
9139 11 40 5A    0 2723 ld de, 22528 + 576
913C 21 AC F0    0 2724 ld hl, _attribBuffer.__DATA__ + 576
913F 01 C0 00    0 2725 ld bc, 192
9142 ED B0       0 2726 ldir
9144             0 2728 _dumpAttribsBottom__leave:
9144 DD F9       0 2729 ld sp, ix
9146 DD E1       0 2730 pop ix
9148 C9          0 2731 ret
9149             0 2732 _dumpAttrib:
9149 11 01 58    0 2734 ld de, 22529
914C 21 00 58    0 2735 ld hl, 22528
914F 77          0 2736 ld (hl), a
9150 01 FF 02    0 2737 ld bc, 767
9153 ED B0       0 2738 ldir
9155             0 2740 _dumpAttrib__leave:
9155 C9          0 2741 ret
9156             0 2742 _dumpAttribTop:
9156 11 01 58    0 2744 ld de, 22529
9159 21 00 58    0 2745 ld hl, 22528
915C 77          0 2746 ld (hl), a
915D 01 BF 00    0 2747 ld bc, 191
9160 ED B0       0 2748 ldir
9162             0 2750 _dumpAttribTop__leave:
9162 C9          0 2751 ret
9163             0 2752 _dumpAttribCenter:
9163 11 C1 58    0 2754 ld de, 22529 + 192
9166 21 C0 58    0 2755 ld hl, 22528 + 192
9169 77          0 2756 ld (hl), a
916A 01 7F 01    0 2757 ld bc, 383
916D ED B0       0 2758 ldir
916F             0 2760 _dumpAttribCenter__leave:
916F C9          0 2761 ret
9170             0 2762 _dumpAttribBottom:
9170 11 41 5A    0 2764 ld de, 22529 + 576
9173 21 40 5A    0 2765 ld hl, 22528 + 576
9176 77          0 2766 ld (hl), a
9177 01 BF 00    0 2767 ld bc, 191
917A ED B0       0 2768 ldir
917C             0 2770 _dumpAttribBottom__leave:
917C C9          0 2771 ret
917D             0 2772 _waitSpace:
917D DD E5       0 2773 push ix
917F DD 21 00 00 0 2774 ld ix, 0
9183 DD 39       0 2775 add ix, sp
9185 FB          0 2777 ei
9186 AF          0 2779 xor a
9187 32 E4 FA    0 2780 ld (_keyStates.__DATA__ + 4), a
918A             0 2781 __LABEL98:
918A 3A E4 FA    0 2782 ld a, (_keyStates.__DATA__ + 4)
918D D6 01       0 2783 sub 1
918F 9F          0 2784 sbc a, a
9190 CD 65 D5    0 2785 call __NORMALIZE_BOOLEAN
9193 B7          0 2786 or a
9194 CA 9D 91    0 2787 jp z, __LABEL99
9197 CD DC B8    0 2788 call _keybScan
919A C3 8A 91    0 2789 jp __LABEL98
919D             0 2790 __LABEL99:
919D F3          0 2792 di
919E             0 2794 _waitSpace__leave:
919E DD F9       0 2795 ld sp, ix
91A0 DD E1       0 2796 pop ix
91A2 C9          0 2797 ret
91A3             0 2798 _title:
91A3 DD E5       0 2799 push ix
91A5 DD 21 00 00 0 2800 ld ix, 0
91A9 DD 39       0 2801 add ix, sp
91AB 21 00 00    0 2802 ld hl, 0
91AE E5          0 2803 push hl
91AF 33          0 2804 inc sp
91B0 AF          0 2805 xor a
91B1 F5          0 2806 push af
91B2 3E 01       0 2807 ld a, 1
91B4 F5          0 2808 push af
91B5 AF          0 2809 xor a
91B6 F5          0 2810 push af
91B7 3E 07       0 2811 ld a, 7
91B9 CD C8 89    0 2812 call _createAttrib
91BC DD 77 FF    0 2813 ld (ix-1), a
91BF 6F          0 2814 ld l, a
91C0 26 00       0 2815 ld h, 0
91C2 E5          0 2816 push hl
91C3 21 08 00    0 2817 ld hl, 8
91C6 E5          0 2818 push hl
91C7 21 01 00    0 2819 ld hl, 1
91CA E5          0 2820 push hl
91CB 21 7A F4    0 2821 ld hl, _tlc.__DATA__
91CE CD 16 8B    0 2822 call _printColorChar
91D1 DD 7E FF    0 2823 ld a, (ix-1)
91D4 6F          0 2824 ld l, a
91D5 26 00       0 2825 ld h, 0
91D7 E5          0 2826 push hl
91D8 21 08 00    0 2827 ld hl, 8
91DB E5          0 2828 push hl
91DC 21 02 00    0 2829 ld hl, 2
91DF E5          0 2830 push hl
91E0 21 98 F4    0 2831 ld hl, _mlor.__DATA__
91E3 CD 16 8B    0 2832 call _printColorChar
91E6 DD 7E FF    0 2833 ld a, (ix-1)
91E9 6F          0 2834 ld l, a
91EA 26 00       0 2835 ld h, 0
91EC E5          0 2836 push hl
91ED 21 08 00    0 2837 ld hl, 8
91F0 E5          0 2838 push hl
91F1 21 03 00    0 2839 ld hl, 3
91F4 E5          0 2840 push hl
91F5 21 89 F4    0 2841 ld hl, _blc.__DATA__
91F8 CD 16 8B    0 2842 call _printColorChar
91FB DD 7E FF    0 2843 ld a, (ix-1)
91FE 6F          0 2844 ld l, a
91FF 26 00       0 2845 ld h, 0
9201 E5          0 2846 push hl
9202 21 09 00    0 2847 ld hl, 9
9205 E5          0 2848 push hl
9206 21 02 00    0 2849 ld hl, 2
9209 E5          0 2850 push hl
920A 21 B6 F4    0 2851 ld hl, _mlo.__DATA__
920D CD 16 8B    0 2852 call _printColorChar
9210 DD 7E FF    0 2853 ld a, (ix-1)
9213 6F          0 2854 ld l, a
9214 26 00       0 2855 ld h, 0
9216 E5          0 2856 push hl
9217 21 0A 00    0 2857 ld hl, 10
921A E5          0 2858 push hl
921B 21 01 00    0 2859 ld hl, 1
921E E5          0 2860 push hl
921F 21 7A F4    0 2861 ld hl, _tlc.__DATA__
9222 CD 16 8B    0 2862 call _printColorChar
9225 DD 7E FF    0 2863 ld a, (ix-1)
9228 6F          0 2864 ld l, a
9229 26 00       0 2865 ld h, 0
922B E5          0 2866 push hl
922C 21 0A 00    0 2867 ld hl, 10
922F E5          0 2868 push hl
9230 21 02 00    0 2869 ld hl, 2
9233 E5          0 2870 push hl
9234 21 A7 F4    0 2871 ld hl, _mlol.__DATA__
9237 CD 16 8B    0 2872 call _printColorChar
923A DD 7E FF    0 2873 ld a, (ix-1)
923D 6F          0 2874 ld l, a
923E 26 00       0 2875 ld h, 0
9240 E5          0 2876 push hl
9241 21 0A 00    0 2877 ld hl, 10
9244 E5          0 2878 push hl
9245 21 03 00    0 2879 ld hl, 3
9248 E5          0 2880 push hl
9249 21 89 F4    0 2881 ld hl, _blc.__DATA__
924C CD 16 8B    0 2882 call _printColorChar
924F DD 7E FF    0 2883 ld a, (ix-1)
9252 6F          0 2884 ld l, a
9253 26 00       0 2885 ld h, 0
9255 E5          0 2886 push hl
9256 21 0B 00    0 2887 ld hl, 11
9259 E5          0 2888 push hl
925A 21 03 00    0 2889 ld hl, 3
925D E5          0 2890 push hl
925E 21 C5 F4    0 2891 ld hl, _dot.__DATA__
9261 CD 16 8B    0 2892 call _printColorChar
9264 CD A1 8F    0 2893 call _dumpScreenTop
9267 3E 07       0 2894 ld a, 7
9269 CD 7C C0    0 2895 call _playAudio
926C F3          0 2897 di
926D DD 7E FF    0 2899 ld a, (ix-1)
9270 6F          0 2900 ld l, a
9271 26 00       0 2901 ld h, 0
9273 E5          0 2902 push hl
9274 21 0C 00    0 2903 ld hl, 12
9277 E5          0 2904 push hl
9278 21 01 00    0 2905 ld hl, 1
927B E5          0 2906 push hl
927C 21 D4 F4    0 2907 ld hl, _tlcc.__DATA__
927F CD 16 8B    0 2908 call _printColorChar
9282 DD 7E FF    0 2909 ld a, (ix-1)
9285 6F          0 2910 ld l, a
9286 26 00       0 2911 ld h, 0
9288 E5          0 2912 push hl
9289 21 0C 00    0 2913 ld hl, 12
928C E5          0 2914 push hl
928D 21 02 00    0 2915 ld hl, 2
9290 E5          0 2916 push hl
9291 21 98 F4    0 2917 ld hl, _mlor.__DATA__
9294 CD 16 8B    0 2918 call _printColorChar
9297 DD 7E FF    0 2919 ld a, (ix-1)
929A 6F          0 2920 ld l, a
929B 26 00       0 2921 ld h, 0
929D E5          0 2922 push hl
929E 21 0C 00    0 2923 ld hl, 12
92A1 E5          0 2924 push hl
92A2 21 03 00    0 2925 ld hl, 3
92A5 E5          0 2926 push hl
92A6 21 E3 F4    0 2927 ld hl, _blcc.__DATA__
92A9 CD 16 8B    0 2928 call _printColorChar
92AC DD 7E FF    0 2929 ld a, (ix-1)
92AF 6F          0 2930 ld l, a
92B0 26 00       0 2931 ld h, 0
92B2 E5          0 2932 push hl
92B3 21 0D 00    0 2933 ld hl, 13
92B6 E5          0 2934 push hl
92B7 21 01 00    0 2935 ld hl, 1
92BA E5          0 2936 push hl
92BB 21 B6 F4    0 2937 ld hl, _mlo.__DATA__
92BE CD 16 8B    0 2938 call _printColorChar
92C1 DD 7E FF    0 2939 ld a, (ix-1)
92C4 6F          0 2940 ld l, a
92C5 26 00       0 2941 ld h, 0
92C7 E5          0 2942 push hl
92C8 21 0D 00    0 2943 ld hl, 13
92CB E5          0 2944 push hl
92CC 21 02 00    0 2945 ld hl, 2
92CF E5          0 2946 push hl
92D0 21 B6 F4    0 2947 ld hl, _mlo.__DATA__
92D3 CD 16 8B    0 2948 call _printColorChar
92D6 DD 7E FF    0 2949 ld a, (ix-1)
92D9 6F          0 2950 ld l, a
92DA 26 00       0 2951 ld h, 0
92DC E5          0 2952 push hl
92DD 21 0D 00    0 2953 ld hl, 13
92E0 E5          0 2954 push hl
92E1 21 03 00    0 2955 ld hl, 3
92E4 E5          0 2956 push hl
92E5 21 B6 F4    0 2957 ld hl, _mlo.__DATA__
92E8 CD 16 8B    0 2958 call _printColorChar
92EB DD 7E FF    0 2959 ld a, (ix-1)
92EE 6F          0 2960 ld l, a
92EF 26 00       0 2961 ld h, 0
92F1 E5          0 2962 push hl
92F2 21 0E 00    0 2963 ld hl, 14
92F5 E5          0 2964 push hl
92F6 21 01 00    0 2965 ld hl, 1
92F9 E5          0 2966 push hl
92FA 21 F2 F4    0 2967 ld hl, _rec.__DATA__
92FD CD 16 8B    0 2968 call _printColorChar
9300 DD 7E FF    0 2969 ld a, (ix-1)
9303 6F          0 2970 ld l, a
9304 26 00       0 2971 ld h, 0
9306 E5          0 2972 push hl
9307 21 0E 00    0 2973 ld hl, 14
930A E5          0 2974 push hl
930B 21 02 00    0 2975 ld hl, 2
930E E5          0 2976 push hl
930F 21 F2 F4    0 2977 ld hl, _rec.__DATA__
9312 CD 16 8B    0 2978 call _printColorChar
9315 DD 7E FF    0 2979 ld a, (ix-1)
9318 6F          0 2980 ld l, a
9319 26 00       0 2981 ld h, 0
931B E5          0 2982 push hl
931C 21 0E 00    0 2983 ld hl, 14
931F E5          0 2984 push hl
9320 21 03 00    0 2985 ld hl, 3
9323 E5          0 2986 push hl
9324 21 F2 F4    0 2987 ld hl, _rec.__DATA__
9327 CD 16 8B    0 2988 call _printColorChar
932A DD 7E FF    0 2989 ld a, (ix-1)
932D 6F          0 2990 ld l, a
932E 26 00       0 2991 ld h, 0
9330 E5          0 2992 push hl
9331 21 0F 00    0 2993 ld hl, 15
9334 E5          0 2994 push hl
9335 21 03 00    0 2995 ld hl, 3
9338 E5          0 2996 push hl
9339 21 C5 F4    0 2997 ld hl, _dot.__DATA__
933C CD 16 8B    0 2998 call _printColorChar
933F CD A1 8F    0 2999 call _dumpScreenTop
9342 3E 07       0 3000 ld a, 7
9344 CD 7C C0    0 3001 call _playAudio
9347 F3          0 3003 di
9348 DD 7E FF    0 3005 ld a, (ix-1)
934B 6F          0 3006 ld l, a
934C 26 00       0 3007 ld h, 0
934E E5          0 3008 push hl
934F 21 10 00    0 3009 ld hl, 16
9352 E5          0 3010 push hl
9353 21 01 00    0 3011 ld hl, 1
9356 E5          0 3012 push hl
9357 21 D4 F4    0 3013 ld hl, _tlcc.__DATA__
935A CD 16 8B    0 3014 call _printColorChar
935D DD 7E FF    0 3015 ld a, (ix-1)
9360 6F          0 3016 ld l, a
9361 26 00       0 3017 ld h, 0
9363 E5          0 3018 push hl
9364 21 10 00    0 3019 ld hl, 16
9367 E5          0 3020 push hl
9368 21 02 00    0 3021 ld hl, 2
936B E5          0 3022 push hl
936C 21 98 F4    0 3023 ld hl, _mlor.__DATA__
936F CD 16 8B    0 3024 call _printColorChar
9372 DD 7E FF    0 3025 ld a, (ix-1)
9375 6F          0 3026 ld l, a
9376 26 00       0 3027 ld h, 0
9378 E5          0 3028 push hl
9379 21 10 00    0 3029 ld hl, 16
937C E5          0 3030 push hl
937D 21 03 00    0 3031 ld hl, 3
9380 E5          0 3032 push hl
9381 21 89 F4    0 3033 ld hl, _blc.__DATA__
9384 CD 16 8B    0 3034 call _printColorChar
9387 DD 7E FF    0 3035 ld a, (ix-1)
938A 6F          0 3036 ld l, a
938B 26 00       0 3037 ld h, 0
938D E5          0 3038 push hl
938E 21 11 00    0 3039 ld hl, 17
9391 E5          0 3040 push hl
9392 21 01 00    0 3041 ld hl, 1
9395 E5          0 3042 push hl
9396 21 B6 F4    0 3043 ld hl, _mlo.__DATA__
9399 CD 16 8B    0 3044 call _printColorChar
939C DD 7E FF    0 3045 ld a, (ix-1)
939F 6F          0 3046 ld l, a
93A0 26 00       0 3047 ld h, 0
93A2 E5          0 3048 push hl
93A3 21 11 00    0 3049 ld hl, 17
93A6 E5          0 3050 push hl
93A7 21 02 00    0 3051 ld hl, 2
93AA E5          0 3052 push hl
93AB 21 1F F5    0 3053 ld hl, _mlob.__DATA__
93AE CD 16 8B    0 3054 call _printColorChar
93B1 DD 7E FF    0 3055 ld a, (ix-1)
93B4 6F          0 3056 ld l, a
93B5 26 00       0 3057 ld h, 0
93B7 E5          0 3058 push hl
93B8 21 11 00    0 3059 ld hl, 17
93BB E5          0 3060 push hl
93BC 21 03 00    0 3061 ld hl, 3
93BF E5          0 3062 push hl
93C0 21 2E F5    0 3063 ld hl, _dgl.__DATA__
93C3 CD 16 8B    0 3064 call _printColorChar
93C6 DD 7E FF    0 3065 ld a, (ix-1)
93C9 6F          0 3066 ld l, a
93CA 26 00       0 3067 ld h, 0
93CC E5          0 3068 push hl
93CD 21 12 00    0 3069 ld hl, 18
93D0 E5          0 3070 push hl
93D1 21 01 00    0 3071 ld hl, 1
93D4 E5          0 3072 push hl
93D5 21 01 F5    0 3073 ld hl, _rct.__DATA__
93D8 CD 16 8B    0 3074 call _printColorChar
93DB DD 7E FF    0 3075 ld a, (ix-1)
93DE 6F          0 3076 ld l, a
93DF 26 00       0 3077 ld h, 0
93E1 E5          0 3078 push hl
93E2 21 12 00    0 3079 ld hl, 18
93E5 E5          0 3080 push hl
93E6 21 02 00    0 3081 ld hl, 2
93E9 E5          0 3082 push hl
93EA 21 10 F5    0 3083 ld hl, _rcbs.__DATA__
93ED CD 16 8B    0 3084 call _printColorChar
93F0 DD 7E FF    0 3085 ld a, (ix-1)
93F3 6F          0 3086 ld l, a
93F4 26 00       0 3087 ld h, 0
93F6 E5          0 3088 push hl
93F7 21 12 00    0 3089 ld hl, 18
93FA E5          0 3090 push hl
93FB 21 03 00    0 3091 ld hl, 3
93FE E5          0 3092 push hl
93FF 21 3D F5    0 3093 ld hl, _dglc.__DATA__
9402 CD 16 8B    0 3094 call _printColorChar
9405 DD 7E FF    0 3095 ld a, (ix-1)
9408 6F          0 3096 ld l, a
9409 26 00       0 3097 ld h, 0
940B E5          0 3098 push hl
940C 21 13 00    0 3099 ld hl, 19
940F E5          0 3100 push hl
9410 21 03 00    0 3101 ld hl, 3
9413 E5          0 3102 push hl
9414 21 C5 F4    0 3103 ld hl, _dot.__DATA__
9417 CD 16 8B    0 3104 call _printColorChar
941A CD A1 8F    0 3105 call _dumpScreenTop
941D 3E 07       0 3106 ld a, 7
941F CD 7C C0    0 3107 call _playAudio
9422 F3          0 3109 di
9423 DD 7E FF    0 3111 ld a, (ix-1)
9426 6F          0 3112 ld l, a
9427 26 00       0 3113 ld h, 0
9429 E5          0 3114 push hl
942A 21 14 00    0 3115 ld hl, 20
942D E5          0 3116 push hl
942E 21 01 00    0 3117 ld hl, 1
9431 E5          0 3118 push hl
9432 21 D4 F4    0 3119 ld hl, _tlcc.__DATA__
9435 CD 16 8B    0 3120 call _printColorChar
9438 DD 7E FF    0 3121 ld a, (ix-1)
943B 6F          0 3122 ld l, a
943C 26 00       0 3123 ld h, 0
943E E5          0 3124 push hl
943F 21 14 00    0 3125 ld hl, 20
9442 E5          0 3126 push hl
9443 21 02 00    0 3127 ld hl, 2
9446 E5          0 3128 push hl
9447 21 4C F5    0 3129 ld hl, _mlc.__DATA__
944A CD 16 8B    0 3130 call _printColorChar
944D DD 7E FF    0 3131 ld a, (ix-1)
9450 6F          0 3132 ld l, a
9451 26 00       0 3133 ld h, 0
9453 E5          0 3134 push hl
9454 21 14 00    0 3135 ld hl, 20
9457 E5          0 3136 push hl
9458 21 03 00    0 3137 ld hl, 3
945B E5          0 3138 push hl
945C 21 E3 F4    0 3139 ld hl, _blcc.__DATA__
945F CD 16 8B    0 3140 call _printColorChar
9462 DD 7E FF    0 3141 ld a, (ix-1)
9465 6F          0 3142 ld l, a
9466 26 00       0 3143 ld h, 0
9468 E5          0 3144 push hl
9469 21 15 00    0 3145 ld hl, 21
946C E5          0 3146 push hl
946D 21 01 00    0 3147 ld hl, 1
9470 E5          0 3148 push hl
9471 21 B6 F4    0 3149 ld hl, _mlo.__DATA__
9474 CD 16 8B    0 3150 call _printColorChar
9477 DD 7E FF    0 3151 ld a, (ix-1)
947A 6F          0 3152 ld l, a
947B 26 00       0 3153 ld h, 0
947D E5          0 3154 push hl
947E 21 15 00    0 3155 ld hl, 21
9481 E5          0 3156 push hl
9482 21 03 00    0 3157 ld hl, 3
9485 E5          0 3158 push hl
9486 21 B6 F4    0 3159 ld hl, _mlo.__DATA__
9489 CD 16 8B    0 3160 call _printColorChar
948C DD 7E FF    0 3161 ld a, (ix-1)
948F 6F          0 3162 ld l, a
9490 26 00       0 3163 ld h, 0
9492 E5          0 3164 push hl
9493 21 16 00    0 3165 ld hl, 22
9496 E5          0 3166 push hl
9497 21 01 00    0 3167 ld hl, 1
949A E5          0 3168 push hl
949B 21 01 F5    0 3169 ld hl, _rct.__DATA__
949E CD 16 8B    0 3170 call _printColorChar
94A1 DD 7E FF    0 3171 ld a, (ix-1)
94A4 6F          0 3172 ld l, a
94A5 26 00       0 3173 ld h, 0
94A7 E5          0 3174 push hl
94A8 21 16 00    0 3175 ld hl, 22
94AB E5          0 3176 push hl
94AC 21 02 00    0 3177 ld hl, 2
94AF E5          0 3178 push hl
94B0 21 4C F5    0 3179 ld hl, _mlc.__DATA__
94B3 CD 16 8B    0 3180 call _printColorChar
94B6 DD 7E FF    0 3181 ld a, (ix-1)
94B9 6F          0 3182 ld l, a
94BA 26 00       0 3183 ld h, 0
94BC E5          0 3184 push hl
94BD 21 16 00    0 3185 ld hl, 22
94C0 E5          0 3186 push hl
94C1 21 03 00    0 3187 ld hl, 3
94C4 E5          0 3188 push hl
94C5 21 5B F5    0 3189 ld hl, _rcb.__DATA__
94C8 CD 16 8B    0 3190 call _printColorChar
94CB DD 7E FF    0 3191 ld a, (ix-1)
94CE 6F          0 3192 ld l, a
94CF 26 00       0 3193 ld h, 0
94D1 E5          0 3194 push hl
94D2 21 17 00    0 3195 ld hl, 23
94D5 E5          0 3196 push hl
94D6 21 03 00    0 3197 ld hl, 3
94D9 E5          0 3198 push hl
94DA 21 C5 F4    0 3199 ld hl, _dot.__DATA__
94DD CD 16 8B    0 3200 call _printColorChar
94E0 CD A1 8F    0 3201 call _dumpScreenTop
94E3 3E 07       0 3202 ld a, 7
94E5 CD 7C C0    0 3203 call _playAudio
94E8 F3          0 3205 di
94E9 3E 01       0 3207 ld a, 1
94EB 32 3B D6    0 3208 ld (_tmpX), a
94EE C3 12 95    0 3209 jp __LABEL100
94F1             0 3210 __LABEL103:
94F1 3A 3B D6    0 3211 ld a, (_tmpX)
94F4 F5          0 3212 push af
94F5 3E 09       0 3213 ld a, 9
94F7 F5          0 3214 push af
94F8 3E 05       0 3215 ld a, 5
94FA F5          0 3216 push af
94FB 21 63 CB    0 3217 ld hl, __LABEL105
94FE CD 89 D3    0 3218 call __LOADSTR
9501 E5          0 3219 push hl
9502 CD 10 89    0 3220 call _printZXString
9505 CD A1 8F    0 3221 call _dumpScreenTop
9508 FB          0 3223 ei
9509 76          0 3224 halt
950A 76          0 3225 halt
950B 76          0 3226 halt
950C 76          0 3227 halt
950D F3          0 3228 di
950E             0 3230 __LABEL104:
950E 21 3B D6    0 3231 ld hl, _tmpX
9511 34          0 3232 inc (hl)
9512             0 3233 __LABEL100:
9512 3E 07       0 3234 ld a, 7
9514 2A 3A D6    0 3235 ld hl, (_tmpX - 1)
9517 BC          0 3236 cp h
9518 9F          0 3237 sbc a, a
9519 CD 65 D5    0 3238 call __NORMALIZE_BOOLEAN
951C B7          0 3239 or a
951D CA F1 94    0 3240 jp z, __LABEL103
9520             0 3241 __LABEL102:
9520             0 3242 _title__leave:
9520 DD F9       0 3243 ld sp, ix
9522 DD E1       0 3244 pop ix
9524 C9          0 3245 ret
9525             0 3246 _interface:
9525 DD E5       0 3247 push ix
9527 DD 21 00 00 0 3248 ld ix, 0
952B DD 39       0 3249 add ix, sp
952D 21 00 00    0 3250 ld hl, 0
9530 E5          0 3251 push hl
9531 33          0 3252 inc sp
9532 AF          0 3253 xor a
9533 F5          0 3254 push af
9534 3E 01       0 3255 ld a, 1
9536 F5          0 3256 push af
9537 AF          0 3257 xor a
9538 F5          0 3258 push af
9539 3E 04       0 3259 ld a, 4
953B CD C8 89    0 3260 call _createAttrib
953E F5          0 3261 push af
953F 3E 09       0 3262 ld a, 9
9541 F5          0 3263 push af
9542 3E 0E       0 3264 ld a, 14
9544 F5          0 3265 push af
9545 3E 13       0 3266 ld a, 19
9547 F5          0 3267 push af
9548 21 6A F5    0 3268 ld hl, _energy.__DATA__
954B E5          0 3269 push hl
954C CD 5C 88    0 3270 call _printRepeatColorChar
954F AF          0 3271 xor a
9550 F5          0 3272 push af
9551 3E 01       0 3273 ld a, 1
9553 F5          0 3274 push af
9554 AF          0 3275 xor a
9555 F5          0 3276 push af
9556 3E 05       0 3277 ld a, 5
9558 CD C8 89    0 3278 call _createAttrib
955B DD 77 FF    0 3279 ld (ix-1), a
955E 6F          0 3280 ld l, a
955F 26 00       0 3281 ld h, 0
9561 E5          0 3282 push hl
9562 21 00 00    0 3283 ld hl, 0
9565 E5          0 3284 push hl
9566 21 15 00    0 3285 ld hl, 21
9569 E5          0 3286 push hl
956A 21 A4 F7    0 3287 ld hl, _head1r.__DATA__
956D CD 16 8B    0 3288 call _printColorChar
9570 DD 7E FF    0 3289 ld a, (ix-1)
9573 6F          0 3290 ld l, a
9574 26 00       0 3291 ld h, 0
9576 E5          0 3292 push hl
9577 21 00 00    0 3293 ld hl, 0
957A E5          0 3294 push hl
957B 21 16 00    0 3295 ld hl, 22
957E E5          0 3296 push hl
957F 21 C2 F7    0 3297 ld hl, _body1r.__DATA__
9582 CD 16 8B    0 3298 call _printColorChar
9585 DD 7E FF    0 3299 ld a, (ix-1)
9588 6F          0 3300 ld l, a
9589 26 00       0 3301 ld h, 0
958B E5          0 3302 push hl
958C 21 02 00    0 3303 ld hl, 2
958F E5          0 3304 push hl
9590 21 15 00    0 3305 ld hl, 21
9593 E5          0 3306 push hl
9594 21 A4 F7    0 3307 ld hl, _head1r.__DATA__
9597 CD 16 8B    0 3308 call _printColorChar
959A DD 7E FF    0 3309 ld a, (ix-1)
959D 6F          0 3310 ld l, a
959E 26 00       0 3311 ld h, 0
95A0 E5          0 3312 push hl
95A1 21 02 00    0 3313 ld hl, 2
95A4 E5          0 3314 push hl
95A5 21 16 00    0 3315 ld hl, 22
95A8 E5          0 3316 push hl
95A9 21 C2 F7    0 3317 ld hl, _body1r.__DATA__
95AC CD 16 8B    0 3318 call _printColorChar
95AF DD 7E FF    0 3319 ld a, (ix-1)
95B2 6F          0 3320 ld l, a
95B3 26 00       0 3321 ld h, 0
95B5 E5          0 3322 push hl
95B6 21 04 00    0 3323 ld hl, 4
95B9 E5          0 3324 push hl
95BA 21 15 00    0 3325 ld hl, 21
95BD E5          0 3326 push hl
95BE 21 A4 F7    0 3327 ld hl, _head1r.__DATA__
95C1 CD 16 8B    0 3328 call _printColorChar
95C4 DD 7E FF    0 3329 ld a, (ix-1)
95C7 6F          0 3330 ld l, a
95C8 26 00       0 3331 ld h, 0
95CA E5          0 3332 push hl
95CB 21 04 00    0 3333 ld hl, 4
95CE E5          0 3334 push hl
95CF 21 16 00    0 3335 ld hl, 22
95D2 E5          0 3336 push hl
95D3 21 C2 F7    0 3337 ld hl, _body1r.__DATA__
95D6 CD 16 8B    0 3338 call _printColorChar
95D9 DD 7E FF    0 3339 ld a, (ix-1)
95DC 6F          0 3340 ld l, a
95DD 26 00       0 3341 ld h, 0
95DF E5          0 3342 push hl
95E0 21 06 00    0 3343 ld hl, 6
95E3 E5          0 3344 push hl
95E4 21 15 00    0 3345 ld hl, 21
95E7 E5          0 3346 push hl
95E8 21 A4 F7    0 3347 ld hl, _head1r.__DATA__
95EB CD 16 8B    0 3348 call _printColorChar
95EE DD 7E FF    0 3349 ld a, (ix-1)
95F1 6F          0 3350 ld l, a
95F2 26 00       0 3351 ld h, 0
95F4 E5          0 3352 push hl
95F5 21 06 00    0 3353 ld hl, 6
95F8 E5          0 3354 push hl
95F9 21 16 00    0 3355 ld hl, 22
95FC E5          0 3356 push hl
95FD 21 C2 F7    0 3357 ld hl, _body1r.__DATA__
9600 CD 16 8B    0 3358 call _printColorChar
9603 AF          0 3359 xor a
9604 F5          0 3360 push af
9605 3E 01       0 3361 ld a, 1
9607 F5          0 3362 push af
9608 AF          0 3363 xor a
9609 F5          0 3364 push af
960A 3E 02       0 3365 ld a, 2
960C CD C8 89    0 3366 call _createAttrib
960F DD 77 FF    0 3367 ld (ix-1), a
9612 6F          0 3368 ld l, a
9613 26 00       0 3369 ld h, 0
9615 E5          0 3370 push hl
9616 21 19 00    0 3371 ld hl, 25
9619 E5          0 3372 push hl
961A 21 15 00    0 3373 ld hl, 21
961D E5          0 3374 push hl
961E 21 C4 F5    0 3375 ld hl, _dynamite1.__DATA__
9621 CD 16 8B    0 3376 call _printColorChar
9624 DD 7E FF    0 3377 ld a, (ix-1)
9627 6F          0 3378 ld l, a
9628 26 00       0 3379 ld h, 0
962A E5          0 3380 push hl
962B 21 1B 00    0 3381 ld hl, 27
962E E5          0 3382 push hl
962F 21 15 00    0 3383 ld hl, 21
9632 E5          0 3384 push hl
9633 21 D3 F5    0 3385 ld hl, _dynamite2.__DATA__
9636 CD 16 8B    0 3386 call _printColorChar
9639 DD 7E FF    0 3387 ld a, (ix-1)
963C 6F          0 3388 ld l, a
963D 26 00       0 3389 ld h, 0
963F E5          0 3390 push hl
9640 21 1D 00    0 3391 ld hl, 29
9643 E5          0 3392 push hl
9644 21 15 00    0 3393 ld hl, 21
9647 E5          0 3394 push hl
9648 21 C4 F5    0 3395 ld hl, _dynamite1.__DATA__
964B CD 16 8B    0 3396 call _printColorChar
964E DD 7E FF    0 3397 ld a, (ix-1)
9651 6F          0 3398 ld l, a
9652 26 00       0 3399 ld h, 0
9654 E5          0 3400 push hl
9655 21 1F 00    0 3401 ld hl, 31
9658 E5          0 3402 push hl
9659 21 15 00    0 3403 ld hl, 21
965C E5          0 3404 push hl
965D 21 D3 F5    0 3405 ld hl, _dynamite2.__DATA__
9660 CD 16 8B    0 3406 call _printColorChar
9663 AF          0 3407 xor a
9664 F5          0 3408 push af
9665 AF          0 3409 xor a
9666 F5          0 3410 push af
9667 AF          0 3411 xor a
9668 F5          0 3412 push af
9669 3E 07       0 3413 ld a, 7
966B CD C8 89    0 3414 call _createAttrib
966E DD 77 FF    0 3415 ld (ix-1), a
9671 F5          0 3416 push af
9672 3E 08       0 3417 ld a, 8
9674 F5          0 3418 push af
9675 3E 13       0 3419 ld a, 19
9677 F5          0 3420 push af
9678 21 72 CB    0 3421 ld hl, __LABEL106
967B CD 89 D3    0 3422 call __LOADSTR
967E E5          0 3423 push hl
967F CD 10 89    0 3424 call _printZXString
9682 DD 7E FF    0 3425 ld a, (ix-1)
9685 F5          0 3426 push af
9686 3E 02       0 3427 ld a, 2
9688 F5          0 3428 push af
9689 3E 13       0 3429 ld a, 19
968B F5          0 3430 push af
968C 21 79 CB    0 3431 ld hl, __LABEL107
968F CD 89 D3    0 3432 call __LOADSTR
9692 E5          0 3433 push hl
9693 CD 10 89    0 3434 call _printZXString
9696 DD 7E FF    0 3435 ld a, (ix-1)
9699 F5          0 3436 push af
969A 3E 1A       0 3437 ld a, 26
969C F5          0 3438 push af
969D 3E 13       0 3439 ld a, 19
969F F5          0 3440 push af
96A0 21 7F CB    0 3441 ld hl, __LABEL108
96A3 CD 89 D3    0 3442 call __LOADSTR
96A6 E5          0 3443 push hl
96A7 CD 10 89    0 3444 call _printZXString
96AA DD 7E FF    0 3445 ld a, (ix-1)
96AD F5          0 3446 push af
96AE 3E 07       0 3447 ld a, 7
96B0 F5          0 3448 push af
96B1 3E 17       0 3449 ld a, 23
96B3 F5          0 3450 push af
96B4 21 85 CB    0 3451 ld hl, __LABEL109
96B7 CD 89 D3    0 3452 call __LOADSTR
96BA E5          0 3453 push hl
96BB CD 10 89    0 3454 call _printZXString
96BE DD 7E FF    0 3455 ld a, (ix-1)
96C1 F5          0 3456 push af
96C2 3E 0A       0 3457 ld a, 10
96C4 F5          0 3458 push af
96C5 3E 15       0 3459 ld a, 21
96C7 F5          0 3460 push af
96C8 21 99 CB    0 3461 ld hl, __LABEL110
96CB CD 89 D3    0 3462 call __LOADSTR
96CE E5          0 3463 push hl
96CF CD 10 89    0 3464 call _printZXString
96D2             0 3465 _interface__leave:
96D2 DD F9       0 3466 ld sp, ix
96D4 DD E1       0 3467 pop ix
96D6 C9          0 3468 ret
96D7             0 3469 _intro:
96D7 DD E5       0 3470 push ix
96D9 DD 21 00 00 0 3471 ld ix, 0
96DD DD 39       0 3472 add ix, sp
96DF 21 00 00    0 3473 ld hl, 0
96E2 E5          0 3474 push hl
96E3 DD E5       0 3475 push ix
96E5 E1          0 3476 pop hl
96E6 01 FF FF    0 3477 ld bc, -1
96E9 09          0 3478 add hl, bc
96EA EB          0 3479 ex de, hl
96EB 21 F8 FA    0 3480 ld hl, __LABEL674
96EE 01 01 00    0 3481 ld bc, 1
96F1 ED B0       0 3482 ldir
96F3 AF          0 3483 xor a
96F4 CD 05 8A    0 3484 call _clearScreen
96F7 CD A1 8D    0 3485 call _dumpScreen
96FA CD A3 91    0 3486 call _title
96FD 3E 01       0 3487 ld a, 1
96FF F5          0 3488 push af
9700 3E 01       0 3489 ld a, 1
9702 F5          0 3490 push af
9703 3E 05       0 3491 ld a, 5
9705 F5          0 3492 push af
9706 AF          0 3493 xor a
9707 CD C8 89    0 3494 call _createAttrib
970A F5          0 3495 push af
970B 3E 09       0 3496 ld a, 9
970D F5          0 3497 push af
970E 3E 0B       0 3498 ld a, 11
9710 F5          0 3499 push af
9711 21 A7 CB    0 3500 ld hl, __LABEL111
9714 CD 89 D3    0 3501 call __LOADSTR
9717 E5          0 3502 push hl
9718 CD 10 89    0 3503 call _printZXString
971B FB          0 3505 ei
971C 76          0 3506 halt
971D F3          0 3507 di
971E CD A1 8D    0 3509 call _dumpScreen
9721 CD 7D 91    0 3510 call _waitSpace
9724 CD 25 95    0 3511 call _interface
9727 CD 79 90    0 3512 call _dumpScreenBottom
972A             0 3513 _intro__leave:
972A DD F9       0 3514 ld sp, ix
972C DD E1       0 3515 pop ix
972E C9          0 3516 ret
972F             0 3517 _transformSolids:
972F DD E5       0 3518 push ix
9731 DD 21 00 00 0 3519 ld ix, 0
9735 DD 39       0 3520 add ix, sp
9737 DD 7E 05    0 3521 ld a, (ix+5)
973A 3D          0 3522 dec a
973B D6 01       0 3523 sub 1
973D 9F          0 3524 sbc a, a
973E CD 65 D5    0 3525 call __NORMALIZE_BOOLEAN
9741 B7          0 3526 or a
9742 CA 4E 97    0 3527 jp z, __LABEL112
9745 21 68 FA    0 3528 ld hl, _pattern1.__DATA__
9748 22 53 D6    0 3529 ld (_tmpPattern), hl
974B C3 6C 97    0 3530 jp __LABEL113
974E             0 3531 __LABEL112:
974E DD 7E 05    0 3532 ld a, (ix+5)
9751 D6 02       0 3533 sub 2
9753 D6 01       0 3534 sub 1
9755 9F          0 3535 sbc a, a
9756 CD 65 D5    0 3536 call __NORMALIZE_BOOLEAN
9759 B7          0 3537 or a
975A CA 66 97    0 3538 jp z, __LABEL114
975D 21 77 FA    0 3539 ld hl, _pattern2.__DATA__
9760 22 53 D6    0 3540 ld (_tmpPattern), hl
9763 C3 6C 97    0 3541 jp __LABEL115
9766             0 3542 __LABEL114:
9766 21 86 FA    0 3543 ld hl, _pattern3.__DATA__
9769 22 53 D6    0 3544 ld (_tmpPattern), hl
976C             0 3545 __LABEL115:
976C             0 3546 __LABEL113:
976C DD E5       0 3548 push ix
976E 21 78 F6    0 3549 ld hl, _wallt.__DATA__
9771 21 9B 97    0 3550 ld hl, solidTable
9774             0 3551 solidOuterLoop:
9774 E5          0 3552 push hl
9775 E5          0 3553 push hl
9776 DD E1       0 3554 pop ix
9778 DD 6E 00    0 3555 ld l, (ix)
977B DD 66 01    0 3556 ld h, (ix+1)
977E 7C          0 3557 ld a, h
977F B5          0 3558 or l
9780 CA BB 97    0 3559 jp z, solidTransformEnd
9783 06 00       0 3560 ld b, 0
9785 ED 5B 53 D6 0 3561 ld de, (_tmpPattern)
9789             0 3562 solidInnerLoop:
9789 1A          0 3563 ld a, (de)
978A AE          0 3564 xor (hl)
978B 77          0 3565 ld (hl), a
978C 23          0 3566 inc hl
978D 13          0 3567 inc de
978E 04          0 3568 inc b
978F 78          0 3569 ld a, b
9790 FE 08       0 3570 cp 8
9792 C2 89 97    0 3571 jp nz, solidInnerLoop
9795 E1          0 3572 pop hl
9796 23          0 3573 inc hl
9797 23          0 3574 inc hl
9798 C3 74 97    0 3575 jp solidOuterLoop
979B             0 3576 solidTable:
979B 77 F7       0 3577 defw _solid.__DATA__
979D 78 F6       0 3578 defw _wallt.__DATA__
979F 69 F6       0 3579 defw _wallb.__DATA__
97A1 4B F6       0 3580 defw _walll.__DATA__
97A3 5A F6       0 3581 defw _wallr.__DATA__
97A5 D2 F6       0 3582 defw _singleWallH.__DATA__
97A7 C3 F6       0 3583 defw _singleWallV.__DATA__
97A9 A5 F6       0 3584 defw _wallbr.__DATA__
97AB 87 F6       0 3585 defw _walltr.__DATA__
97AD B4 F6       0 3586 defw _wallbl.__DATA__
97AF 96 F6       0 3587 defw _walltl.__DATA__
97B1 2C F7       0 3588 defw _rockR.__DATA__
97B3 1D F7       0 3589 defw _rockL.__DATA__
97B5 0E F7       0 3590 defw _rockB.__DATA__
97B7 FF F6       0 3591 defw _rockT.__DATA__
97B9 00 00       0 3592 defw 00
97BB             0 3593 solidTransformEnd:
97BB E1          0 3594 pop hl
97BC DD E1       0 3595 pop ix
97BE             0 3597 _transformSolids__leave:
97BE DD F9       0 3598 ld sp, ix
97C0 DD E1       0 3599 pop ix
97C2 D9          0 3600 exx
97C3 E1          0 3601 pop hl
97C4 E3          0 3602 ex (sp), hl
97C5 D9          0 3603 exx
97C6 C9          0 3604 ret
97C7             0 3605 _decodeCurrentScreen:
97C7 DD E5       0 3606 push ix
97C9 DD 21 00 00 0 3607 ld ix, 0
97CD DD 39       0 3608 add ix, sp
97CF 21 EC FF    0 3609 ld hl, -20
97D2 39          0 3610 add hl, sp
97D3 F9          0 3611 ld sp, hl
97D4 36 00       0 3612 ld (hl), 0
97D6 01 13 00    0 3613 ld bc, 19
97D9 54          0 3614 ld d, h
97DA 5D          0 3615 ld e, l
97DB 13          0 3616 inc de
97DC ED B0       0 3617 ldir
97DE 2A 1A D6    0 3618 ld hl, (_currentMapIndex)
97E1 2B          0 3619 dec hl
97E2 E5          0 3620 push hl
97E3 21 F1 FA    0 3621 ld hl, _maps
97E6 CD B4 CC    0 3622 call __ARRAY
97E9 7E          0 3623 ld a, (hl)
97EA 6F          0 3624 ld l, a
97EB 26 00       0 3625 ld h, 0
97ED DD 75 F2    0 3626 ld (ix-14), l
97F0 DD 74 F3    0 3627 ld (ix-13), h
97F3 21 72 00    0 3628 ld hl, 114
97F6 E5          0 3629 push hl
97F7 DD 6E F2    0 3630 ld l, (ix-14)
97FA DD 66 F3    0 3631 ld h, (ix-13)
97FD 2B          0 3632 dec hl
97FE E5          0 3633 push hl
97FF 21 E8 FA    0 3634 ld hl, _screens
9802 CD B4 CC    0 3635 call __ARRAY
9805 7E          0 3636 ld a, (hl)
9806 DD 77 FE    0 3637 ld (ix-2), a
9809 AF          0 3638 xor a
980A F5          0 3639 push af
980B AF          0 3640 xor a
980C F5          0 3641 push af
980D DD 7E FE    0 3642 ld a, (ix-2)
9810 F5          0 3643 push af
9811 26 07       0 3644 ld h, 7
9813 F1          0 3645 pop af
9814 A4          0 3646 and h
9815 F5          0 3647 push af
9816 DD 7E FE    0 3648 ld a, (ix-2)
9819 CB 3F       0 3649 srl a
981B CB 3F       0 3650 srl a
981D CB 3F       0 3651 srl a
981F F5          0 3652 push af
9820 26 07       0 3653 ld h, 7
9822 F1          0 3654 pop af
9823 A4          0 3655 and h
9824 CD C8 89    0 3656 call _createAttrib
9827 32 3A D6    0 3657 ld (_emptyAttrib), a
982A DD 7E FE    0 3658 ld a, (ix-2)
982D 06 06       0 3659 ld b, 6
982F             0 3660 __LABEL675:
982F CB 3F       0 3661 srl a
9831 10 FC       0 3662 djnz __LABEL675
9833 F5          0 3663 push af
9834 26 03       0 3664 ld h, 3
9836 F1          0 3665 pop af
9837 A4          0 3666 and h
9838 32 1D D6    0 3667 ld (_currentMapExit), a
983B DD 7E FE    0 3668 ld a, (ix-2)
983E F5          0 3669 push af
983F 26 07       0 3670 ld h, 7
9841 F1          0 3671 pop af
9842 A4          0 3672 and h
9843 CD 9B 22    0 3673 call BORDER
9846 3A 3A D6    0 3674 ld a, (_emptyAttrib)
9849 CD 39 8A    0 3675 call _clearScreenCenter
984C 21 73 00    0 3676 ld hl, 115
984F E5          0 3677 push hl
9850 DD 6E F2    0 3678 ld l, (ix-14)
9853 DD 66 F3    0 3679 ld h, (ix-13)
9856 2B          0 3680 dec hl
9857 E5          0 3681 push hl
9858 21 E8 FA    0 3682 ld hl, _screens
985B CD B4 CC    0 3683 call __ARRAY
985E 7E          0 3684 ld a, (hl)
985F DD 77 FE    0 3685 ld (ix-2), a
9862 AF          0 3686 xor a
9863 F5          0 3687 push af
9864 AF          0 3688 xor a
9865 F5          0 3689 push af
9866 DD 7E FE    0 3690 ld a, (ix-2)
9869 F5          0 3691 push af
986A 26 07       0 3692 ld h, 7
986C F1          0 3693 pop af
986D A4          0 3694 and h
986E F5          0 3695 push af
986F DD 7E FE    0 3696 ld a, (ix-2)
9872 CB 3F       0 3697 srl a
9874 CB 3F       0 3698 srl a
9876 CB 3F       0 3699 srl a
9878 F5          0 3700 push af
9879 26 07       0 3701 ld h, 7
987B F1          0 3702 pop af
987C A4          0 3703 and h
987D CD C8 89    0 3704 call _createAttrib
9880 DD 77 FD    0 3705 ld (ix-3), a
9883 AF          0 3706 xor a
9884 F5          0 3707 push af
9885 3E 01       0 3708 ld a, 1
9887 F5          0 3709 push af
9888 AF          0 3710 xor a
9889 F5          0 3711 push af
988A 3E 07       0 3712 ld a, 7
988C CD C8 89    0 3713 call _createAttrib
988F DD 77 FC    0 3714 ld (ix-4), a
9892 AF          0 3715 xor a
9893 F5          0 3716 push af
9894 AF          0 3717 xor a
9895 F5          0 3718 push af
9896 3E 06       0 3719 ld a, 6
9898 F5          0 3720 push af
9899 3E 02       0 3721 ld a, 2
989B CD C8 89    0 3722 call _createAttrib
989E DD 77 FB    0 3723 ld (ix-5), a
98A1 3E 01       0 3724 ld a, 1
98A3 F5          0 3725 push af
98A4 AF          0 3726 xor a
98A5 F5          0 3727 push af
98A6 3E 05       0 3728 ld a, 5
98A8 F5          0 3729 push af
98A9 3E 01       0 3730 ld a, 1
98AB CD C8 89    0 3731 call _createAttrib
98AE DD 77 FA    0 3732 ld (ix-6), a
98B1 DD 7E FE    0 3733 ld a, (ix-2)
98B4 06 06       0 3734 ld b, 6
98B6             0 3735 __LABEL676:
98B6 CB 3F       0 3736 srl a
98B8 10 FC       0 3737 djnz __LABEL676
98BA F5          0 3738 push af
98BB 26 03       0 3739 ld h, 3
98BD F1          0 3740 pop af
98BE A4          0 3741 and h
98BF 32 3B D6    0 3742 ld (_tmpX), a
98C2 B7          0 3743 or a
98C3 CA CD 98    0 3744 jp z, __LABEL117
98C6 3A 3B D6    0 3745 ld a, (_tmpX)
98C9 F5          0 3746 push af
98CA CD 2F 97    0 3747 call _transformSolids
98CD             0 3748 __LABEL117:
98CD DD 36 FF 01 0 3749 ld (ix-1), 1
98D1 C3 C0 99    0 3750 jp __LABEL118
98D4             0 3751 __LABEL121:
98D4 DD 7E FF    0 3752 ld a, (ix-1)
98D7 3D          0 3753 dec a
98D8 26 08       0 3754 ld h, 8
98DA CD 30 D2    0 3755 call __DIVU8_FAST
98DD 6F          0 3756 ld l, a
98DE 26 00       0 3757 ld h, 0
98E0 DD 75 F0    0 3758 ld (ix-16), l
98E3 DD 74 F1    0 3759 ld (ix-15), h
98E6 DD 7E FF    0 3760 ld a, (ix-1)
98E9 6F          0 3761 ld l, a
98EA 26 00       0 3762 ld h, 0
98EC E5          0 3763 push hl
98ED DD 6E F0    0 3764 ld l, (ix-16)
98F0 DD 66 F1    0 3765 ld h, (ix-15)
98F3 29          0 3766 add hl, hl
98F4 29          0 3767 add hl, hl
98F5 29          0 3768 add hl, hl
98F6 EB          0 3769 ex de, hl
98F7 E1          0 3770 pop hl
98F8 B7          0 3771 or a
98F9 ED 52       0 3772 sbc hl, de
98FB 2B          0 3773 dec hl
98FC 29          0 3774 add hl, hl
98FD 29          0 3775 add hl, hl
98FE DD 75 EE    0 3776 ld (ix-18), l
9901 DD 74 EF    0 3777 ld (ix-17), h
9904 DD 7E FF    0 3778 ld a, (ix-1)
9907 6F          0 3779 ld l, a
9908 26 00       0 3780 ld h, 0
990A 2B          0 3781 dec hl
990B E5          0 3782 push hl
990C DD 6E F2    0 3783 ld l, (ix-14)
990F DD 66 F3    0 3784 ld h, (ix-13)
9912 2B          0 3785 dec hl
9913 E5          0 3786 push hl
9914 21 E8 FA    0 3787 ld hl, _screens
9917 CD B4 CC    0 3788 call __ARRAY
991A 7E          0 3789 ld a, (hl)
991B DD 77 FE    0 3790 ld (ix-2), a
991E F5          0 3791 push af
991F 26 03       0 3792 ld h, 3
9921 F1          0 3793 pop af
9922 A4          0 3794 and h
9923 F5          0 3795 push af
9924 DD 6E F0    0 3796 ld l, (ix-16)
9927 DD 66 F1    0 3797 ld h, (ix-15)
992A 23          0 3798 inc hl
992B 2B          0 3799 dec hl
992C E5          0 3800 push hl
992D DD 6E EE    0 3801 ld l, (ix-18)
9930 DD 66 EF    0 3802 ld h, (ix-17)
9933 23          0 3803 inc hl
9934 2B          0 3804 dec hl
9935 E5          0 3805 push hl
9936 21 9F F8    0 3806 ld hl, _solidMap
9939 CD B4 CC    0 3807 call __ARRAY
993C F1          0 3808 pop af
993D 77          0 3809 ld (hl), a
993E DD 7E FE    0 3810 ld a, (ix-2)
9941 CB 3F       0 3811 srl a
9943 CB 3F       0 3812 srl a
9945 F5          0 3813 push af
9946 26 03       0 3814 ld h, 3
9948 F1          0 3815 pop af
9949 A4          0 3816 and h
994A F5          0 3817 push af
994B DD 6E F0    0 3818 ld l, (ix-16)
994E DD 66 F1    0 3819 ld h, (ix-15)
9951 23          0 3820 inc hl
9952 2B          0 3821 dec hl
9953 E5          0 3822 push hl
9954 DD 6E EE    0 3823 ld l, (ix-18)
9957 DD 66 EF    0 3824 ld h, (ix-17)
995A 23          0 3825 inc hl
995B 23          0 3826 inc hl
995C 2B          0 3827 dec hl
995D E5          0 3828 push hl
995E 21 9F F8    0 3829 ld hl, _solidMap
9961 CD B4 CC    0 3830 call __ARRAY
9964 F1          0 3831 pop af
9965 77          0 3832 ld (hl), a
9966 DD 7E FE    0 3833 ld a, (ix-2)
9969 06 04       0 3834 ld b, 4
996B             0 3835 __LABEL677:
996B CB 3F       0 3836 srl a
996D 10 FC       0 3837 djnz __LABEL677
996F F5          0 3838 push af
9970 26 03       0 3839 ld h, 3
9972 F1          0 3840 pop af
9973 A4          0 3841 and h
9974 F5          0 3842 push af
9975 DD 6E F0    0 3843 ld l, (ix-16)
9978 DD 66 F1    0 3844 ld h, (ix-15)
997B 23          0 3845 inc hl
997C 2B          0 3846 dec hl
997D E5          0 3847 push hl
997E DD 6E EE    0 3848 ld l, (ix-18)
9981 DD 66 EF    0 3849 ld h, (ix-17)
9984 23          0 3850 inc hl
9985 23          0 3851 inc hl
9986 23          0 3852 inc hl
9987 2B          0 3853 dec hl
9988 E5          0 3854 push hl
9989 21 9F F8    0 3855 ld hl, _solidMap
998C CD B4 CC    0 3856 call __ARRAY
998F F1          0 3857 pop af
9990 77          0 3858 ld (hl), a
9991 DD 7E FE    0 3859 ld a, (ix-2)
9994 06 06       0 3860 ld b, 6
9996             0 3861 __LABEL678:
9996 CB 3F       0 3862 srl a
9998 10 FC       0 3863 djnz __LABEL678
999A F5          0 3864 push af
999B 26 03       0 3865 ld h, 3
999D F1          0 3866 pop af
999E A4          0 3867 and h
999F F5          0 3868 push af
99A0 DD 6E F0    0 3869 ld l, (ix-16)
99A3 DD 66 F1    0 3870 ld h, (ix-15)
99A6 23          0 3871 inc hl
99A7 2B          0 3872 dec hl
99A8 E5          0 3873 push hl
99A9 DD 6E EE    0 3874 ld l, (ix-18)
99AC DD 66 EF    0 3875 ld h, (ix-17)
99AF 11 04 00    0 3876 ld de, 4
99B2 19          0 3877 add hl, de
99B3 2B          0 3878 dec hl
99B4 E5          0 3879 push hl
99B5 21 9F F8    0 3880 ld hl, _solidMap
99B8 CD B4 CC    0 3881 call __ARRAY
99BB F1          0 3882 pop af
99BC 77          0 3883 ld (hl), a
99BD             0 3884 __LABEL122:
99BD DD 34 FF    0 3885 inc (ix-1)
99C0             0 3886 __LABEL118:
99C0 DD 7E FF    0 3887 ld a, (ix-1)
99C3 F5          0 3888 push af
99C4 3E 60       0 3889 ld a, 96
99C6 E1          0 3890 pop hl
99C7 BC          0 3891 cp h
99C8 9F          0 3892 sbc a, a
99C9 CD 65 D5    0 3893 call __NORMALIZE_BOOLEAN
99CC B7          0 3894 or a
99CD CA D4 98    0 3895 jp z, __LABEL121
99D0             0 3896 __LABEL120:
99D0 DD 36 F0 0C 0 3897 ld (ix-16), 12
99D4 DD 36 F1 00 0 3898 ld (ix-15), 0
99D8 C3 E0 9D    0 3899 jp __LABEL123
99DB             0 3900 __LABEL126:
99DB DD 36 F4 01 0 3901 ld (ix-12), 1
99DF DD 36 EE 01 0 3902 ld (ix-18), 1
99E3 DD 36 EF 00 0 3903 ld (ix-17), 0
99E7 C3 BD 9D    0 3904 jp __LABEL128
99EA             0 3905 __LABEL131:
99EA DD 6E EE    0 3906 ld l, (ix-18)
99ED DD 66 EF    0 3907 ld h, (ix-17)
99F0 E5          0 3908 push hl
99F1 11 01 00    0 3909 ld de, 1
99F4 E1          0 3910 pop hl
99F5 CD 6E D2    0 3911 call __EQ16
99F8 CD 65 D5    0 3912 call __NORMALIZE_BOOLEAN
99FB F5          0 3913 push af
99FC DD 6E F0    0 3914 ld l, (ix-16)
99FF DD 66 F1    0 3915 ld h, (ix-15)
9A02 2B          0 3916 dec hl
9A03 E5          0 3917 push hl
9A04 DD 6E EE    0 3918 ld l, (ix-18)
9A07 DD 66 EF    0 3919 ld h, (ix-17)
9A0A 2B          0 3920 dec hl
9A0B 2B          0 3921 dec hl
9A0C E5          0 3922 push hl
9A0D 21 9F F8    0 3923 ld hl, _solidMap
9A10 CD B4 CC    0 3924 call __ARRAY
9A13 7E          0 3925 ld a, (hl)
9A14 CD 65 D5    0 3926 call __NORMALIZE_BOOLEAN
9A17 D1          0 3927 pop de
9A18 B2          0 3928 or d
9A19 CD 65 D5    0 3929 call __NORMALIZE_BOOLEAN
9A1C DD 77 F7    0 3930 ld (ix-9), a
9A1F DD 6E EE    0 3931 ld l, (ix-18)
9A22 DD 66 EF    0 3932 ld h, (ix-17)
9A25 E5          0 3933 push hl
9A26 11 20 00    0 3934 ld de, 32
9A29 E1          0 3935 pop hl
9A2A CD 6E D2    0 3936 call __EQ16
9A2D CD 65 D5    0 3937 call __NORMALIZE_BOOLEAN
9A30 F5          0 3938 push af
9A31 DD 6E F0    0 3939 ld l, (ix-16)
9A34 DD 66 F1    0 3940 ld h, (ix-15)
9A37 2B          0 3941 dec hl
9A38 E5          0 3942 push hl
9A39 DD 6E EE    0 3943 ld l, (ix-18)
9A3C DD 66 EF    0 3944 ld h, (ix-17)
9A3F 23          0 3945 inc hl
9A40 2B          0 3946 dec hl
9A41 E5          0 3947 push hl
9A42 21 9F F8    0 3948 ld hl, _solidMap
9A45 CD B4 CC    0 3949 call __ARRAY
9A48 7E          0 3950 ld a, (hl)
9A49 CD 65 D5    0 3951 call __NORMALIZE_BOOLEAN
9A4C D1          0 3952 pop de
9A4D B2          0 3953 or d
9A4E CD 65 D5    0 3954 call __NORMALIZE_BOOLEAN
9A51 DD 77 F6    0 3955 ld (ix-10), a
9A54 DD 6E F0    0 3956 ld l, (ix-16)
9A57 DD 66 F1    0 3957 ld h, (ix-15)
9A5A E5          0 3958 push hl
9A5B 11 01 00    0 3959 ld de, 1
9A5E E1          0 3960 pop hl
9A5F CD 6E D2    0 3961 call __EQ16
9A62 CD 65 D5    0 3962 call __NORMALIZE_BOOLEAN
9A65 F5          0 3963 push af
9A66 DD 6E F0    0 3964 ld l, (ix-16)
9A69 DD 66 F1    0 3965 ld h, (ix-15)
9A6C 2B          0 3966 dec hl
9A6D 2B          0 3967 dec hl
9A6E E5          0 3968 push hl
9A6F DD 6E EE    0 3969 ld l, (ix-18)
9A72 DD 66 EF    0 3970 ld h, (ix-17)
9A75 2B          0 3971 dec hl
9A76 E5          0 3972 push hl
9A77 21 9F F8    0 3973 ld hl, _solidMap
9A7A CD B4 CC    0 3974 call __ARRAY
9A7D 7E          0 3975 ld a, (hl)
9A7E CD 65 D5    0 3976 call __NORMALIZE_BOOLEAN
9A81 D1          0 3977 pop de
9A82 B2          0 3978 or d
9A83 CD 65 D5    0 3979 call __NORMALIZE_BOOLEAN
9A86 DD 77 F9    0 3980 ld (ix-7), a
9A89 DD 6E F0    0 3981 ld l, (ix-16)
9A8C DD 66 F1    0 3982 ld h, (ix-15)
9A8F E5          0 3983 push hl
9A90 11 0C 00    0 3984 ld de, 12
9A93 E1          0 3985 pop hl
9A94 CD 6E D2    0 3986 call __EQ16
9A97 CD 65 D5    0 3987 call __NORMALIZE_BOOLEAN
9A9A F5          0 3988 push af
9A9B DD 6E F0    0 3989 ld l, (ix-16)
9A9E DD 66 F1    0 3990 ld h, (ix-15)
9AA1 23          0 3991 inc hl
9AA2 2B          0 3992 dec hl
9AA3 E5          0 3993 push hl
9AA4 DD 6E EE    0 3994 ld l, (ix-18)
9AA7 DD 66 EF    0 3995 ld h, (ix-17)
9AAA 2B          0 3996 dec hl
9AAB E5          0 3997 push hl
9AAC 21 9F F8    0 3998 ld hl, _solidMap
9AAF CD B4 CC    0 3999 call __ARRAY
9AB2 7E          0 4000 ld a, (hl)
9AB3 CD 65 D5    0 4001 call __NORMALIZE_BOOLEAN
9AB6 D1          0 4002 pop de
9AB7 B2          0 4003 or d
9AB8 CD 65 D5    0 4004 call __NORMALIZE_BOOLEAN
9ABB DD 77 F8    0 4005 ld (ix-8), a
9ABE DD 6E F0    0 4006 ld l, (ix-16)
9AC1 DD 66 F1    0 4007 ld h, (ix-15)
9AC4 2B          0 4008 dec hl
9AC5 E5          0 4009 push hl
9AC6 DD 6E EE    0 4010 ld l, (ix-18)
9AC9 DD 66 EF    0 4011 ld h, (ix-17)
9ACC 2B          0 4012 dec hl
9ACD E5          0 4013 push hl
9ACE 21 9F F8    0 4014 ld hl, _solidMap
9AD1 CD B4 CC    0 4015 call __ARRAY
9AD4 7E          0 4016 ld a, (hl)
9AD5 DD 77 F5    0 4017 ld (ix-11), a
9AD8 B7          0 4018 or a
9AD9 CA AC 9D    0 4019 jp z, __LABEL133
9ADC DD 7E F5    0 4020 ld a, (ix-11)
9ADF 3D          0 4021 dec a
9AE0 D6 01       0 4022 sub 1
9AE2 9F          0 4023 sbc a, a
9AE3 CD 65 D5    0 4024 call __NORMALIZE_BOOLEAN
9AE6 B7          0 4025 or a
9AE7 CA F7 9A    0 4026 jp z, __LABEL135
9AEA DD 7E FD    0 4027 ld a, (ix-3)
9AED DD 77 F5    0 4028 ld (ix-11), a
9AF0 DD 36 F4 01 0 4029 ld (ix-12), 1
9AF4 C3 C2 9B    0 4030 jp __LABEL136
9AF7             0 4031 __LABEL135:
9AF7 DD 7E F5    0 4032 ld a, (ix-11)
9AFA D6 02       0 4033 sub 2
9AFC D6 01       0 4034 sub 1
9AFE 9F          0 4035 sbc a, a
9AFF CD 65 D5    0 4036 call __NORMALIZE_BOOLEAN
9B02 B7          0 4037 or a
9B03 CA 57 9B    0 4038 jp z, __LABEL137
9B06 DD 7E F7    0 4039 ld a, (ix-9)
9B09 DD 66 F8    0 4040 ld h, (ix-8)
9B0C B7          0 4041 or a
9B0D 28 01       0 4042 jr z, __LABEL679
9B0F 7C          0 4043 ld a, h
9B10             0 4044 __LABEL679:
9B10 CD 65 D5    0 4045 call __NORMALIZE_BOOLEAN
9B13 DD 66 F6    0 4046 ld h, (ix-10)
9B16 B7          0 4047 or a
9B17 28 01       0 4048 jr z, __LABEL680
9B19 7C          0 4049 ld a, h
9B1A             0 4050 __LABEL680:
9B1A CD 65 D5    0 4051 call __NORMALIZE_BOOLEAN
9B1D DD 66 F4    0 4052 ld h, (ix-12)
9B20 B7          0 4053 or a
9B21 28 01       0 4054 jr z, __LABEL681
9B23 7C          0 4055 ld a, h
9B24             0 4056 __LABEL681:
9B24 CD 65 D5    0 4057 call __NORMALIZE_BOOLEAN
9B27 B7          0 4058 or a
9B28 CA 4E 9B    0 4059 jp z, __LABEL139
9B2B DD 7E FA    0 4060 ld a, (ix-6)
9B2E 6F          0 4061 ld l, a
9B2F 26 00       0 4062 ld h, 0
9B31 E5          0 4063 push hl
9B32 DD 6E EE    0 4064 ld l, (ix-18)
9B35 DD 66 EF    0 4065 ld h, (ix-17)
9B38 2B          0 4066 dec hl
9B39 E5          0 4067 push hl
9B3A DD 6E F0    0 4068 ld l, (ix-16)
9B3D DD 66 F1    0 4069 ld h, (ix-15)
9B40 11 05 00    0 4070 ld de, 5
9B43 19          0 4071 add hl, de
9B44 E5          0 4072 push hl
9B45 21 95 F7    0 4073 ld hl, _water.__DATA__
9B48 CD 16 8B    0 4074 call _printColorChar
9B4B C3 B0 9D    0 4075 jp __LABEL132
9B4E             0 4076 __LABEL139:
9B4E DD 7E FB    0 4077 ld a, (ix-5)
9B51 DD 77 F5    0 4078 ld (ix-11), a
9B54             0 4079 __LABEL140:
9B54 C3 C2 9B    0 4080 jp __LABEL138
9B57             0 4081 __LABEL137:
9B57 DD 7E F9    0 4082 ld a, (ix-7)
9B5A DD 66 F8    0 4083 ld h, (ix-8)
9B5D B7          0 4084 or a
9B5E 28 01       0 4085 jr z, __LABEL682
9B60 7C          0 4086 ld a, h
9B61             0 4087 __LABEL682:
9B61 CD 65 D5    0 4088 call __NORMALIZE_BOOLEAN
9B64 B7          0 4089 or a
9B65 CA 8B 9B    0 4090 jp z, __LABEL141
9B68 DD 7E FC    0 4091 ld a, (ix-4)
9B6B 6F          0 4092 ld l, a
9B6C 26 00       0 4093 ld h, 0
9B6E E5          0 4094 push hl
9B6F DD 6E EE    0 4095 ld l, (ix-18)
9B72 DD 66 EF    0 4096 ld h, (ix-17)
9B75 2B          0 4097 dec hl
9B76 E5          0 4098 push hl
9B77 DD 6E F0    0 4099 ld l, (ix-16)
9B7A DD 66 F1    0 4100 ld h, (ix-15)
9B7D 11 05 00    0 4101 ld de, 5
9B80 19          0 4102 add hl, de
9B81 E5          0 4103 push hl
9B82 21 E1 F6    0 4104 ld hl, _destructibleWallV.__DATA__
9B85 CD 16 8B    0 4105 call _printColorChar
9B88 C3 B0 9D    0 4106 jp __LABEL132
9B8B             0 4107 __LABEL141:
9B8B DD 7E F7    0 4108 ld a, (ix-9)
9B8E DD 66 F6    0 4109 ld h, (ix-10)
9B91 B7          0 4110 or a
9B92 28 01       0 4111 jr z, __LABEL683
9B94 7C          0 4112 ld a, h
9B95             0 4113 __LABEL683:
9B95 CD 65 D5    0 4114 call __NORMALIZE_BOOLEAN
9B98 B7          0 4115 or a
9B99 CA BF 9B    0 4116 jp z, __LABEL144
9B9C DD 7E FC    0 4117 ld a, (ix-4)
9B9F 6F          0 4118 ld l, a
9BA0 26 00       0 4119 ld h, 0
9BA2 E5          0 4120 push hl
9BA3 DD 6E EE    0 4121 ld l, (ix-18)
9BA6 DD 66 EF    0 4122 ld h, (ix-17)
9BA9 2B          0 4123 dec hl
9BAA E5          0 4124 push hl
9BAB DD 6E F0    0 4125 ld l, (ix-16)
9BAE DD 66 F1    0 4126 ld h, (ix-15)
9BB1 11 05 00    0 4127 ld de, 5
9BB4 19          0 4128 add hl, de
9BB5 E5          0 4129 push hl
9BB6 21 F0 F6    0 4130 ld hl, _destructibleWallH.__DATA__
9BB9 CD 16 8B    0 4131 call _printColorChar
9BBC C3 B0 9D    0 4132 jp __LABEL132
9BBF             0 4133 __LABEL144:
9BBF             0 4134 __LABEL142:
9BBF C3 B0 9D    0 4135 jp __LABEL132
9BC2             0 4136 __LABEL138:
9BC2             0 4137 __LABEL136:
9BC2 DD 7E F7    0 4138 ld a, (ix-9)
9BC5 DD 66 F6    0 4139 ld h, (ix-10)
9BC8 B7          0 4140 or a
9BC9 28 01       0 4141 jr z, __LABEL684
9BCB 7C          0 4142 ld a, h
9BCC             0 4143 __LABEL684:
9BCC CD 65 D5    0 4144 call __NORMALIZE_BOOLEAN
9BCF DD 66 F9    0 4145 ld h, (ix-7)
9BD2 B7          0 4146 or a
9BD3 28 01       0 4147 jr z, __LABEL685
9BD5 7C          0 4148 ld a, h
9BD6             0 4149 __LABEL685:
9BD6 CD 65 D5    0 4150 call __NORMALIZE_BOOLEAN
9BD9 DD 66 F8    0 4151 ld h, (ix-8)
9BDC B7          0 4152 or a
9BDD 28 01       0 4153 jr z, __LABEL686
9BDF 7C          0 4154 ld a, h
9BE0             0 4155 __LABEL686:
9BE0 CD 65 D5    0 4156 call __NORMALIZE_BOOLEAN
9BE3 B7          0 4157 or a
9BE4 CA F3 9B    0 4158 jp z, __LABEL145
9BE7 21 77 F7    0 4159 ld hl, _solid.__DATA__
9BEA DD 75 EC    0 4160 ld (ix-20), l
9BED DD 74 ED    0 4161 ld (ix-19), h
9BF0 C3 86 9D    0 4162 jp __LABEL146
9BF3             0 4163 __LABEL145:
9BF3 DD 7E F7    0 4164 ld a, (ix-9)
9BF6 DD 66 F6    0 4165 ld h, (ix-10)
9BF9 B7          0 4166 or a
9BFA 28 01       0 4167 jr z, __LABEL687
9BFC 7C          0 4168 ld a, h
9BFD             0 4169 __LABEL687:
9BFD CD 65 D5    0 4170 call __NORMALIZE_BOOLEAN
9C00 DD 66 F9    0 4171 ld h, (ix-7)
9C03 B7          0 4172 or a
9C04 28 01       0 4173 jr z, __LABEL688
9C06 7C          0 4174 ld a, h
9C07             0 4175 __LABEL688:
9C07 CD 65 D5    0 4176 call __NORMALIZE_BOOLEAN
9C0A B7          0 4177 or a
9C0B CA 1A 9C    0 4178 jp z, __LABEL147
9C0E 21 78 F6    0 4179 ld hl, _wallt.__DATA__
9C11 DD 75 EC    0 4180 ld (ix-20), l
9C14 DD 74 ED    0 4181 ld (ix-19), h
9C17 C3 86 9D    0 4182 jp __LABEL148
9C1A             0 4183 __LABEL147:
9C1A DD 7E F7    0 4184 ld a, (ix-9)
9C1D DD 66 F6    0 4185 ld h, (ix-10)
9C20 B7          0 4186 or a
9C21 28 01       0 4187 jr z, __LABEL689
9C23 7C          0 4188 ld a, h
9C24             0 4189 __LABEL689:
9C24 CD 65 D5    0 4190 call __NORMALIZE_BOOLEAN
9C27 DD 66 F8    0 4191 ld h, (ix-8)
9C2A B7          0 4192 or a
9C2B 28 01       0 4193 jr z, __LABEL690
9C2D 7C          0 4194 ld a, h
9C2E             0 4195 __LABEL690:
9C2E CD 65 D5    0 4196 call __NORMALIZE_BOOLEAN
9C31 B7          0 4197 or a
9C32 CA 41 9C    0 4198 jp z, __LABEL149
9C35 21 69 F6    0 4199 ld hl, _wallb.__DATA__
9C38 DD 75 EC    0 4200 ld (ix-20), l
9C3B DD 74 ED    0 4201 ld (ix-19), h
9C3E C3 86 9D    0 4202 jp __LABEL150
9C41             0 4203 __LABEL149:
9C41 DD 7E F7    0 4204 ld a, (ix-9)
9C44 DD 66 F9    0 4205 ld h, (ix-7)
9C47 B7          0 4206 or a
9C48 28 01       0 4207 jr z, __LABEL691
9C4A 7C          0 4208 ld a, h
9C4B             0 4209 __LABEL691:
9C4B CD 65 D5    0 4210 call __NORMALIZE_BOOLEAN
9C4E DD 66 F8    0 4211 ld h, (ix-8)
9C51 B7          0 4212 or a
9C52 28 01       0 4213 jr z, __LABEL692
9C54 7C          0 4214 ld a, h
9C55             0 4215 __LABEL692:
9C55 CD 65 D5    0 4216 call __NORMALIZE_BOOLEAN
9C58 B7          0 4217 or a
9C59 CA 68 9C    0 4218 jp z, __LABEL151
9C5C 21 4B F6    0 4219 ld hl, _walll.__DATA__
9C5F DD 75 EC    0 4220 ld (ix-20), l
9C62 DD 74 ED    0 4221 ld (ix-19), h
9C65 C3 86 9D    0 4222 jp __LABEL152
9C68             0 4223 __LABEL151:
9C68 DD 7E F6    0 4224 ld a, (ix-10)
9C6B DD 66 F9    0 4225 ld h, (ix-7)
9C6E B7          0 4226 or a
9C6F 28 01       0 4227 jr z, __LABEL693
9C71 7C          0 4228 ld a, h
9C72             0 4229 __LABEL693:
9C72 CD 65 D5    0 4230 call __NORMALIZE_BOOLEAN
9C75 DD 66 F8    0 4231 ld h, (ix-8)
9C78 B7          0 4232 or a
9C79 28 01       0 4233 jr z, __LABEL694
9C7B 7C          0 4234 ld a, h
9C7C             0 4235 __LABEL694:
9C7C CD 65 D5    0 4236 call __NORMALIZE_BOOLEAN
9C7F B7          0 4237 or a
9C80 CA 8F 9C    0 4238 jp z, __LABEL153
9C83 21 5A F6    0 4239 ld hl, _wallr.__DATA__
9C86 DD 75 EC    0 4240 ld (ix-20), l
9C89 DD 74 ED    0 4241 ld (ix-19), h
9C8C C3 86 9D    0 4242 jp __LABEL154
9C8F             0 4243 __LABEL153:
9C8F DD 7E F7    0 4244 ld a, (ix-9)
9C92 DD 66 F6    0 4245 ld h, (ix-10)
9C95 B7          0 4246 or a
9C96 28 01       0 4247 jr z, __LABEL695
9C98 7C          0 4248 ld a, h
9C99             0 4249 __LABEL695:
9C99 CD 65 D5    0 4250 call __NORMALIZE_BOOLEAN
9C9C B7          0 4251 or a
9C9D CA AC 9C    0 4252 jp z, __LABEL155
9CA0 21 D2 F6    0 4253 ld hl, _singleWallH.__DATA__
9CA3 DD 75 EC    0 4254 ld (ix-20), l
9CA6 DD 74 ED    0 4255 ld (ix-19), h
9CA9 C3 86 9D    0 4256 jp __LABEL156
9CAC             0 4257 __LABEL155:
9CAC DD 7E F9    0 4258 ld a, (ix-7)
9CAF DD 66 F8    0 4259 ld h, (ix-8)
9CB2 B7          0 4260 or a
9CB3 28 01       0 4261 jr z, __LABEL696
9CB5 7C          0 4262 ld a, h
9CB6             0 4263 __LABEL696:
9CB6 CD 65 D5    0 4264 call __NORMALIZE_BOOLEAN
9CB9 B7          0 4265 or a
9CBA CA C9 9C    0 4266 jp z, __LABEL157
9CBD 21 C3 F6    0 4267 ld hl, _singleWallV.__DATA__
9CC0 DD 75 EC    0 4268 ld (ix-20), l
9CC3 DD 74 ED    0 4269 ld (ix-19), h
9CC6 C3 86 9D    0 4270 jp __LABEL158
9CC9             0 4271 __LABEL157:
9CC9 DD 7E F7    0 4272 ld a, (ix-9)
9CCC DD 66 F9    0 4273 ld h, (ix-7)
9CCF B7          0 4274 or a
9CD0 28 01       0 4275 jr z, __LABEL697
9CD2 7C          0 4276 ld a, h
9CD3             0 4277 __LABEL697:
9CD3 CD 65 D5    0 4278 call __NORMALIZE_BOOLEAN
9CD6 B7          0 4279 or a
9CD7 CA E6 9C    0 4280 jp z, __LABEL159
9CDA 21 A5 F6    0 4281 ld hl, _wallbr.__DATA__
9CDD DD 75 EC    0 4282 ld (ix-20), l
9CE0 DD 74 ED    0 4283 ld (ix-19), h
9CE3 C3 86 9D    0 4284 jp __LABEL160
9CE6             0 4285 __LABEL159:
9CE6 DD 7E F7    0 4286 ld a, (ix-9)
9CE9 DD 66 F8    0 4287 ld h, (ix-8)
9CEC B7          0 4288 or a
9CED 28 01       0 4289 jr z, __LABEL698
9CEF 7C          0 4290 ld a, h
9CF0             0 4291 __LABEL698:
9CF0 CD 65 D5    0 4292 call __NORMALIZE_BOOLEAN
9CF3 B7          0 4293 or a
9CF4 CA 03 9D    0 4294 jp z, __LABEL161
9CF7 21 87 F6    0 4295 ld hl, _walltr.__DATA__
9CFA DD 75 EC    0 4296 ld (ix-20), l
9CFD DD 74 ED    0 4297 ld (ix-19), h
9D00 C3 86 9D    0 4298 jp __LABEL162
9D03             0 4299 __LABEL161:
9D03 DD 7E F6    0 4300 ld a, (ix-10)
9D06 DD 66 F9    0 4301 ld h, (ix-7)
9D09 B7          0 4302 or a
9D0A 28 01       0 4303 jr z, __LABEL699
9D0C 7C          0 4304 ld a, h
9D0D             0 4305 __LABEL699:
9D0D CD 65 D5    0 4306 call __NORMALIZE_BOOLEAN
9D10 B7          0 4307 or a
9D11 CA 20 9D    0 4308 jp z, __LABEL163
9D14 21 B4 F6    0 4309 ld hl, _wallbl.__DATA__
9D17 DD 75 EC    0 4310 ld (ix-20), l
9D1A DD 74 ED    0 4311 ld (ix-19), h
9D1D C3 86 9D    0 4312 jp __LABEL164
9D20             0 4313 __LABEL163:
9D20 DD 7E F6    0 4314 ld a, (ix-10)
9D23 DD 66 F8    0 4315 ld h, (ix-8)
9D26 B7          0 4316 or a
9D27 28 01       0 4317 jr z, __LABEL700
9D29 7C          0 4318 ld a, h
9D2A             0 4319 __LABEL700:
9D2A CD 65 D5    0 4320 call __NORMALIZE_BOOLEAN
9D2D B7          0 4321 or a
9D2E CA 3D 9D    0 4322 jp z, __LABEL165
9D31 21 96 F6    0 4323 ld hl, _walltl.__DATA__
9D34 DD 75 EC    0 4324 ld (ix-20), l
9D37 DD 74 ED    0 4325 ld (ix-19), h
9D3A C3 86 9D    0 4326 jp __LABEL166
9D3D             0 4327 __LABEL165:
9D3D DD 7E F7    0 4328 ld a, (ix-9)
9D40 B7          0 4329 or a
9D41 CA 50 9D    0 4330 jp z, __LABEL167
9D44 21 2C F7    0 4331 ld hl, _rockR.__DATA__
9D47 DD 75 EC    0 4332 ld (ix-20), l
9D4A DD 74 ED    0 4333 ld (ix-19), h
9D4D C3 86 9D    0 4334 jp __LABEL168
9D50             0 4335 __LABEL167:
9D50 DD 7E F6    0 4336 ld a, (ix-10)
9D53 B7          0 4337 or a
9D54 CA 63 9D    0 4338 jp z, __LABEL169
9D57 21 1D F7    0 4339 ld hl, _rockL.__DATA__
9D5A DD 75 EC    0 4340 ld (ix-20), l
9D5D DD 74 ED    0 4341 ld (ix-19), h
9D60 C3 86 9D    0 4342 jp __LABEL170
9D63             0 4343 __LABEL169:
9D63 DD 7E F9    0 4344 ld a, (ix-7)
9D66 B7          0 4345 or a
9D67 CA 76 9D    0 4346 jp z, __LABEL171
9D6A 21 0E F7    0 4347 ld hl, _rockB.__DATA__
9D6D DD 75 EC    0 4348 ld (ix-20), l
9D70 DD 74 ED    0 4349 ld (ix-19), h
9D73 C3 86 9D    0 4350 jp __LABEL172
9D76             0 4351 __LABEL171:
9D76 DD 7E F8    0 4352 ld a, (ix-8)
9D79 B7          0 4353 or a
9D7A CA 86 9D    0 4354 jp z, __LABEL174
9D7D 21 FF F6    0 4355 ld hl, _rockT.__DATA__
9D80 DD 75 EC    0 4356 ld (ix-20), l
9D83 DD 74 ED    0 4357 ld (ix-19), h
9D86             0 4358 __LABEL174:
9D86             0 4359 __LABEL172:
9D86             0 4360 __LABEL170:
9D86             0 4361 __LABEL168:
9D86             0 4362 __LABEL166:
9D86             0 4363 __LABEL164:
9D86             0 4364 __LABEL162:
9D86             0 4365 __LABEL160:
9D86             0 4366 __LABEL158:
9D86             0 4367 __LABEL156:
9D86             0 4368 __LABEL154:
9D86             0 4369 __LABEL152:
9D86             0 4370 __LABEL150:
9D86             0 4371 __LABEL148:
9D86             0 4372 __LABEL146:
9D86 DD 7E F5    0 4373 ld a, (ix-11)
9D89 6F          0 4374 ld l, a
9D8A 26 00       0 4375 ld h, 0
9D8C E5          0 4376 push hl
9D8D DD 6E EE    0 4377 ld l, (ix-18)
9D90 DD 66 EF    0 4378 ld h, (ix-17)
9D93 2B          0 4379 dec hl
9D94 E5          0 4380 push hl
9D95 DD 6E F0    0 4381 ld l, (ix-16)
9D98 DD 66 F1    0 4382 ld h, (ix-15)
9D9B 11 05 00    0 4383 ld de, 5
9D9E 19          0 4384 add hl, de
9D9F E5          0 4385 push hl
9DA0 DD 6E EC    0 4386 ld l, (ix-20)
9DA3 DD 66 ED    0 4387 ld h, (ix-19)
9DA6 CD 16 8B    0 4388 call _printColorChar
9DA9 C3 B0 9D    0 4389 jp __LABEL134
9DAC             0 4390 __LABEL133:
9DAC DD 36 F4 00 0 4391 ld (ix-12), 0
9DB0             0 4392 __LABEL134:
9DB0             0 4393 __LABEL132:
9DB0 DD 6E EE    0 4394 ld l, (ix-18)
9DB3 DD 66 EF    0 4395 ld h, (ix-17)
9DB6 23          0 4396 inc hl
9DB7 DD 75 EE    0 4397 ld (ix-18), l
9DBA DD 74 EF    0 4398 ld (ix-17), h
9DBD             0 4399 __LABEL128:
9DBD DD 6E EE    0 4400 ld l, (ix-18)
9DC0 DD 66 EF    0 4401 ld h, (ix-17)
9DC3 E5          0 4402 push hl
9DC4 21 20 00    0 4403 ld hl, 32
9DC7 D1          0 4404 pop de
9DC8 B7          0 4405 or a
9DC9 ED 52       0 4406 sbc hl, de
9DCB 9F          0 4407 sbc a, a
9DCC CD 65 D5    0 4408 call __NORMALIZE_BOOLEAN
9DCF B7          0 4409 or a
9DD0 CA EA 99    0 4410 jp z, __LABEL131
9DD3             0 4411 __LABEL130:
9DD3             0 4412 __LABEL127:
9DD3 DD 6E F0    0 4413 ld l, (ix-16)
9DD6 DD 66 F1    0 4414 ld h, (ix-15)
9DD9 2B          0 4415 dec hl
9DDA DD 75 F0    0 4416 ld (ix-16), l
9DDD DD 74 F1    0 4417 ld (ix-15), h
9DE0             0 4418 __LABEL123:
9DE0 DD 6E F0    0 4419 ld l, (ix-16)
9DE3 DD 66 F1    0 4420 ld h, (ix-15)
9DE6 E5          0 4421 push hl
9DE7 11 01 00    0 4422 ld de, 1
9DEA E1          0 4423 pop hl
9DEB B7          0 4424 or a
9DEC ED 52       0 4425 sbc hl, de
9DEE 9F          0 4426 sbc a, a
9DEF CD 65 D5    0 4427 call __NORMALIZE_BOOLEAN
9DF2 B7          0 4428 or a
9DF3 CA DB 99    0 4429 jp z, __LABEL126
9DF6             0 4430 __LABEL125:
9DF6 3A 3B D6    0 4431 ld a, (_tmpX)
9DF9 B7          0 4432 or a
9DFA CA 04 9E    0 4433 jp z, __LABEL176
9DFD 3A 3B D6    0 4434 ld a, (_tmpX)
9E00 F5          0 4435 push af
9E01 CD 2F 97    0 4436 call _transformSolids
9E04             0 4437 __LABEL176:
9E04 AF          0 4438 xor a
9E05 32 1E D6    0 4439 ld (_enemyCount), a
9E08 AF          0 4440 xor a
9E09 32 1F D6    0 4441 ld (_frameCounter), a
9E0C 3E 01       0 4442 ld a, 1
9E0E 32 3B D6    0 4443 ld (_tmpX), a
9E11 C3 4A 9E    0 4444 jp __LABEL177
9E14             0 4445 __LABEL180:
9E14 3E 01       0 4446 ld a, 1
9E16 32 3C D6    0 4447 ld (_tmpY), a
9E19 C3 38 9E    0 4448 jp __LABEL182
9E1C             0 4449 __LABEL185:
9E1C 3A 3C D6    0 4450 ld a, (_tmpY)
9E1F 6F          0 4451 ld l, a
9E20 26 00       0 4452 ld h, 0
9E22 2B          0 4453 dec hl
9E23 E5          0 4454 push hl
9E24 3A 3B D6    0 4455 ld a, (_tmpX)
9E27 6F          0 4456 ld l, a
9E28 26 00       0 4457 ld h, 0
9E2A 2B          0 4458 dec hl
9E2B E5          0 4459 push hl
9E2C 21 91 FA    0 4460 ld hl, _enemyStates
9E2F CD B4 CC    0 4461 call __ARRAY
9E32 36 00       0 4462 ld (hl), 0
9E34             0 4463 __LABEL186:
9E34 21 3C D6    0 4464 ld hl, _tmpY
9E37 34          0 4465 inc (hl)
9E38             0 4466 __LABEL182:
9E38 3E 0B       0 4467 ld a, 11
9E3A 2A 3B D6    0 4468 ld hl, (_tmpY - 1)
9E3D BC          0 4469 cp h
9E3E 9F          0 4470 sbc a, a
9E3F CD 65 D5    0 4471 call __NORMALIZE_BOOLEAN
9E42 B7          0 4472 or a
9E43 CA 1C 9E    0 4473 jp z, __LABEL185
9E46             0 4474 __LABEL184:
9E46             0 4475 __LABEL181:
9E46 21 3B D6    0 4476 ld hl, _tmpX
9E49 34          0 4477 inc (hl)
9E4A             0 4478 __LABEL177:
9E4A 3E 06       0 4479 ld a, 6
9E4C 2A 3A D6    0 4480 ld hl, (_tmpX - 1)
9E4F BC          0 4481 cp h
9E50 9F          0 4482 sbc a, a
9E51 CD 65 D5    0 4483 call __NORMALIZE_BOOLEAN
9E54 B7          0 4484 or a
9E55 CA 14 9E    0 4485 jp z, __LABEL180
9E58             0 4486 __LABEL179:
9E58 AF          0 4487 xor a
9E59 F5          0 4488 push af
9E5A AF          0 4489 xor a
9E5B F5          0 4490 push af
9E5C 3A 3A D6    0 4491 ld a, (_emptyAttrib)
9E5F E6 38       0 4492 and 56
9E61 CB 3F       0 4493 srl a
9E63 CB 3F       0 4494 srl a
9E65 CB 3F       0 4495 srl a
9E67 F5          0 4496 push af
9E68 3E 02       0 4497 ld a, 2
9E6A CD C8 89    0 4498 call _createAttrib
9E6D 32 52 D6    0 4499 ld (_dynaColor), a
9E70 DD 36 EE 61 0 4500 ld (ix-18), 97
9E74 DD 36 EF 00 0 4501 ld (ix-17), 0
9E78 C3 00 9F    0 4502 jp __LABEL187
9E7B             0 4503 __LABEL190:
9E7B DD 6E EE    0 4504 ld l, (ix-18)
9E7E DD 66 EF    0 4505 ld h, (ix-17)
9E81 2B          0 4506 dec hl
9E82 E5          0 4507 push hl
9E83 DD 6E F2    0 4508 ld l, (ix-14)
9E86 DD 66 F3    0 4509 ld h, (ix-13)
9E89 2B          0 4510 dec hl
9E8A E5          0 4511 push hl
9E8B 21 E8 FA    0 4512 ld hl, _screens
9E8E CD B4 CC    0 4513 call __ARRAY
9E91 7E          0 4514 ld a, (hl)
9E92 DD 77 FE    0 4515 ld (ix-2), a
9E95 D6 01       0 4516 sub 1
9E97 9F          0 4517 sbc a, a
9E98 CD 65 D5    0 4518 call __NORMALIZE_BOOLEAN
9E9B B7          0 4519 or a
9E9C C2 16 9F    0 4520 jp nz, __LABEL189
9E9F             0 4521 __LABEL193:
9E9F DD 7E FD    0 4522 ld a, (ix-3)
9EA2 32 55 D6    0 4523 ld (_tmpColor), a
9EA5 DD 6E EE    0 4524 ld l, (ix-18)
9EA8 DD 66 EF    0 4525 ld h, (ix-17)
9EAB 23          0 4526 inc hl
9EAC 23          0 4527 inc hl
9EAD 2B          0 4528 dec hl
9EAE E5          0 4529 push hl
9EAF DD 6E F2    0 4530 ld l, (ix-14)
9EB2 DD 66 F3    0 4531 ld h, (ix-13)
9EB5 2B          0 4532 dec hl
9EB6 E5          0 4533 push hl
9EB7 21 E8 FA    0 4534 ld hl, _screens
9EBA CD B4 CC    0 4535 call __ARRAY
9EBD 7E          0 4536 ld a, (hl)
9EBE C6 05       0 4537 add a, 5
9EC0 26 08       0 4538 ld h, 8
9EC2 CD C2 D3    0 4539 call __MUL8_FAST
9EC5 F5          0 4540 push af
9EC6 DD 6E EE    0 4541 ld l, (ix-18)
9EC9 DD 66 EF    0 4542 ld h, (ix-17)
9ECC 23          0 4543 inc hl
9ECD 2B          0 4544 dec hl
9ECE E5          0 4545 push hl
9ECF DD 6E F2    0 4546 ld l, (ix-14)
9ED2 DD 66 F3    0 4547 ld h, (ix-13)
9ED5 2B          0 4548 dec hl
9ED6 E5          0 4549 push hl
9ED7 21 E8 FA    0 4550 ld hl, _screens
9EDA CD B4 CC    0 4551 call __ARRAY
9EDD 7E          0 4552 ld a, (hl)
9EDE 3D          0 4553 dec a
9EDF 26 08       0 4554 ld h, 8
9EE1 CD C2 D3    0 4555 call __MUL8_FAST
9EE4 F5          0 4556 push af
9EE5 DD 7E FE    0 4557 ld a, (ix-2)
9EE8 F5          0 4558 push af
9EE9 26 0F       0 4559 ld h, 15
9EEB F1          0 4560 pop af
9EEC A4          0 4561 and h
9EED F5          0 4562 push af
9EEE CD 1B 9F    0 4563 call _loadItem
9EF1             0 4564 __LABEL191:
9EF1 DD 6E EE    0 4565 ld l, (ix-18)
9EF4 DD 66 EF    0 4566 ld h, (ix-17)
9EF7 23          0 4567 inc hl
9EF8 23          0 4568 inc hl
9EF9 23          0 4569 inc hl
9EFA DD 75 EE    0 4570 ld (ix-18), l
9EFD DD 74 EF    0 4571 ld (ix-17), h
9F00             0 4572 __LABEL187:
9F00 DD 6E EE    0 4573 ld l, (ix-18)
9F03 DD 66 EF    0 4574 ld h, (ix-17)
9F06 E5          0 4575 push hl
9F07 21 73 00    0 4576 ld hl, 115
9F0A D1          0 4577 pop de
9F0B B7          0 4578 or a
9F0C ED 52       0 4579 sbc hl, de
9F0E 9F          0 4580 sbc a, a
9F0F CD 65 D5    0 4581 call __NORMALIZE_BOOLEAN
9F12 B7          0 4582 or a
9F13 CA 7B 9E    0 4583 jp z, __LABEL190
9F16             0 4584 __LABEL189:
9F16             0 4585 _decodeCurrentScreen__leave:
9F16 DD F9       0 4586 ld sp, ix
9F18 DD E1       0 4587 pop ix
9F1A C9          0 4588 ret
9F1B             0 4589 _loadItem:
9F1B DD E5       0 4590 push ix
9F1D DD 21 00 00 0 4591 ld ix, 0
9F21 DD 39       0 4592 add ix, sp
9F23 DD 7E 05    0 4593 ld a, (ix+5)
9F26 F5          0 4594 push af
9F27 26 07       0 4595 ld h, 7
9F29 F1          0 4596 pop af
9F2A BC          0 4597 cp h
9F2B 9F          0 4598 sbc a, a
9F2C CD 65 D5    0 4599 call __NORMALIZE_BOOLEAN
9F2F B7          0 4600 or a
9F30 CA 24 A5    0 4601 jp z, __LABEL194
9F33 21 1E D6    0 4602 ld hl, _enemyCount
9F36 34          0 4603 inc (hl)
9F37 DD 7E 05    0 4604 ld a, (ix+5)
9F3A F5          0 4605 push af
9F3B 21 00 00    0 4606 ld hl, 0
9F3E E5          0 4607 push hl
9F3F 3A 1E D6    0 4608 ld a, (_enemyCount)
9F42 6F          0 4609 ld l, a
9F43 26 00       0 4610 ld h, 0
9F45 2B          0 4611 dec hl
9F46 E5          0 4612 push hl
9F47 21 91 FA    0 4613 ld hl, _enemyStates
9F4A CD B4 CC    0 4614 call __ARRAY
9F4D F1          0 4615 pop af
9F4E 77          0 4616 ld (hl), a
9F4F DD 7E 07    0 4617 ld a, (ix+7)
9F52 F5          0 4618 push af
9F53 21 01 00    0 4619 ld hl, 1
9F56 E5          0 4620 push hl
9F57 3A 1E D6    0 4621 ld a, (_enemyCount)
9F5A 6F          0 4622 ld l, a
9F5B 26 00       0 4623 ld h, 0
9F5D 2B          0 4624 dec hl
9F5E E5          0 4625 push hl
9F5F 21 91 FA    0 4626 ld hl, _enemyStates
9F62 CD B4 CC    0 4627 call __ARRAY
9F65 F1          0 4628 pop af
9F66 77          0 4629 ld (hl), a
9F67 DD 7E 09    0 4630 ld a, (ix+9)
9F6A F5          0 4631 push af
9F6B 21 02 00    0 4632 ld hl, 2
9F6E E5          0 4633 push hl
9F6F 3A 1E D6    0 4634 ld a, (_enemyCount)
9F72 6F          0 4635 ld l, a
9F73 26 00       0 4636 ld h, 0
9F75 2B          0 4637 dec hl
9F76 E5          0 4638 push hl
9F77 21 91 FA    0 4639 ld hl, _enemyStates
9F7A CD B4 CC    0 4640 call __ARRAY
9F7D F1          0 4641 pop af
9F7E 77          0 4642 ld (hl), a
9F7F DD 7E 07    0 4643 ld a, (ix+7)
9F82 F5          0 4644 push af
9F83 21 03 00    0 4645 ld hl, 3
9F86 E5          0 4646 push hl
9F87 3A 1E D6    0 4647 ld a, (_enemyCount)
9F8A 6F          0 4648 ld l, a
9F8B 26 00       0 4649 ld h, 0
9F8D 2B          0 4650 dec hl
9F8E E5          0 4651 push hl
9F8F 21 91 FA    0 4652 ld hl, _enemyStates
9F92 CD B4 CC    0 4653 call __ARRAY
9F95 F1          0 4654 pop af
9F96 77          0 4655 ld (hl), a
9F97 DD 7E 09    0 4656 ld a, (ix+9)
9F9A F5          0 4657 push af
9F9B 21 04 00    0 4658 ld hl, 4
9F9E E5          0 4659 push hl
9F9F 3A 1E D6    0 4660 ld a, (_enemyCount)
9FA2 6F          0 4661 ld l, a
9FA3 26 00       0 4662 ld h, 0
9FA5 2B          0 4663 dec hl
9FA6 E5          0 4664 push hl
9FA7 21 91 FA    0 4665 ld hl, _enemyStates
9FAA CD B4 CC    0 4666 call __ARRAY
9FAD F1          0 4667 pop af
9FAE 77          0 4668 ld (hl), a
9FAF DD 7E 05    0 4669 ld a, (ix+5)
9FB2 3D          0 4670 dec a
9FB3 D6 01       0 4671 sub 1
9FB5 9F          0 4672 sbc a, a
9FB6 CD 65 D5    0 4673 call __NORMALIZE_BOOLEAN
9FB9 B7          0 4674 or a
9FBA CA 6D A0    0 4675 jp z, __LABEL196
9FBD DD 7E 07    0 4676 ld a, (ix+7)
9FC0 F5          0 4677 push af
9FC1 21 05 00    0 4678 ld hl, 5
9FC4 E5          0 4679 push hl
9FC5 3A 1E D6    0 4680 ld a, (_enemyCount)
9FC8 6F          0 4681 ld l, a
9FC9 26 00       0 4682 ld h, 0
9FCB 2B          0 4683 dec hl
9FCC E5          0 4684 push hl
9FCD 21 91 FA    0 4685 ld hl, _enemyStates
9FD0 CD B4 CC    0 4686 call __ARRAY
9FD3 F1          0 4687 pop af
9FD4 77          0 4688 ld (hl), a
9FD5 DD 7E 09    0 4689 ld a, (ix+9)
9FD8 D6 08       0 4690 sub 8
9FDA F5          0 4691 push af
9FDB 21 06 00    0 4692 ld hl, 6
9FDE E5          0 4693 push hl
9FDF 3A 1E D6    0 4694 ld a, (_enemyCount)
9FE2 6F          0 4695 ld l, a
9FE3 26 00       0 4696 ld h, 0
9FE5 2B          0 4697 dec hl
9FE6 E5          0 4698 push hl
9FE7 21 91 FA    0 4699 ld hl, _enemyStates
9FEA CD B4 CC    0 4700 call __ARRAY
9FED F1          0 4701 pop af
9FEE 77          0 4702 ld (hl), a
9FEF DD 7E 07    0 4703 ld a, (ix+7)
9FF2 F5          0 4704 push af
9FF3 21 07 00    0 4705 ld hl, 7
9FF6 E5          0 4706 push hl
9FF7 3A 1E D6    0 4707 ld a, (_enemyCount)
9FFA 6F          0 4708 ld l, a
9FFB 26 00       0 4709 ld h, 0
9FFD 2B          0 4710 dec hl
9FFE E5          0 4711 push hl
9FFF 21 91 FA    0 4712 ld hl, _enemyStates
A002 CD B4 CC    0 4713 call __ARRAY
A005 F1          0 4714 pop af
A006 77          0 4715 ld (hl), a
A007 DD 7E 09    0 4716 ld a, (ix+9)
A00A C6 08       0 4717 add a, 8
A00C F5          0 4718 push af
A00D 21 08 00    0 4719 ld hl, 8
A010 E5          0 4720 push hl
A011 3A 1E D6    0 4721 ld a, (_enemyCount)
A014 6F          0 4722 ld l, a
A015 26 00       0 4723 ld h, 0
A017 2B          0 4724 dec hl
A018 E5          0 4725 push hl
A019 21 91 FA    0 4726 ld hl, _enemyStates
A01C CD B4 CC    0 4727 call __ARRAY
A01F F1          0 4728 pop af
A020 77          0 4729 ld (hl), a
A021 21 09 00    0 4730 ld hl, 9
A024 E5          0 4731 push hl
A025 3A 1E D6    0 4732 ld a, (_enemyCount)
A028 6F          0 4733 ld l, a
A029 26 00       0 4734 ld h, 0
A02B 2B          0 4735 dec hl
A02C E5          0 4736 push hl
A02D 21 91 FA    0 4737 ld hl, _enemyStates
A030 CD B4 CC    0 4738 call __ARRAY
A033 36 00       0 4739 ld (hl), 0
A035 21 0A 00    0 4740 ld hl, 10
A038 E5          0 4741 push hl
A039 3A 1E D6    0 4742 ld a, (_enemyCount)
A03C 6F          0 4743 ld l, a
A03D 26 00       0 4744 ld h, 0
A03F 2B          0 4745 dec hl
A040 E5          0 4746 push hl
A041 21 91 FA    0 4747 ld hl, _enemyStates
A044 CD B4 CC    0 4748 call __ARRAY
A047 36 02       0 4749 ld (hl), 2
A049 AF          0 4750 xor a
A04A F5          0 4751 push af
A04B AF          0 4752 xor a
A04C F5          0 4753 push af
A04D 3A 3A D6    0 4754 ld a, (_emptyAttrib)
A050 E6 38       0 4755 and 56
A052 CB 3F       0 4756 srl a
A054 CB 3F       0 4757 srl a
A056 CB 3F       0 4758 srl a
A058 F5          0 4759 push af
A059 3E 03       0 4760 ld a, 3
A05B CD C8 89    0 4761 call _createAttrib
A05E 32 4B D6    0 4762 ld (_vampColor), a
A061 32 55 D6    0 4763 ld (_tmpColor), a
A064 21 79 F5    0 4764 ld hl, _vampUp.__DATA__
A067 22 56 D6    0 4765 ld (_tmpItem), hl
A06A C3 06 A5    0 4766 jp __LABEL197
A06D             0 4767 __LABEL196:
A06D DD 7E 05    0 4768 ld a, (ix+5)
A070 D6 02       0 4769 sub 2
A072 D6 01       0 4770 sub 1
A074 9F          0 4771 sbc a, a
A075 CD 65 D5    0 4772 call __NORMALIZE_BOOLEAN
A078 B7          0 4773 or a
A079 CA 2C A1    0 4774 jp z, __LABEL198
A07C DD 7E 07    0 4775 ld a, (ix+7)
A07F F5          0 4776 push af
A080 21 05 00    0 4777 ld hl, 5
A083 E5          0 4778 push hl
A084 3A 1E D6    0 4779 ld a, (_enemyCount)
A087 6F          0 4780 ld l, a
A088 26 00       0 4781 ld h, 0
A08A 2B          0 4782 dec hl
A08B E5          0 4783 push hl
A08C 21 91 FA    0 4784 ld hl, _enemyStates
A08F CD B4 CC    0 4785 call __ARRAY
A092 F1          0 4786 pop af
A093 77          0 4787 ld (hl), a
A094 DD 7E 09    0 4788 ld a, (ix+9)
A097 D6 02       0 4789 sub 2
A099 F5          0 4790 push af
A09A 21 06 00    0 4791 ld hl, 6
A09D E5          0 4792 push hl
A09E 3A 1E D6    0 4793 ld a, (_enemyCount)
A0A1 6F          0 4794 ld l, a
A0A2 26 00       0 4795 ld h, 0
A0A4 2B          0 4796 dec hl
A0A5 E5          0 4797 push hl
A0A6 21 91 FA    0 4798 ld hl, _enemyStates
A0A9 CD B4 CC    0 4799 call __ARRAY
A0AC F1          0 4800 pop af
A0AD 77          0 4801 ld (hl), a
A0AE DD 7E 07    0 4802 ld a, (ix+7)
A0B1 F5          0 4803 push af
A0B2 21 07 00    0 4804 ld hl, 7
A0B5 E5          0 4805 push hl
A0B6 3A 1E D6    0 4806 ld a, (_enemyCount)
A0B9 6F          0 4807 ld l, a
A0BA 26 00       0 4808 ld h, 0
A0BC 2B          0 4809 dec hl
A0BD E5          0 4810 push hl
A0BE 21 91 FA    0 4811 ld hl, _enemyStates
A0C1 CD B4 CC    0 4812 call __ARRAY
A0C4 F1          0 4813 pop af
A0C5 77          0 4814 ld (hl), a
A0C6 DD 7E 09    0 4815 ld a, (ix+9)
A0C9 C6 02       0 4816 add a, 2
A0CB F5          0 4817 push af
A0CC 21 08 00    0 4818 ld hl, 8
A0CF E5          0 4819 push hl
A0D0 3A 1E D6    0 4820 ld a, (_enemyCount)
A0D3 6F          0 4821 ld l, a
A0D4 26 00       0 4822 ld h, 0
A0D6 2B          0 4823 dec hl
A0D7 E5          0 4824 push hl
A0D8 21 91 FA    0 4825 ld hl, _enemyStates
A0DB CD B4 CC    0 4826 call __ARRAY
A0DE F1          0 4827 pop af
A0DF 77          0 4828 ld (hl), a
A0E0 21 09 00    0 4829 ld hl, 9
A0E3 E5          0 4830 push hl
A0E4 3A 1E D6    0 4831 ld a, (_enemyCount)
A0E7 6F          0 4832 ld l, a
A0E8 26 00       0 4833 ld h, 0
A0EA 2B          0 4834 dec hl
A0EB E5          0 4835 push hl
A0EC 21 91 FA    0 4836 ld hl, _enemyStates
A0EF CD B4 CC    0 4837 call __ARRAY
A0F2 36 00       0 4838 ld (hl), 0
A0F4 21 0A 00    0 4839 ld hl, 10
A0F7 E5          0 4840 push hl
A0F8 3A 1E D6    0 4841 ld a, (_enemyCount)
A0FB 6F          0 4842 ld l, a
A0FC 26 00       0 4843 ld h, 0
A0FE 2B          0 4844 dec hl
A0FF E5          0 4845 push hl
A100 21 91 FA    0 4846 ld hl, _enemyStates
A103 CD B4 CC    0 4847 call __ARRAY
A106 36 01       0 4848 ld (hl), 1
A108 AF          0 4849 xor a
A109 F5          0 4850 push af
A10A AF          0 4851 xor a
A10B F5          0 4852 push af
A10C 3A 3A D6    0 4853 ld a, (_emptyAttrib)
A10F E6 38       0 4854 and 56
A111 CB 3F       0 4855 srl a
A113 CB 3F       0 4856 srl a
A115 CB 3F       0 4857 srl a
A117 F5          0 4858 push af
A118 3E 07       0 4859 ld a, 7
A11A CD C8 89    0 4860 call _createAttrib
A11D 32 4C D6    0 4861 ld (_spiderColor), a
A120 32 55 D6    0 4862 ld (_tmpColor), a
A123 21 B5 F5    0 4863 ld hl, _spider.__DATA__
A126 22 56 D6    0 4864 ld (_tmpItem), hl
A129 C3 06 A5    0 4865 jp __LABEL199
A12C             0 4866 __LABEL198:
A12C DD 7E 05    0 4867 ld a, (ix+5)
A12F D6 03       0 4868 sub 3
A131 D6 01       0 4869 sub 1
A133 9F          0 4870 sbc a, a
A134 CD 65 D5    0 4871 call __NORMALIZE_BOOLEAN
A137 B7          0 4872 or a
A138 CA EB A1    0 4873 jp z, __LABEL200
A13B DD 7E 07    0 4874 ld a, (ix+7)
A13E D6 10       0 4875 sub 16
A140 F5          0 4876 push af
A141 21 05 00    0 4877 ld hl, 5
A144 E5          0 4878 push hl
A145 3A 1E D6    0 4879 ld a, (_enemyCount)
A148 6F          0 4880 ld l, a
A149 26 00       0 4881 ld h, 0
A14B 2B          0 4882 dec hl
A14C E5          0 4883 push hl
A14D 21 91 FA    0 4884 ld hl, _enemyStates
A150 CD B4 CC    0 4885 call __ARRAY
A153 F1          0 4886 pop af
A154 77          0 4887 ld (hl), a
A155 DD 7E 09    0 4888 ld a, (ix+9)
A158 F5          0 4889 push af
A159 21 06 00    0 4890 ld hl, 6
A15C E5          0 4891 push hl
A15D 3A 1E D6    0 4892 ld a, (_enemyCount)
A160 6F          0 4893 ld l, a
A161 26 00       0 4894 ld h, 0
A163 2B          0 4895 dec hl
A164 E5          0 4896 push hl
A165 21 91 FA    0 4897 ld hl, _enemyStates
A168 CD B4 CC    0 4898 call __ARRAY
A16B F1          0 4899 pop af
A16C 77          0 4900 ld (hl), a
A16D DD 7E 07    0 4901 ld a, (ix+7)
A170 C6 10       0 4902 add a, 16
A172 F5          0 4903 push af
A173 21 07 00    0 4904 ld hl, 7
A176 E5          0 4905 push hl
A177 3A 1E D6    0 4906 ld a, (_enemyCount)
A17A 6F          0 4907 ld l, a
A17B 26 00       0 4908 ld h, 0
A17D 2B          0 4909 dec hl
A17E E5          0 4910 push hl
A17F 21 91 FA    0 4911 ld hl, _enemyStates
A182 CD B4 CC    0 4912 call __ARRAY
A185 F1          0 4913 pop af
A186 77          0 4914 ld (hl), a
A187 DD 7E 09    0 4915 ld a, (ix+9)
A18A F5          0 4916 push af
A18B 21 08 00    0 4917 ld hl, 8
A18E E5          0 4918 push hl
A18F 3A 1E D6    0 4919 ld a, (_enemyCount)
A192 6F          0 4920 ld l, a
A193 26 00       0 4921 ld h, 0
A195 2B          0 4922 dec hl
A196 E5          0 4923 push hl
A197 21 91 FA    0 4924 ld hl, _enemyStates
A19A CD B4 CC    0 4925 call __ARRAY
A19D F1          0 4926 pop af
A19E 77          0 4927 ld (hl), a
A19F 21 09 00    0 4928 ld hl, 9
A1A2 E5          0 4929 push hl
A1A3 3A 1E D6    0 4930 ld a, (_enemyCount)
A1A6 6F          0 4931 ld l, a
A1A7 26 00       0 4932 ld h, 0
A1A9 2B          0 4933 dec hl
A1AA E5          0 4934 push hl
A1AB 21 91 FA    0 4935 ld hl, _enemyStates
A1AE CD B4 CC    0 4936 call __ARRAY
A1B1 36 02       0 4937 ld (hl), 2
A1B3 21 0A 00    0 4938 ld hl, 10
A1B6 E5          0 4939 push hl
A1B7 3A 1E D6    0 4940 ld a, (_enemyCount)
A1BA 6F          0 4941 ld l, a
A1BB 26 00       0 4942 ld h, 0
A1BD 2B          0 4943 dec hl
A1BE E5          0 4944 push hl
A1BF 21 91 FA    0 4945 ld hl, _enemyStates
A1C2 CD B4 CC    0 4946 call __ARRAY
A1C5 36 00       0 4947 ld (hl), 0
A1C7 AF          0 4948 xor a
A1C8 F5          0 4949 push af
A1C9 AF          0 4950 xor a
A1CA F5          0 4951 push af
A1CB 3A 3A D6    0 4952 ld a, (_emptyAttrib)
A1CE E6 38       0 4953 and 56
A1D0 CB 3F       0 4954 srl a
A1D2 CB 3F       0 4955 srl a
A1D4 CB 3F       0 4956 srl a
A1D6 F5          0 4957 push af
A1D7 3E 07       0 4958 ld a, 7
A1D9 CD C8 89    0 4959 call _createAttrib
A1DC 32 51 D6    0 4960 ld (_flyColor), a
A1DF 32 55 D6    0 4961 ld (_tmpColor), a
A1E2 21 3B F7    0 4962 ld hl, _fly1.__DATA__
A1E5 22 56 D6    0 4963 ld (_tmpItem), hl
A1E8 C3 06 A5    0 4964 jp __LABEL201
A1EB             0 4965 __LABEL200:
A1EB DD 7E 05    0 4966 ld a, (ix+5)
A1EE D6 04       0 4967 sub 4
A1F0 D6 01       0 4968 sub 1
A1F2 9F          0 4969 sbc a, a
A1F3 CD 65 D5    0 4970 call __NORMALIZE_BOOLEAN
A1F6 B7          0 4971 or a
A1F7 CA AE A2    0 4972 jp z, __LABEL202
A1FA DD 7E 07    0 4973 ld a, (ix+7)
A1FD D6 10       0 4974 sub 16
A1FF F5          0 4975 push af
A200 21 05 00    0 4976 ld hl, 5
A203 E5          0 4977 push hl
A204 3A 1E D6    0 4978 ld a, (_enemyCount)
A207 6F          0 4979 ld l, a
A208 26 00       0 4980 ld h, 0
A20A 2B          0 4981 dec hl
A20B E5          0 4982 push hl
A20C 21 91 FA    0 4983 ld hl, _enemyStates
A20F CD B4 CC    0 4984 call __ARRAY
A212 F1          0 4985 pop af
A213 77          0 4986 ld (hl), a
A214 DD 7E 09    0 4987 ld a, (ix+9)
A217 D6 10       0 4988 sub 16
A219 F5          0 4989 push af
A21A 21 06 00    0 4990 ld hl, 6
A21D E5          0 4991 push hl
A21E 3A 1E D6    0 4992 ld a, (_enemyCount)
A221 6F          0 4993 ld l, a
A222 26 00       0 4994 ld h, 0
A224 2B          0 4995 dec hl
A225 E5          0 4996 push hl
A226 21 91 FA    0 4997 ld hl, _enemyStates
A229 CD B4 CC    0 4998 call __ARRAY
A22C F1          0 4999 pop af
A22D 77          0 5000 ld (hl), a
A22E DD 7E 07    0 5001 ld a, (ix+7)
A231 C6 10       0 5002 add a, 16
A233 F5          0 5003 push af
A234 21 07 00    0 5004 ld hl, 7
A237 E5          0 5005 push hl
A238 3A 1E D6    0 5006 ld a, (_enemyCount)
A23B 6F          0 5007 ld l, a
A23C 26 00       0 5008 ld h, 0
A23E 2B          0 5009 dec hl
A23F E5          0 5010 push hl
A240 21 91 FA    0 5011 ld hl, _enemyStates
A243 CD B4 CC    0 5012 call __ARRAY
A246 F1          0 5013 pop af
A247 77          0 5014 ld (hl), a
A248 DD 7E 09    0 5015 ld a, (ix+9)
A24B C6 10       0 5016 add a, 16
A24D F5          0 5017 push af
A24E 21 08 00    0 5018 ld hl, 8
A251 E5          0 5019 push hl
A252 3A 1E D6    0 5020 ld a, (_enemyCount)
A255 6F          0 5021 ld l, a
A256 26 00       0 5022 ld h, 0
A258 2B          0 5023 dec hl
A259 E5          0 5024 push hl
A25A 21 91 FA    0 5025 ld hl, _enemyStates
A25D CD B4 CC    0 5026 call __ARRAY
A260 F1          0 5027 pop af
A261 77          0 5028 ld (hl), a
A262 21 09 00    0 5029 ld hl, 9
A265 E5          0 5030 push hl
A266 3A 1E D6    0 5031 ld a, (_enemyCount)
A269 6F          0 5032 ld l, a
A26A 26 00       0 5033 ld h, 0
A26C 2B          0 5034 dec hl
A26D E5          0 5035 push hl
A26E 21 91 FA    0 5036 ld hl, _enemyStates
A271 CD B4 CC    0 5037 call __ARRAY
A274 36 02       0 5038 ld (hl), 2
A276 21 0A 00    0 5039 ld hl, 10
A279 E5          0 5040 push hl
A27A 3A 1E D6    0 5041 ld a, (_enemyCount)
A27D 6F          0 5042 ld l, a
A27E 26 00       0 5043 ld h, 0
A280 2B          0 5044 dec hl
A281 E5          0 5045 push hl
A282 21 91 FA    0 5046 ld hl, _enemyStates
A285 CD B4 CC    0 5047 call __ARRAY
A288 36 01       0 5048 ld (hl), 1
A28A AF          0 5049 xor a
A28B F5          0 5050 push af
A28C AF          0 5051 xor a
A28D F5          0 5052 push af
A28E 3A 3A D6    0 5053 ld a, (_emptyAttrib)
A291 E6 38       0 5054 and 56
A293 CB 3F       0 5055 srl a
A295 CB 3F       0 5056 srl a
A297 CB 3F       0 5057 srl a
A299 F5          0 5058 push af
A29A 3E 02       0 5059 ld a, 2
A29C CD C8 89    0 5060 call _createAttrib
A29F 32 4E D6    0 5061 ld (_bugColor), a
A2A2 32 55 D6    0 5062 ld (_tmpColor), a
A2A5 21 0F F6    0 5063 ld hl, _bug1.__DATA__
A2A8 22 56 D6    0 5064 ld (_tmpItem), hl
A2AB C3 06 A5    0 5065 jp __LABEL203
A2AE             0 5066 __LABEL202:
A2AE DD 7E 05    0 5067 ld a, (ix+5)
A2B1 D6 05       0 5068 sub 5
A2B3 D6 01       0 5069 sub 1
A2B5 9F          0 5070 sbc a, a
A2B6 CD 65 D5    0 5071 call __NORMALIZE_BOOLEAN
A2B9 B7          0 5072 or a
A2BA CA 15 A4    0 5073 jp z, __LABEL204
A2BD 3A 55 D6    0 5074 ld a, (_tmpColor)
A2C0 32 4D D6    0 5075 ld (_snakeColor), a
A2C3 AF          0 5076 xor a
A2C4 32 3B D6    0 5077 ld (_tmpX), a
A2C7 AF          0 5078 xor a
A2C8 32 3C D6    0 5079 ld (_tmpY), a
A2CB DD 7E 09    0 5080 ld a, (ix+9)
A2CE 26 08       0 5081 ld h, 8
A2D0 CD 30 D2    0 5082 call __DIVU8_FAST
A2D3 D6 05       0 5083 sub 5
A2D5 32 55 D6    0 5084 ld (_tmpColor), a
A2D8 DD 7E 07    0 5085 ld a, (ix+7)
A2DB 26 08       0 5086 ld h, 8
A2DD CD 30 D2    0 5087 call __DIVU8_FAST
A2E0 3C          0 5088 inc a
A2E1 32 3D D6    0 5089 ld (_tmpZ), a
A2E4 C3 16 A3    0 5090 jp __LABEL206
A2E7             0 5091 __LABEL209:
A2E7 3A 55 D6    0 5092 ld a, (_tmpColor)
A2EA 6F          0 5093 ld l, a
A2EB 26 00       0 5094 ld h, 0
A2ED 2B          0 5095 dec hl
A2EE E5          0 5096 push hl
A2EF 3A 3D D6    0 5097 ld a, (_tmpZ)
A2F2 6F          0 5098 ld l, a
A2F3 26 00       0 5099 ld h, 0
A2F5 2B          0 5100 dec hl
A2F6 E5          0 5101 push hl
A2F7 21 9F F8    0 5102 ld hl, _solidMap
A2FA CD B4 CC    0 5103 call __ARRAY
A2FD 7E          0 5104 ld a, (hl)
A2FE B7          0 5105 or a
A2FF CA 12 A3    0 5106 jp z, __LABEL212
A302 3A 3D D6    0 5107 ld a, (_tmpZ)
A305 D6 02       0 5108 sub 2
A307 26 08       0 5109 ld h, 8
A309 CD C2 D3    0 5110 call __MUL8_FAST
A30C 32 3B D6    0 5111 ld (_tmpX), a
A30F C3 24 A3    0 5112 jp __LABEL208
A312             0 5113 __LABEL212:
A312             0 5114 __LABEL210:
A312 21 3D D6    0 5115 ld hl, _tmpZ
A315 34          0 5116 inc (hl)
A316             0 5117 __LABEL206:
A316 3E 20       0 5118 ld a, 32
A318 2A 3C D6    0 5119 ld hl, (_tmpZ - 1)
A31B BC          0 5120 cp h
A31C 9F          0 5121 sbc a, a
A31D CD 65 D5    0 5122 call __NORMALIZE_BOOLEAN
A320 B7          0 5123 or a
A321 CA E7 A2    0 5124 jp z, __LABEL209
A324             0 5125 __LABEL208:
A324 DD 7E 07    0 5126 ld a, (ix+7)
A327 26 08       0 5127 ld h, 8
A329 CD 30 D2    0 5128 call __DIVU8_FAST
A32C 3C          0 5129 inc a
A32D 32 3D D6    0 5130 ld (_tmpZ), a
A330 C3 60 A3    0 5131 jp __LABEL213
A333             0 5132 __LABEL216:
A333 3A 55 D6    0 5133 ld a, (_tmpColor)
A336 6F          0 5134 ld l, a
A337 26 00       0 5135 ld h, 0
A339 2B          0 5136 dec hl
A33A E5          0 5137 push hl
A33B 3A 3D D6    0 5138 ld a, (_tmpZ)
A33E 6F          0 5139 ld l, a
A33F 26 00       0 5140 ld h, 0
A341 2B          0 5141 dec hl
A342 E5          0 5142 push hl
A343 21 9F F8    0 5143 ld hl, _solidMap
A346 CD B4 CC    0 5144 call __ARRAY
A349 7E          0 5145 ld a, (hl)
A34A B7          0 5146 or a
A34B CA 5C A3    0 5147 jp z, __LABEL219
A34E 3A 3D D6    0 5148 ld a, (_tmpZ)
A351 26 08       0 5149 ld h, 8
A353 CD C2 D3    0 5150 call __MUL8_FAST
A356 32 3C D6    0 5151 ld (_tmpY), a
A359 C3 6D A3    0 5152 jp __LABEL215
A35C             0 5153 __LABEL219:
A35C             0 5154 __LABEL217:
A35C 21 3D D6    0 5155 ld hl, _tmpZ
A35F 35          0 5156 dec (hl)
A360             0 5157 __LABEL213:
A360 3A 3D D6    0 5158 ld a, (_tmpZ)
A363 FE 01       0 5159 cp 1
A365 9F          0 5160 sbc a, a
A366 CD 65 D5    0 5161 call __NORMALIZE_BOOLEAN
A369 B7          0 5162 or a
A36A CA 33 A3    0 5163 jp z, __LABEL216
A36D             0 5164 __LABEL215:
A36D 21 05 00    0 5165 ld hl, 5
A370 E5          0 5166 push hl
A371 3A 1E D6    0 5167 ld a, (_enemyCount)
A374 6F          0 5168 ld l, a
A375 26 00       0 5169 ld h, 0
A377 2B          0 5170 dec hl
A378 E5          0 5171 push hl
A379 21 91 FA    0 5172 ld hl, _enemyStates
A37C CD B4 CC    0 5173 call __ARRAY
A37F 3A 3C D6    0 5174 ld a, (_tmpY)
A382 77          0 5175 ld (hl), a
A383 DD 7E 09    0 5176 ld a, (ix+9)
A386 F5          0 5177 push af
A387 21 06 00    0 5178 ld hl, 6
A38A E5          0 5179 push hl
A38B 3A 1E D6    0 5180 ld a, (_enemyCount)
A38E 6F          0 5181 ld l, a
A38F 26 00       0 5182 ld h, 0
A391 2B          0 5183 dec hl
A392 E5          0 5184 push hl
A393 21 91 FA    0 5185 ld hl, _enemyStates
A396 CD B4 CC    0 5186 call __ARRAY
A399 F1          0 5187 pop af
A39A 77          0 5188 ld (hl), a
A39B 21 07 00    0 5189 ld hl, 7
A39E E5          0 5190 push hl
A39F 3A 1E D6    0 5191 ld a, (_enemyCount)
A3A2 6F          0 5192 ld l, a
A3A3 26 00       0 5193 ld h, 0
A3A5 2B          0 5194 dec hl
A3A6 E5          0 5195 push hl
A3A7 21 91 FA    0 5196 ld hl, _enemyStates
A3AA CD B4 CC    0 5197 call __ARRAY
A3AD 3A 3B D6    0 5198 ld a, (_tmpX)
A3B0 77          0 5199 ld (hl), a
A3B1 DD 7E 09    0 5200 ld a, (ix+9)
A3B4 F5          0 5201 push af
A3B5 21 08 00    0 5202 ld hl, 8
A3B8 E5          0 5203 push hl
A3B9 3A 1E D6    0 5204 ld a, (_enemyCount)
A3BC 6F          0 5205 ld l, a
A3BD 26 00       0 5206 ld h, 0
A3BF 2B          0 5207 dec hl
A3C0 E5          0 5208 push hl
A3C1 21 91 FA    0 5209 ld hl, _enemyStates
A3C4 CD B4 CC    0 5210 call __ARRAY
A3C7 F1          0 5211 pop af
A3C8 77          0 5212 ld (hl), a
A3C9 21 09 00    0 5213 ld hl, 9
A3CC E5          0 5214 push hl
A3CD 3A 1E D6    0 5215 ld a, (_enemyCount)
A3D0 6F          0 5216 ld l, a
A3D1 26 00       0 5217 ld h, 0
A3D3 2B          0 5218 dec hl
A3D4 E5          0 5219 push hl
A3D5 21 91 FA    0 5220 ld hl, _enemyStates
A3D8 CD B4 CC    0 5221 call __ARRAY
A3DB 36 02       0 5222 ld (hl), 2
A3DD 21 0A 00    0 5223 ld hl, 10
A3E0 E5          0 5224 push hl
A3E1 3A 1E D6    0 5225 ld a, (_enemyCount)
A3E4 6F          0 5226 ld l, a
A3E5 26 00       0 5227 ld h, 0
A3E7 2B          0 5228 dec hl
A3E8 E5          0 5229 push hl
A3E9 21 91 FA    0 5230 ld hl, _enemyStates
A3EC CD B4 CC    0 5231 call __ARRAY
A3EF 36 00       0 5232 ld (hl), 0
A3F1 AF          0 5233 xor a
A3F2 F5          0 5234 push af
A3F3 AF          0 5235 xor a
A3F4 F5          0 5236 push af
A3F5 3A 3A D6    0 5237 ld a, (_emptyAttrib)
A3F8 E6 38       0 5238 and 56
A3FA CB 3F       0 5239 srl a
A3FC CB 3F       0 5240 srl a
A3FE CB 3F       0 5241 srl a
A400 F5          0 5242 push af
A401 3E 06       0 5243 ld a, 6
A403 CD C8 89    0 5244 call _createAttrib
A406 32 50 D6    0 5245 ld (_crabColor), a
A409 32 55 D6    0 5246 ld (_tmpColor), a
A40C 21 59 F7    0 5247 ld hl, _crab1.__DATA__
A40F 22 56 D6    0 5248 ld (_tmpItem), hl
A412 C3 06 A5    0 5249 jp __LABEL205
A415             0 5250 __LABEL204:
A415 DD 7E 09    0 5251 ld a, (ix+9)
A418 F5          0 5252 push af
A419 21 06 00    0 5253 ld hl, 6
A41C E5          0 5254 push hl
A41D 3A 1E D6    0 5255 ld a, (_enemyCount)
A420 6F          0 5256 ld l, a
A421 26 00       0 5257 ld h, 0
A423 2B          0 5258 dec hl
A424 E5          0 5259 push hl
A425 21 91 FA    0 5260 ld hl, _enemyStates
A428 CD B4 CC    0 5261 call __ARRAY
A42B F1          0 5262 pop af
A42C 77          0 5263 ld (hl), a
A42D DD 7E 09    0 5264 ld a, (ix+9)
A430 F5          0 5265 push af
A431 21 08 00    0 5266 ld hl, 8
A434 E5          0 5267 push hl
A435 3A 1E D6    0 5268 ld a, (_enemyCount)
A438 6F          0 5269 ld l, a
A439 26 00       0 5270 ld h, 0
A43B 2B          0 5271 dec hl
A43C E5          0 5272 push hl
A43D 21 91 FA    0 5273 ld hl, _enemyStates
A440 CD B4 CC    0 5274 call __ARRAY
A443 F1          0 5275 pop af
A444 77          0 5276 ld (hl), a
A445 21 09 00    0 5277 ld hl, 9
A448 E5          0 5278 push hl
A449 3A 1E D6    0 5279 ld a, (_enemyCount)
A44C 6F          0 5280 ld l, a
A44D 26 00       0 5281 ld h, 0
A44F 2B          0 5282 dec hl
A450 E5          0 5283 push hl
A451 21 91 FA    0 5284 ld hl, _enemyStates
A454 CD B4 CC    0 5285 call __ARRAY
A457 36 01       0 5286 ld (hl), 1
A459 21 0A 00    0 5287 ld hl, 10
A45C E5          0 5288 push hl
A45D 3A 1E D6    0 5289 ld a, (_enemyCount)
A460 6F          0 5290 ld l, a
A461 26 00       0 5291 ld h, 0
A463 2B          0 5292 dec hl
A464 E5          0 5293 push hl
A465 21 91 FA    0 5294 ld hl, _enemyStates
A468 CD B4 CC    0 5295 call __ARRAY
A46B 36 00       0 5296 ld (hl), 0
A46D 3A 55 D6    0 5297 ld a, (_tmpColor)
A470 6F          0 5298 ld l, a
A471 26 00       0 5299 ld h, 0
A473 2B          0 5300 dec hl
A474 E5          0 5301 push hl
A475 DD 7E 07    0 5302 ld a, (ix+7)
A478 26 08       0 5303 ld h, 8
A47A CD 30 D2    0 5304 call __DIVU8_FAST
A47D 6F          0 5305 ld l, a
A47E 26 00       0 5306 ld h, 0
A480 2B          0 5307 dec hl
A481 E5          0 5308 push hl
A482 21 9F F8    0 5309 ld hl, _solidMap
A485 CD B4 CC    0 5310 call __ARRAY
A488 7E          0 5311 ld a, (hl)
A489 B7          0 5312 or a
A48A CA C8 A4    0 5313 jp z, __LABEL220
A48D DD 7E 07    0 5314 ld a, (ix+7)
A490 F5          0 5315 push af
A491 21 05 00    0 5316 ld hl, 5
A494 E5          0 5317 push hl
A495 3A 1E D6    0 5318 ld a, (_enemyCount)
A498 6F          0 5319 ld l, a
A499 26 00       0 5320 ld h, 0
A49B 2B          0 5321 dec hl
A49C E5          0 5322 push hl
A49D 21 91 FA    0 5323 ld hl, _enemyStates
A4A0 CD B4 CC    0 5324 call __ARRAY
A4A3 F1          0 5325 pop af
A4A4 77          0 5326 ld (hl), a
A4A5 DD 7E 07    0 5327 ld a, (ix+7)
A4A8 C6 08       0 5328 add a, 8
A4AA F5          0 5329 push af
A4AB 21 07 00    0 5330 ld hl, 7
A4AE E5          0 5331 push hl
A4AF 3A 1E D6    0 5332 ld a, (_enemyCount)
A4B2 6F          0 5333 ld l, a
A4B3 26 00       0 5334 ld h, 0
A4B5 2B          0 5335 dec hl
A4B6 E5          0 5336 push hl
A4B7 21 91 FA    0 5337 ld hl, _enemyStates
A4BA CD B4 CC    0 5338 call __ARRAY
A4BD F1          0 5339 pop af
A4BE 77          0 5340 ld (hl), a
A4BF 21 E2 F5    0 5341 ld hl, _skh1.__DATA__
A4C2 22 56 D6    0 5342 ld (_tmpItem), hl
A4C5 C3 00 A5    0 5343 jp __LABEL221
A4C8             0 5344 __LABEL220:
A4C8 DD 7E 07    0 5345 ld a, (ix+7)
A4CB D6 08       0 5346 sub 8
A4CD F5          0 5347 push af
A4CE 21 05 00    0 5348 ld hl, 5
A4D1 E5          0 5349 push hl
A4D2 3A 1E D6    0 5350 ld a, (_enemyCount)
A4D5 6F          0 5351 ld l, a
A4D6 26 00       0 5352 ld h, 0
A4D8 2B          0 5353 dec hl
A4D9 E5          0 5354 push hl
A4DA 21 91 FA    0 5355 ld hl, _enemyStates
A4DD CD B4 CC    0 5356 call __ARRAY
A4E0 F1          0 5357 pop af
A4E1 77          0 5358 ld (hl), a
A4E2 DD 7E 07    0 5359 ld a, (ix+7)
A4E5 F5          0 5360 push af
A4E6 21 07 00    0 5361 ld hl, 7
A4E9 E5          0 5362 push hl
A4EA 3A 1E D6    0 5363 ld a, (_enemyCount)
A4ED 6F          0 5364 ld l, a
A4EE 26 00       0 5365 ld h, 0
A4F0 2B          0 5366 dec hl
A4F1 E5          0 5367 push hl
A4F2 21 91 FA    0 5368 ld hl, _enemyStates
A4F5 CD B4 CC    0 5369 call __ARRAY
A4F8 F1          0 5370 pop af
A4F9 77          0 5371 ld (hl), a
A4FA 21 F1 F5    0 5372 ld hl, _skh2.__DATA__
A4FD 22 56 D6    0 5373 ld (_tmpItem), hl
A500             0 5374 __LABEL221:
A500 3A 4D D6    0 5375 ld a, (_snakeColor)
A503 32 55 D6    0 5376 ld (_tmpColor), a
A506             0 5377 __LABEL205:
A506             0 5378 __LABEL203:
A506             0 5379 __LABEL201:
A506             0 5380 __LABEL199:
A506             0 5381 __LABEL197:
A506 3A 55 D6    0 5382 ld a, (_tmpColor)
A509 6F          0 5383 ld l, a
A50A 26 00       0 5384 ld h, 0
A50C E5          0 5385 push hl
A50D DD 7E 07    0 5386 ld a, (ix+7)
A510 6F          0 5387 ld l, a
A511 26 00       0 5388 ld h, 0
A513 E5          0 5389 push hl
A514 DD 7E 09    0 5390 ld a, (ix+9)
A517 6F          0 5391 ld l, a
A518 26 00       0 5392 ld h, 0
A51A E5          0 5393 push hl
A51B 2A 56 D6    0 5394 ld hl, (_tmpItem)
A51E CD 6D 8B    0 5395 call _drawColorSprite
A521 C3 05 A7    0 5396 jp __LABEL195
A524             0 5397 __LABEL194:
A524 DD 7E 05    0 5398 ld a, (ix+5)
A527 D6 07       0 5399 sub 7
A529 D6 01       0 5400 sub 1
A52B 9F          0 5401 sbc a, a
A52C CD 65 D5    0 5402 call __NORMALIZE_BOOLEAN
A52F B7          0 5403 or a
A530 CA EA A5    0 5404 jp z, __LABEL222
A533 21 1E D6    0 5405 ld hl, _enemyCount
A536 34          0 5406 inc (hl)
A537 DD 7E 05    0 5407 ld a, (ix+5)
A53A F5          0 5408 push af
A53B 21 00 00    0 5409 ld hl, 0
A53E E5          0 5410 push hl
A53F 3A 1E D6    0 5411 ld a, (_enemyCount)
A542 6F          0 5412 ld l, a
A543 26 00       0 5413 ld h, 0
A545 2B          0 5414 dec hl
A546 E5          0 5415 push hl
A547 21 91 FA    0 5416 ld hl, _enemyStates
A54A CD B4 CC    0 5417 call __ARRAY
A54D F1          0 5418 pop af
A54E 77          0 5419 ld (hl), a
A54F DD 7E 07    0 5420 ld a, (ix+7)
A552 F5          0 5421 push af
A553 21 01 00    0 5422 ld hl, 1
A556 E5          0 5423 push hl
A557 3A 1E D6    0 5424 ld a, (_enemyCount)
A55A 6F          0 5425 ld l, a
A55B 26 00       0 5426 ld h, 0
A55D 2B          0 5427 dec hl
A55E E5          0 5428 push hl
A55F 21 91 FA    0 5429 ld hl, _enemyStates
A562 CD B4 CC    0 5430 call __ARRAY
A565 F1          0 5431 pop af
A566 77          0 5432 ld (hl), a
A567 DD 7E 09    0 5433 ld a, (ix+9)
A56A F5          0 5434 push af
A56B 21 02 00    0 5435 ld hl, 2
A56E E5          0 5436 push hl
A56F 3A 1E D6    0 5437 ld a, (_enemyCount)
A572 6F          0 5438 ld l, a
A573 26 00       0 5439 ld h, 0
A575 2B          0 5440 dec hl
A576 E5          0 5441 push hl
A577 21 91 FA    0 5442 ld hl, _enemyStates
A57A CD B4 CC    0 5443 call __ARRAY
A57D F1          0 5444 pop af
A57E 77          0 5445 ld (hl), a
A57F 21 03 00    0 5446 ld hl, 3
A582 E5          0 5447 push hl
A583 3A 1E D6    0 5448 ld a, (_enemyCount)
A586 6F          0 5449 ld l, a
A587 26 00       0 5450 ld h, 0
A589 2B          0 5451 dec hl
A58A E5          0 5452 push hl
A58B 21 91 FA    0 5453 ld hl, _enemyStates
A58E CD B4 CC    0 5454 call __ARRAY
A591 36 00       0 5455 ld (hl), 0
A593 21 04 00    0 5456 ld hl, 4
A596 E5          0 5457 push hl
A597 3A 1E D6    0 5458 ld a, (_enemyCount)
A59A 6F          0 5459 ld l, a
A59B 26 00       0 5460 ld h, 0
A59D 2B          0 5461 dec hl
A59E E5          0 5462 push hl
A59F 21 91 FA    0 5463 ld hl, _enemyStates
A5A2 CD B4 CC    0 5464 call __ARRAY
A5A5 36 3C       0 5465 ld (hl), 60
A5A7 21 05 00    0 5466 ld hl, 5
A5AA E5          0 5467 push hl
A5AB 3A 1E D6    0 5468 ld a, (_enemyCount)
A5AE 6F          0 5469 ld l, a
A5AF 26 00       0 5470 ld h, 0
A5B1 2B          0 5471 dec hl
A5B2 E5          0 5472 push hl
A5B3 21 91 FA    0 5473 ld hl, _enemyStates
A5B6 CD B4 CC    0 5474 call __ARRAY
A5B9 36 01       0 5475 ld (hl), 1
A5BB 21 06 00    0 5476 ld hl, 6
A5BE E5          0 5477 push hl
A5BF 3A 1E D6    0 5478 ld a, (_enemyCount)
A5C2 6F          0 5479 ld l, a
A5C3 26 00       0 5480 ld h, 0
A5C5 2B          0 5481 dec hl
A5C6 E5          0 5482 push hl
A5C7 21 91 FA    0 5483 ld hl, _enemyStates
A5CA CD B4 CC    0 5484 call __ARRAY
A5CD 36 00       0 5485 ld (hl), 0
A5CF AF          0 5486 xor a
A5D0 F5          0 5487 push af
A5D1 AF          0 5488 xor a
A5D2 F5          0 5489 push af
A5D3 3A 3A D6    0 5490 ld a, (_emptyAttrib)
A5D6 E6 38       0 5491 and 56
A5D8 CB 3F       0 5492 srl a
A5DA CB 3F       0 5493 srl a
A5DC CB 3F       0 5494 srl a
A5DE F5          0 5495 push af
A5DF 3E 04       0 5496 ld a, 4
A5E1 CD C8 89    0 5497 call _createAttrib
A5E4 32 4F D6    0 5498 ld (_crocoColor), a
A5E7 C3 05 A7    0 5499 jp __LABEL223
A5EA             0 5500 __LABEL222:
A5EA DD 7E 05    0 5501 ld a, (ix+5)
A5ED D6 08       0 5502 sub 8
A5EF D6 01       0 5503 sub 1
A5F1 9F          0 5504 sbc a, a
A5F2 CD 65 D5    0 5505 call __NORMALIZE_BOOLEAN
A5F5 B7          0 5506 or a
A5F6 CA 8E A6    0 5507 jp z, __LABEL224
A5F9 DD 7E 07    0 5508 ld a, (ix+7)
A5FC 32 20 D6    0 5509 ld (_lampX), a
A5FF DD 7E 09    0 5510 ld a, (ix+9)
A602 32 21 D6    0 5511 ld (_lampY), a
A605 DD 7E 09    0 5512 ld a, (ix+9)
A608 26 08       0 5513 ld h, 8
A60A CD 30 D2    0 5514 call __DIVU8_FAST
A60D C6 05       0 5515 add a, 5
A60F 6F          0 5516 ld l, a
A610 26 00       0 5517 ld h, 0
A612 2B          0 5518 dec hl
A613 E5          0 5519 push hl
A614 DD 7E 07    0 5520 ld a, (ix+7)
A617 26 08       0 5521 ld h, 8
A619 CD 30 D2    0 5522 call __DIVU8_FAST
A61C C6 02       0 5523 add a, 2
A61E 6F          0 5524 ld l, a
A61F 26 00       0 5525 ld h, 0
A621 2B          0 5526 dec hl
A622 E5          0 5527 push hl
A623 21 9F F8    0 5528 ld hl, _solidMap
A626 CD B4 CC    0 5529 call __ARRAY
A629 7E          0 5530 ld a, (hl)
A62A B7          0 5531 or a
A62B CA 5E A6    0 5532 jp z, __LABEL226
A62E AF          0 5533 xor a
A62F F5          0 5534 push af
A630 AF          0 5535 xor a
A631 F5          0 5536 push af
A632 3A 3A D6    0 5537 ld a, (_emptyAttrib)
A635 E6 38       0 5538 and 56
A637 CB 3F       0 5539 srl a
A639 CB 3F       0 5540 srl a
A63B CB 3F       0 5541 srl a
A63D F5          0 5542 push af
A63E 3E 06       0 5543 ld a, 6
A640 CD C8 89    0 5544 call _createAttrib
A643 6F          0 5545 ld l, a
A644 26 00       0 5546 ld h, 0
A646 E5          0 5547 push hl
A647 DD 7E 07    0 5548 ld a, (ix+7)
A64A 6F          0 5549 ld l, a
A64B 26 00       0 5550 ld h, 0
A64D E5          0 5551 push hl
A64E DD 7E 09    0 5552 ld a, (ix+9)
A651 6F          0 5553 ld l, a
A652 26 00       0 5554 ld h, 0
A654 E5          0 5555 push hl
A655 21 97 F5    0 5556 ld hl, _lampl.__DATA__
A658 CD 6D 8B    0 5557 call _drawColorSprite
A65B C3 8B A6    0 5558 jp __LABEL227
A65E             0 5559 __LABEL226:
A65E AF          0 5560 xor a
A65F F5          0 5561 push af
A660 AF          0 5562 xor a
A661 F5          0 5563 push af
A662 3A 3A D6    0 5564 ld a, (_emptyAttrib)
A665 E6 38       0 5565 and 56
A667 CB 3F       0 5566 srl a
A669 CB 3F       0 5567 srl a
A66B CB 3F       0 5568 srl a
A66D F5          0 5569 push af
A66E 3E 06       0 5570 ld a, 6
A670 CD C8 89    0 5571 call _createAttrib
A673 6F          0 5572 ld l, a
A674 26 00       0 5573 ld h, 0
A676 E5          0 5574 push hl
A677 DD 7E 07    0 5575 ld a, (ix+7)
A67A 6F          0 5576 ld l, a
A67B 26 00       0 5577 ld h, 0
A67D E5          0 5578 push hl
A67E DD 7E 09    0 5579 ld a, (ix+9)
A681 6F          0 5580 ld l, a
A682 26 00       0 5581 ld h, 0
A684 E5          0 5582 push hl
A685 21 A6 F5    0 5583 ld hl, _lampr.__DATA__
A688 CD 6D 8B    0 5584 call _drawColorSprite
A68B             0 5585 __LABEL227:
A68B C3 05 A7    0 5586 jp __LABEL225
A68E             0 5587 __LABEL224:
A68E DD 7E 05    0 5588 ld a, (ix+5)
A691 D6 09       0 5589 sub 9
A693 D6 01       0 5590 sub 1
A695 9F          0 5591 sbc a, a
A696 CD 65 D5    0 5592 call __NORMALIZE_BOOLEAN
A699 B7          0 5593 or a
A69A CA 05 A7    0 5594 jp z, __LABEL229
A69D DD 7E 07    0 5595 ld a, (ix+7)
A6A0 32 45 D6    0 5596 ld (_personX), a
A6A3 DD 7E 09    0 5597 ld a, (ix+9)
A6A6 32 46 D6    0 5598 ld (_personY), a
A6A9 AF          0 5599 xor a
A6AA F5          0 5600 push af
A6AB AF          0 5601 xor a
A6AC F5          0 5602 push af
A6AD 3A 3A D6    0 5603 ld a, (_emptyAttrib)
A6B0 E6 38       0 5604 and 56
A6B2 CB 3F       0 5605 srl a
A6B4 CB 3F       0 5606 srl a
A6B6 CB 3F       0 5607 srl a
A6B8 F5          0 5608 push af
A6B9 3E 07       0 5609 ld a, 7
A6BB CD C8 89    0 5610 call _createAttrib
A6BE 6F          0 5611 ld l, a
A6BF 26 00       0 5612 ld h, 0
A6C1 E5          0 5613 push hl
A6C2 DD 7E 07    0 5614 ld a, (ix+7)
A6C5 6F          0 5615 ld l, a
A6C6 26 00       0 5616 ld h, 0
A6C8 E5          0 5617 push hl
A6C9 DD 7E 09    0 5618 ld a, (ix+9)
A6CC 6F          0 5619 ld l, a
A6CD 26 00       0 5620 ld h, 0
A6CF E5          0 5621 push hl
A6D0 21 76 F8    0 5622 ld hl, _personT.__DATA__
A6D3 CD 6D 8B    0 5623 call _drawColorSprite
A6D6 AF          0 5624 xor a
A6D7 F5          0 5625 push af
A6D8 AF          0 5626 xor a
A6D9 F5          0 5627 push af
A6DA 3A 3A D6    0 5628 ld a, (_emptyAttrib)
A6DD E6 38       0 5629 and 56
A6DF CB 3F       0 5630 srl a
A6E1 CB 3F       0 5631 srl a
A6E3 CB 3F       0 5632 srl a
A6E5 F5          0 5633 push af
A6E6 3E 07       0 5634 ld a, 7
A6E8 CD C8 89    0 5635 call _createAttrib
A6EB 6F          0 5636 ld l, a
A6EC 26 00       0 5637 ld h, 0
A6EE E5          0 5638 push hl
A6EF DD 7E 07    0 5639 ld a, (ix+7)
A6F2 6F          0 5640 ld l, a
A6F3 26 00       0 5641 ld h, 0
A6F5 E5          0 5642 push hl
A6F6 DD 7E 09    0 5643 ld a, (ix+9)
A6F9 C6 08       0 5644 add a, 8
A6FB 6F          0 5645 ld l, a
A6FC 26 00       0 5646 ld h, 0
A6FE E5          0 5647 push hl
A6FF 21 85 F8    0 5648 ld hl, _personB.__DATA__
A702 CD 6D 8B    0 5649 call _drawColorSprite
A705             0 5650 __LABEL229:
A705             0 5651 __LABEL225:
A705             0 5652 __LABEL223:
A705             0 5653 __LABEL195:
A705             0 5654 _loadItem__leave:
A705 DD F9       0 5655 ld sp, ix
A707 DD E1       0 5656 pop ix
A709 D9          0 5657 exx
A70A E1          0 5658 pop hl
A70B C1          0 5659 pop bc
A70C C1          0 5660 pop bc
A70D E3          0 5661 ex (sp), hl
A70E D9          0 5662 exx
A70F C9          0 5663 ret
A710             0 5664 _checkPlayerCollision:
A710 DD E5       0 5665 push ix
A712 DD 21 00 00 0 5666 ld ix, 0
A716 DD 39       0 5667 add ix, sp
A718 DD 7E 05    0 5668 ld a, (ix+5)
A71B C6 08       0 5669 add a, 8
A71D 67          0 5670 ld h, a
A71E 3A 25 D6    0 5671 ld a, (_playerX)
A721 BC          0 5672 cp h
A722 9F          0 5673 sbc a, a
A723 CD 65 D5    0 5674 call __NORMALIZE_BOOLEAN
A726 F5          0 5675 push af
A727 3A 25 D6    0 5676 ld a, (_playerX)
A72A C6 08       0 5677 add a, 8
A72C F5          0 5678 push af
A72D DD 7E 05    0 5679 ld a, (ix+5)
A730 E1          0 5680 pop hl
A731 BC          0 5681 cp h
A732 9F          0 5682 sbc a, a
A733 CD 65 D5    0 5683 call __NORMALIZE_BOOLEAN
A736 67          0 5684 ld h, a
A737 F1          0 5685 pop af
A738 B7          0 5686 or a
A739 28 01       0 5687 jr z, __LABEL701
A73B 7C          0 5688 ld a, h
A73C             0 5689 __LABEL701:
A73C CD 65 D5    0 5690 call __NORMALIZE_BOOLEAN
A73F F5          0 5691 push af
A740 DD 7E 07    0 5692 ld a, (ix+7)
A743 C6 08       0 5693 add a, 8
A745 67          0 5694 ld h, a
A746 3A 26 D6    0 5695 ld a, (_playerY)
A749 BC          0 5696 cp h
A74A 9F          0 5697 sbc a, a
A74B CD 65 D5    0 5698 call __NORMALIZE_BOOLEAN
A74E 67          0 5699 ld h, a
A74F F1          0 5700 pop af
A750 B7          0 5701 or a
A751 28 01       0 5702 jr z, __LABEL702
A753 7C          0 5703 ld a, h
A754             0 5704 __LABEL702:
A754 CD 65 D5    0 5705 call __NORMALIZE_BOOLEAN
A757 F5          0 5706 push af
A758 3A 26 D6    0 5707 ld a, (_playerY)
A75B C6 10       0 5708 add a, 16
A75D F5          0 5709 push af
A75E DD 7E 07    0 5710 ld a, (ix+7)
A761 E1          0 5711 pop hl
A762 BC          0 5712 cp h
A763 9F          0 5713 sbc a, a
A764 CD 65 D5    0 5714 call __NORMALIZE_BOOLEAN
A767 67          0 5715 ld h, a
A768 F1          0 5716 pop af
A769 B7          0 5717 or a
A76A 28 01       0 5718 jr z, __LABEL703
A76C 7C          0 5719 ld a, h
A76D             0 5720 __LABEL703:
A76D CD 65 D5    0 5721 call __NORMALIZE_BOOLEAN
A770 B7          0 5722 or a
A771 CA 79 A7    0 5723 jp z, __LABEL231
A774 3E 01       0 5724 ld a, 1
A776 C3 7A A7    0 5725 jp _checkPlayerCollision__leave
A779             0 5726 __LABEL231:
A779 AF          0 5727 xor a
A77A             0 5728 _checkPlayerCollision__leave:
A77A DD F9       0 5729 ld sp, ix
A77C DD E1       0 5730 pop ix
A77E D9          0 5731 exx
A77F E1          0 5732 pop hl
A780 C1          0 5733 pop bc
A781 E3          0 5734 ex (sp), hl
A782 D9          0 5735 exx
A783 C9          0 5736 ret
A784             0 5737 _moveEnemy:
A784 DD E5       0 5738 push ix
A786 DD 21 00 00 0 5739 ld ix, 0
A78A DD 39       0 5740 add ix, sp
A78C 21 01 00    0 5741 ld hl, 1
A78F E5          0 5742 push hl
A790 DD 7E 05    0 5743 ld a, (ix+5)
A793 6F          0 5744 ld l, a
A794 26 00       0 5745 ld h, 0
A796 2B          0 5746 dec hl
A797 E5          0 5747 push hl
A798 21 91 FA    0 5748 ld hl, _enemyStates
A79B CD B4 CC    0 5749 call __ARRAY
A79E 7E          0 5750 ld a, (hl)
A79F 32 3B D6    0 5751 ld (_tmpX), a
A7A2 21 02 00    0 5752 ld hl, 2
A7A5 E5          0 5753 push hl
A7A6 DD 7E 05    0 5754 ld a, (ix+5)
A7A9 6F          0 5755 ld l, a
A7AA 26 00       0 5756 ld h, 0
A7AC 2B          0 5757 dec hl
A7AD E5          0 5758 push hl
A7AE 21 91 FA    0 5759 ld hl, _enemyStates
A7B1 CD B4 CC    0 5760 call __ARRAY
A7B4 7E          0 5761 ld a, (hl)
A7B5 32 3C D6    0 5762 ld (_tmpY), a
A7B8 21 03 00    0 5763 ld hl, 3
A7BB E5          0 5764 push hl
A7BC DD 7E 05    0 5765 ld a, (ix+5)
A7BF 6F          0 5766 ld l, a
A7C0 26 00       0 5767 ld h, 0
A7C2 2B          0 5768 dec hl
A7C3 E5          0 5769 push hl
A7C4 21 91 FA    0 5770 ld hl, _enemyStates
A7C7 CD B4 CC    0 5771 call __ARRAY
A7CA 3A 3B D6    0 5772 ld a, (_tmpX)
A7CD 77          0 5773 ld (hl), a
A7CE 21 04 00    0 5774 ld hl, 4
A7D1 E5          0 5775 push hl
A7D2 DD 7E 05    0 5776 ld a, (ix+5)
A7D5 6F          0 5777 ld l, a
A7D6 26 00       0 5778 ld h, 0
A7D8 2B          0 5779 dec hl
A7D9 E5          0 5780 push hl
A7DA 21 91 FA    0 5781 ld hl, _enemyStates
A7DD CD B4 CC    0 5782 call __ARRAY
A7E0 3A 3C D6    0 5783 ld a, (_tmpY)
A7E3 77          0 5784 ld (hl), a
A7E4 21 09 00    0 5785 ld hl, 9
A7E7 E5          0 5786 push hl
A7E8 DD 7E 05    0 5787 ld a, (ix+5)
A7EB 6F          0 5788 ld l, a
A7EC 26 00       0 5789 ld h, 0
A7EE 2B          0 5790 dec hl
A7EF E5          0 5791 push hl
A7F0 21 91 FA    0 5792 ld hl, _enemyStates
A7F3 CD B4 CC    0 5793 call __ARRAY
A7F6 7E          0 5794 ld a, (hl)
A7F7 32 3E D6    0 5795 ld (_tmpDisplace), a
A7FA 3A 3B D6    0 5796 ld a, (_tmpX)
A7FD 67          0 5797 ld h, a
A7FE 3A 3E D6    0 5798 ld a, (_tmpDisplace)
A801 84          0 5799 add a, h
A802 32 3B D6    0 5800 ld (_tmpX), a
A805 21 05 00    0 5801 ld hl, 5
A808 E5          0 5802 push hl
A809 DD 7E 05    0 5803 ld a, (ix+5)
A80C 6F          0 5804 ld l, a
A80D 26 00       0 5805 ld h, 0
A80F 2B          0 5806 dec hl
A810 E5          0 5807 push hl
A811 21 91 FA    0 5808 ld hl, _enemyStates
A814 CD B4 CC    0 5809 call __ARRAY
A817 3A 3B D6    0 5810 ld a, (_tmpX)
A81A BE          0 5811 cp (hl)
A81B 9F          0 5812 sbc a, a
A81C CD 65 D5    0 5813 call __NORMALIZE_BOOLEAN
A81F F5          0 5814 push af
A820 21 07 00    0 5815 ld hl, 7
A823 E5          0 5816 push hl
A824 DD 7E 05    0 5817 ld a, (ix+5)
A827 6F          0 5818 ld l, a
A828 26 00       0 5819 ld h, 0
A82A 2B          0 5820 dec hl
A82B E5          0 5821 push hl
A82C 21 91 FA    0 5822 ld hl, _enemyStates
A82F CD B4 CC    0 5823 call __ARRAY
A832 7E          0 5824 ld a, (hl)
A833 2A 3A D6    0 5825 ld hl, (_tmpX - 1)
A836 BC          0 5826 cp h
A837 9F          0 5827 sbc a, a
A838 CD 65 D5    0 5828 call __NORMALIZE_BOOLEAN
A83B D1          0 5829 pop de
A83C B2          0 5830 or d
A83D CD 65 D5    0 5831 call __NORMALIZE_BOOLEAN
A840 B7          0 5832 or a
A841 CA 6F A8    0 5833 jp z, __LABEL233
A844 3A 3B D6    0 5834 ld a, (_tmpX)
A847 F5          0 5835 push af
A848 2A 3D D6    0 5836 ld hl, (_tmpDisplace - 1)
A84B 3A 3E D6    0 5837 ld a, (_tmpDisplace)
A84E 84          0 5838 add a, h
A84F 67          0 5839 ld h, a
A850 F1          0 5840 pop af
A851 94          0 5841 sub h
A852 32 3B D6    0 5842 ld (_tmpX), a
A855 3A 3E D6    0 5843 ld a, (_tmpDisplace)
A858 ED 44       0 5844 neg
A85A F5          0 5845 push af
A85B 21 09 00    0 5846 ld hl, 9
A85E E5          0 5847 push hl
A85F DD 7E 05    0 5848 ld a, (ix+5)
A862 6F          0 5849 ld l, a
A863 26 00       0 5850 ld h, 0
A865 2B          0 5851 dec hl
A866 E5          0 5852 push hl
A867 21 91 FA    0 5853 ld hl, _enemyStates
A86A CD B4 CC    0 5854 call __ARRAY
A86D F1          0 5855 pop af
A86E 77          0 5856 ld (hl), a
A86F             0 5857 __LABEL233:
A86F 21 0A 00    0 5858 ld hl, 10
A872 E5          0 5859 push hl
A873 DD 7E 05    0 5860 ld a, (ix+5)
A876 6F          0 5861 ld l, a
A877 26 00       0 5862 ld h, 0
A879 2B          0 5863 dec hl
A87A E5          0 5864 push hl
A87B 21 91 FA    0 5865 ld hl, _enemyStates
A87E CD B4 CC    0 5866 call __ARRAY
A881 7E          0 5867 ld a, (hl)
A882 32 3E D6    0 5868 ld (_tmpDisplace), a
A885 3A 3C D6    0 5869 ld a, (_tmpY)
A888 67          0 5870 ld h, a
A889 3A 3E D6    0 5871 ld a, (_tmpDisplace)
A88C 84          0 5872 add a, h
A88D 32 3C D6    0 5873 ld (_tmpY), a
A890 21 06 00    0 5874 ld hl, 6
A893 E5          0 5875 push hl
A894 DD 7E 05    0 5876 ld a, (ix+5)
A897 6F          0 5877 ld l, a
A898 26 00       0 5878 ld h, 0
A89A 2B          0 5879 dec hl
A89B E5          0 5880 push hl
A89C 21 91 FA    0 5881 ld hl, _enemyStates
A89F CD B4 CC    0 5882 call __ARRAY
A8A2 3A 3C D6    0 5883 ld a, (_tmpY)
A8A5 BE          0 5884 cp (hl)
A8A6 9F          0 5885 sbc a, a
A8A7 CD 65 D5    0 5886 call __NORMALIZE_BOOLEAN
A8AA F5          0 5887 push af
A8AB 21 08 00    0 5888 ld hl, 8
A8AE E5          0 5889 push hl
A8AF DD 7E 05    0 5890 ld a, (ix+5)
A8B2 6F          0 5891 ld l, a
A8B3 26 00       0 5892 ld h, 0
A8B5 2B          0 5893 dec hl
A8B6 E5          0 5894 push hl
A8B7 21 91 FA    0 5895 ld hl, _enemyStates
A8BA CD B4 CC    0 5896 call __ARRAY
A8BD 7E          0 5897 ld a, (hl)
A8BE 2A 3B D6    0 5898 ld hl, (_tmpY - 1)
A8C1 BC          0 5899 cp h
A8C2 9F          0 5900 sbc a, a
A8C3 CD 65 D5    0 5901 call __NORMALIZE_BOOLEAN
A8C6 D1          0 5902 pop de
A8C7 B2          0 5903 or d
A8C8 CD 65 D5    0 5904 call __NORMALIZE_BOOLEAN
A8CB B7          0 5905 or a
A8CC CA FA A8    0 5906 jp z, __LABEL235
A8CF 3A 3C D6    0 5907 ld a, (_tmpY)
A8D2 F5          0 5908 push af
A8D3 2A 3D D6    0 5909 ld hl, (_tmpDisplace - 1)
A8D6 3A 3E D6    0 5910 ld a, (_tmpDisplace)
A8D9 84          0 5911 add a, h
A8DA 67          0 5912 ld h, a
A8DB F1          0 5913 pop af
A8DC 94          0 5914 sub h
A8DD 32 3C D6    0 5915 ld (_tmpY), a
A8E0 3A 3E D6    0 5916 ld a, (_tmpDisplace)
A8E3 ED 44       0 5917 neg
A8E5 F5          0 5918 push af
A8E6 21 0A 00    0 5919 ld hl, 10
A8E9 E5          0 5920 push hl
A8EA DD 7E 05    0 5921 ld a, (ix+5)
A8ED 6F          0 5922 ld l, a
A8EE 26 00       0 5923 ld h, 0
A8F0 2B          0 5924 dec hl
A8F1 E5          0 5925 push hl
A8F2 21 91 FA    0 5926 ld hl, _enemyStates
A8F5 CD B4 CC    0 5927 call __ARRAY
A8F8 F1          0 5928 pop af
A8F9 77          0 5929 ld (hl), a
A8FA             0 5930 __LABEL235:
A8FA 21 01 00    0 5931 ld hl, 1
A8FD E5          0 5932 push hl
A8FE DD 7E 05    0 5933 ld a, (ix+5)
A901 6F          0 5934 ld l, a
A902 26 00       0 5935 ld h, 0
A904 2B          0 5936 dec hl
A905 E5          0 5937 push hl
A906 21 91 FA    0 5938 ld hl, _enemyStates
A909 CD B4 CC    0 5939 call __ARRAY
A90C 3A 3B D6    0 5940 ld a, (_tmpX)
A90F 77          0 5941 ld (hl), a
A910 21 02 00    0 5942 ld hl, 2
A913 E5          0 5943 push hl
A914 DD 7E 05    0 5944 ld a, (ix+5)
A917 6F          0 5945 ld l, a
A918 26 00       0 5946 ld h, 0
A91A 2B          0 5947 dec hl
A91B E5          0 5948 push hl
A91C 21 91 FA    0 5949 ld hl, _enemyStates
A91F CD B4 CC    0 5950 call __ARRAY
A922 3A 3C D6    0 5951 ld a, (_tmpY)
A925 77          0 5952 ld (hl), a
A926 3A 3C D6    0 5953 ld a, (_tmpY)
A929 F5          0 5954 push af
A92A 3A 3B D6    0 5955 ld a, (_tmpX)
A92D F5          0 5956 push af
A92E CD 10 A7    0 5957 call _checkPlayerCollision
A931             0 5958 _moveEnemy__leave:
A931 DD F9       0 5959 ld sp, ix
A933 DD E1       0 5960 pop ix
A935 D9          0 5961 exx
A936 E1          0 5962 pop hl
A937 E3          0 5963 ex (sp), hl
A938 D9          0 5964 exx
A939 C9          0 5965 ret
A93A             0 5966 _updateCrocodile:
A93A DD E5       0 5967 push ix
A93C DD 21 00 00 0 5968 ld ix, 0
A940 DD 39       0 5969 add ix, sp
A942 21 04 00    0 5970 ld hl, 4
A945 E5          0 5971 push hl
A946 DD 7E 05    0 5972 ld a, (ix+5)
A949 6F          0 5973 ld l, a
A94A 26 00       0 5974 ld h, 0
A94C 2B          0 5975 dec hl
A94D E5          0 5976 push hl
A94E 21 91 FA    0 5977 ld hl, _enemyStates
A951 CD B4 CC    0 5978 call __ARRAY
A954 7E          0 5979 ld a, (hl)
A955 32 3B D6    0 5980 ld (_tmpX), a
A958 21 03 00    0 5981 ld hl, 3
A95B E5          0 5982 push hl
A95C DD 7E 05    0 5983 ld a, (ix+5)
A95F 6F          0 5984 ld l, a
A960 26 00       0 5985 ld h, 0
A962 2B          0 5986 dec hl
A963 E5          0 5987 push hl
A964 21 91 FA    0 5988 ld hl, _enemyStates
A967 CD B4 CC    0 5989 call __ARRAY
A96A 7E          0 5990 ld a, (hl)
A96B 32 3C D6    0 5991 ld (_tmpY), a
A96E 21 07 00    0 5992 ld hl, 7
A971 E5          0 5993 push hl
A972 DD 7E 05    0 5994 ld a, (ix+5)
A975 6F          0 5995 ld l, a
A976 26 00       0 5996 ld h, 0
A978 2B          0 5997 dec hl
A979 E5          0 5998 push hl
A97A 21 91 FA    0 5999 ld hl, _enemyStates
A97D CD B4 CC    0 6000 call __ARRAY
A980 3A 3C D6    0 6001 ld a, (_tmpY)
A983 77          0 6002 ld (hl), a
A984 21 3B D6    0 6003 ld hl, _tmpX
A987 35          0 6004 dec (hl)
A988 3A 3B D6    0 6005 ld a, (_tmpX)
A98B D6 01       0 6006 sub 1
A98D 9F          0 6007 sbc a, a
A98E CD 65 D5    0 6008 call __NORMALIZE_BOOLEAN
A991 B7          0 6009 or a
A992 CA 71 AA    0 6010 jp z, __LABEL237
A995 3A 3C D6    0 6011 ld a, (_tmpY)
A998 D6 01       0 6012 sub 1
A99A 9F          0 6013 sbc a, a
A99B CD 65 D5    0 6014 call __NORMALIZE_BOOLEAN
A99E B7          0 6015 or a
A99F CA D7 A9    0 6016 jp z, __LABEL238
A9A2 3E 01       0 6017 ld a, 1
A9A4 32 3C D6    0 6018 ld (_tmpY), a
A9A7 3E 1E       0 6019 ld a, 30
A9A9 32 3B D6    0 6020 ld (_tmpX), a
A9AC 21 05 00    0 6021 ld hl, 5
A9AF E5          0 6022 push hl
A9B0 DD 7E 05    0 6023 ld a, (ix+5)
A9B3 6F          0 6024 ld l, a
A9B4 26 00       0 6025 ld h, 0
A9B6 2B          0 6026 dec hl
A9B7 E5          0 6027 push hl
A9B8 21 91 FA    0 6028 ld hl, _enemyStates
A9BB CD B4 CC    0 6029 call __ARRAY
A9BE 36 01       0 6030 ld (hl), 1
A9C0 21 06 00    0 6031 ld hl, 6
A9C3 E5          0 6032 push hl
A9C4 DD 7E 05    0 6033 ld a, (ix+5)
A9C7 6F          0 6034 ld l, a
A9C8 26 00       0 6035 ld h, 0
A9CA 2B          0 6036 dec hl
A9CB E5          0 6037 push hl
A9CC 21 91 FA    0 6038 ld hl, _enemyStates
A9CF CD B4 CC    0 6039 call __ARRAY
A9D2 36 01       0 6040 ld (hl), 1
A9D4 C3 5B AA    0 6041 jp __LABEL239
A9D7             0 6042 __LABEL238:
A9D7 3A 3C D6    0 6043 ld a, (_tmpY)
A9DA 3D          0 6044 dec a
A9DB D6 01       0 6045 sub 1
A9DD 9F          0 6046 sbc a, a
A9DE CD 65 D5    0 6047 call __NORMALIZE_BOOLEAN
A9E1 B7          0 6048 or a
A9E2 CA 29 AA    0 6049 jp z, __LABEL240
A9E5 21 05 00    0 6050 ld hl, 5
A9E8 E5          0 6051 push hl
A9E9 DD 7E 05    0 6052 ld a, (ix+5)
A9EC 6F          0 6053 ld l, a
A9ED 26 00       0 6054 ld h, 0
A9EF 2B          0 6055 dec hl
A9F0 E5          0 6056 push hl
A9F1 21 91 FA    0 6057 ld hl, _enemyStates
A9F4 CD B4 CC    0 6058 call __ARRAY
A9F7 7E          0 6059 ld a, (hl)
A9F8 B7          0 6060 or a
A9F9 CA 1D AA    0 6061 jp z, __LABEL242
A9FC 3E 02       0 6062 ld a, 2
A9FE 32 3C D6    0 6063 ld (_tmpY), a
AA01 3E 0A       0 6064 ld a, 10
AA03 32 3B D6    0 6065 ld (_tmpX), a
AA06 21 06 00    0 6066 ld hl, 6
AA09 E5          0 6067 push hl
AA0A DD 7E 05    0 6068 ld a, (ix+5)
AA0D 6F          0 6069 ld l, a
AA0E 26 00       0 6070 ld h, 0
AA10 2B          0 6071 dec hl
AA11 E5          0 6072 push hl
AA12 21 91 FA    0 6073 ld hl, _enemyStates
AA15 CD B4 CC    0 6074 call __ARRAY
AA18 36 01       0 6075 ld (hl), 1
AA1A C3 26 AA    0 6076 jp __LABEL243
AA1D             0 6077 __LABEL242:
AA1D AF          0 6078 xor a
AA1E 32 3C D6    0 6079 ld (_tmpY), a
AA21 3E 3C       0 6080 ld a, 60
AA23 32 3B D6    0 6081 ld (_tmpX), a
AA26             0 6082 __LABEL243:
AA26 C3 5B AA    0 6083 jp __LABEL241
AA29             0 6084 __LABEL240:
AA29 3E 01       0 6085 ld a, 1
AA2B 32 3C D6    0 6086 ld (_tmpY), a
AA2E 3E 1E       0 6087 ld a, 30
AA30 32 3B D6    0 6088 ld (_tmpX), a
AA33 21 05 00    0 6089 ld hl, 5
AA36 E5          0 6090 push hl
AA37 DD 7E 05    0 6091 ld a, (ix+5)
AA3A 6F          0 6092 ld l, a
AA3B 26 00       0 6093 ld h, 0
AA3D 2B          0 6094 dec hl
AA3E E5          0 6095 push hl
AA3F 21 91 FA    0 6096 ld hl, _enemyStates
AA42 CD B4 CC    0 6097 call __ARRAY
AA45 36 00       0 6098 ld (hl), 0
AA47 21 06 00    0 6099 ld hl, 6
AA4A E5          0 6100 push hl
AA4B DD 7E 05    0 6101 ld a, (ix+5)
AA4E 6F          0 6102 ld l, a
AA4F 26 00       0 6103 ld h, 0
AA51 2B          0 6104 dec hl
AA52 E5          0 6105 push hl
AA53 21 91 FA    0 6106 ld hl, _enemyStates
AA56 CD B4 CC    0 6107 call __ARRAY
AA59 36 01       0 6108 ld (hl), 1
AA5B             0 6109 __LABEL241:
AA5B             0 6110 __LABEL239:
AA5B 21 03 00    0 6111 ld hl, 3
AA5E E5          0 6112 push hl
AA5F DD 7E 05    0 6113 ld a, (ix+5)
AA62 6F          0 6114 ld l, a
AA63 26 00       0 6115 ld h, 0
AA65 2B          0 6116 dec hl
AA66 E5          0 6117 push hl
AA67 21 91 FA    0 6118 ld hl, _enemyStates
AA6A CD B4 CC    0 6119 call __ARRAY
AA6D 3A 3C D6    0 6120 ld a, (_tmpY)
AA70 77          0 6121 ld (hl), a
AA71             0 6122 __LABEL237:
AA71 21 04 00    0 6123 ld hl, 4
AA74 E5          0 6124 push hl
AA75 DD 7E 05    0 6125 ld a, (ix+5)
AA78 6F          0 6126 ld l, a
AA79 26 00       0 6127 ld h, 0
AA7B 2B          0 6128 dec hl
AA7C E5          0 6129 push hl
AA7D 21 91 FA    0 6130 ld hl, _enemyStates
AA80 CD B4 CC    0 6131 call __ARRAY
AA83 3A 3B D6    0 6132 ld a, (_tmpX)
AA86 77          0 6133 ld (hl), a
AA87 3A 3C D6    0 6134 ld a, (_tmpY)
AA8A D6 01       0 6135 sub 1
AA8C 9F          0 6136 sbc a, a
AA8D CD 65 D5    0 6137 call __NORMALIZE_BOOLEAN
AA90 B7          0 6138 or a
AA91 CA 98 AA    0 6139 jp z, __LABEL245
AA94 AF          0 6140 xor a
AA95 C3 49 AB    0 6141 jp _updateCrocodile__leave
AA98             0 6142 __LABEL245:
AA98 21 01 00    0 6143 ld hl, 1
AA9B E5          0 6144 push hl
AA9C DD 7E 05    0 6145 ld a, (ix+5)
AA9F 6F          0 6146 ld l, a
AAA0 26 00       0 6147 ld h, 0
AAA2 2B          0 6148 dec hl
AAA3 E5          0 6149 push hl
AAA4 21 91 FA    0 6150 ld hl, _enemyStates
AAA7 CD B4 CC    0 6151 call __ARRAY
AAAA 7E          0 6152 ld a, (hl)
AAAB 32 3B D6    0 6153 ld (_tmpX), a
AAAE 21 02 00    0 6154 ld hl, 2
AAB1 E5          0 6155 push hl
AAB2 DD 7E 05    0 6156 ld a, (ix+5)
AAB5 6F          0 6157 ld l, a
AAB6 26 00       0 6158 ld h, 0
AAB8 2B          0 6159 dec hl
AAB9 E5          0 6160 push hl
AABA 21 91 FA    0 6161 ld hl, _enemyStates
AABD CD B4 CC    0 6162 call __ARRAY
AAC0 7E          0 6163 ld a, (hl)
AAC1 32 3C D6    0 6164 ld (_tmpY), a
AAC4 3D          0 6165 dec a
AAC5 D6 01       0 6166 sub 1
AAC7 9F          0 6167 sbc a, a
AAC8 CD 65 D5    0 6168 call __NORMALIZE_BOOLEAN
AACB B7          0 6169 or a
AACC CA 3B AB    0 6170 jp z, __LABEL246
AACF 3A 3C D6    0 6171 ld a, (_tmpY)
AAD2 C6 04       0 6172 add a, 4
AAD4 32 3C D6    0 6173 ld (_tmpY), a
AAD7 3A 3B D6    0 6174 ld a, (_tmpX)
AADA C6 08       0 6175 add a, 8
AADC 67          0 6176 ld h, a
AADD 3A 25 D6    0 6177 ld a, (_playerX)
AAE0 BC          0 6178 cp h
AAE1 9F          0 6179 sbc a, a
AAE2 CD 65 D5    0 6180 call __NORMALIZE_BOOLEAN
AAE5 F5          0 6181 push af
AAE6 3A 25 D6    0 6182 ld a, (_playerX)
AAE9 C6 08       0 6183 add a, 8
AAEB F5          0 6184 push af
AAEC 3A 3B D6    0 6185 ld a, (_tmpX)
AAEF E1          0 6186 pop hl
AAF0 BC          0 6187 cp h
AAF1 9F          0 6188 sbc a, a
AAF2 CD 65 D5    0 6189 call __NORMALIZE_BOOLEAN
AAF5 67          0 6190 ld h, a
AAF6 F1          0 6191 pop af
AAF7 B7          0 6192 or a
AAF8 28 01       0 6193 jr z, __LABEL704
AAFA 7C          0 6194 ld a, h
AAFB             0 6195 __LABEL704:
AAFB CD 65 D5    0 6196 call __NORMALIZE_BOOLEAN
AAFE F5          0 6197 push af
AAFF 3A 3C D6    0 6198 ld a, (_tmpY)
AB02 C6 04       0 6199 add a, 4
AB04 67          0 6200 ld h, a
AB05 3A 26 D6    0 6201 ld a, (_playerY)
AB08 BC          0 6202 cp h
AB09 9F          0 6203 sbc a, a
AB0A CD 65 D5    0 6204 call __NORMALIZE_BOOLEAN
AB0D 67          0 6205 ld h, a
AB0E F1          0 6206 pop af
AB0F B7          0 6207 or a
AB10 28 01       0 6208 jr z, __LABEL705
AB12 7C          0 6209 ld a, h
AB13             0 6210 __LABEL705:
AB13 CD 65 D5    0 6211 call __NORMALIZE_BOOLEAN
AB16 F5          0 6212 push af
AB17 3A 26 D6    0 6213 ld a, (_playerY)
AB1A C6 10       0 6214 add a, 16
AB1C F5          0 6215 push af
AB1D 3A 3C D6    0 6216 ld a, (_tmpY)
AB20 E1          0 6217 pop hl
AB21 BC          0 6218 cp h
AB22 9F          0 6219 sbc a, a
AB23 CD 65 D5    0 6220 call __NORMALIZE_BOOLEAN
AB26 67          0 6221 ld h, a
AB27 F1          0 6222 pop af
AB28 B7          0 6223 or a
AB29 28 01       0 6224 jr z, __LABEL706
AB2B 7C          0 6225 ld a, h
AB2C             0 6226 __LABEL706:
AB2C CD 65 D5    0 6227 call __NORMALIZE_BOOLEAN
AB2F B7          0 6228 or a
AB30 CA 38 AB    0 6229 jp z, __LABEL249
AB33 3E 01       0 6230 ld a, 1
AB35 C3 49 AB    0 6231 jp _updateCrocodile__leave
AB38             0 6232 __LABEL249:
AB38 C3 49 AB    0 6233 jp __LABEL247
AB3B             0 6234 __LABEL246:
AB3B 3A 3C D6    0 6235 ld a, (_tmpY)
AB3E F5          0 6236 push af
AB3F 3A 3B D6    0 6237 ld a, (_tmpX)
AB42 F5          0 6238 push af
AB43 CD 10 A7    0 6239 call _checkPlayerCollision
AB46 C3 49 AB    0 6240 jp _updateCrocodile__leave
AB49             0 6241 __LABEL247:
AB49             0 6242 _updateCrocodile__leave:
AB49 DD F9       0 6243 ld sp, ix
AB4B DD E1       0 6244 pop ix
AB4D D9          0 6245 exx
AB4E E1          0 6246 pop hl
AB4F E3          0 6247 ex (sp), hl
AB50 D9          0 6248 exx
AB51 C9          0 6249 ret
AB52             0 6250 _moveEnemies:
AB52 DD E5       0 6251 push ix
AB54 DD 21 00 00 0 6252 ld ix, 0
AB58 DD 39       0 6253 add ix, sp
AB5A 21 00 00    0 6254 ld hl, 0
AB5D E5          0 6255 push hl
AB5E 33          0 6256 inc sp
AB5F AF          0 6257 xor a
AB60 32 3F D6    0 6258 ld (_tmpResult), a
AB63 3A 1F D6    0 6259 ld a, (_frameCounter)
AB66 E6 01       0 6260 and 1
AB68 CA 73 AB    0 6261 jp z, __LABEL250
AB6B 3E 01       0 6262 ld a, 1
AB6D 32 3D D6    0 6263 ld (_tmpZ), a
AB70 C3 78 AB    0 6264 jp __LABEL251
AB73             0 6265 __LABEL250:
AB73 3E 02       0 6266 ld a, 2
AB75 32 3D D6    0 6267 ld (_tmpZ), a
AB78             0 6268 __LABEL251:
AB78 3A 3D D6    0 6269 ld a, (_tmpZ)
AB7B DD 77 FF    0 6270 ld (ix-1), a
AB7E C3 EF AB    0 6271 jp __LABEL252
AB81             0 6272 __LABEL255:
AB81 21 00 00    0 6273 ld hl, 0
AB84 E5          0 6274 push hl
AB85 DD 7E FF    0 6275 ld a, (ix-1)
AB88 6F          0 6276 ld l, a
AB89 26 00       0 6277 ld h, 0
AB8B 2B          0 6278 dec hl
AB8C E5          0 6279 push hl
AB8D 21 91 FA    0 6280 ld hl, _enemyStates
AB90 CD B4 CC    0 6281 call __ARRAY
AB93 7E          0 6282 ld a, (hl)
AB94 32 3B D6    0 6283 ld (_tmpX), a
AB97 AF          0 6284 xor a
AB98 2A 3A D6    0 6285 ld hl, (_tmpX - 1)
AB9B BC          0 6286 cp h
AB9C 9F          0 6287 sbc a, a
AB9D CD 65 D5    0 6288 call __NORMALIZE_BOOLEAN
ABA0 F5          0 6289 push af
ABA1 3A 3B D6    0 6290 ld a, (_tmpX)
ABA4 FE 07       0 6291 cp 7
ABA6 9F          0 6292 sbc a, a
ABA7 CD 65 D5    0 6293 call __NORMALIZE_BOOLEAN
ABAA 67          0 6294 ld h, a
ABAB F1          0 6295 pop af
ABAC B7          0 6296 or a
ABAD 28 01       0 6297 jr z, __LABEL707
ABAF 7C          0 6298 ld a, h
ABB0             0 6299 __LABEL707:
ABB0 CD 65 D5    0 6300 call __NORMALIZE_BOOLEAN
ABB3 B7          0 6301 or a
ABB4 CA C9 AB    0 6302 jp z, __LABEL257
ABB7 DD 7E FF    0 6303 ld a, (ix-1)
ABBA F5          0 6304 push af
ABBB CD 84 A7    0 6305 call _moveEnemy
ABBE 67          0 6306 ld h, a
ABBF 3A 3F D6    0 6307 ld a, (_tmpResult)
ABC2 B4          0 6308 or h
ABC3 32 3F D6    0 6309 ld (_tmpResult), a
ABC6 C3 E7 AB    0 6310 jp __LABEL258
ABC9             0 6311 __LABEL257:
ABC9 3A 3B D6    0 6312 ld a, (_tmpX)
ABCC D6 07       0 6313 sub 7
ABCE D6 01       0 6314 sub 1
ABD0 9F          0 6315 sbc a, a
ABD1 CD 65 D5    0 6316 call __NORMALIZE_BOOLEAN
ABD4 B7          0 6317 or a
ABD5 CA E7 AB    0 6318 jp z, __LABEL260
ABD8 DD 7E FF    0 6319 ld a, (ix-1)
ABDB F5          0 6320 push af
ABDC CD 3A A9    0 6321 call _updateCrocodile
ABDF 67          0 6322 ld h, a
ABE0 3A 3F D6    0 6323 ld a, (_tmpResult)
ABE3 B4          0 6324 or h
ABE4 32 3F D6    0 6325 ld (_tmpResult), a
ABE7             0 6326 __LABEL260:
ABE7             0 6327 __LABEL258:
ABE7             0 6328 __LABEL256:
ABE7 DD 7E FF    0 6329 ld a, (ix-1)
ABEA C6 02       0 6330 add a, 2
ABEC DD 77 FF    0 6331 ld (ix-1), a
ABEF             0 6332 __LABEL252:
ABEF DD 7E FF    0 6333 ld a, (ix-1)
ABF2 F5          0 6334 push af
ABF3 3A 1E D6    0 6335 ld a, (_enemyCount)
ABF6 E1          0 6336 pop hl
ABF7 BC          0 6337 cp h
ABF8 9F          0 6338 sbc a, a
ABF9 CD 65 D5    0 6339 call __NORMALIZE_BOOLEAN
ABFC B7          0 6340 or a
ABFD CA 81 AB    0 6341 jp z, __LABEL255
AC00             0 6342 __LABEL254:
AC00 3A 3F D6    0 6343 ld a, (_tmpResult)
AC03             0 6344 _moveEnemies__leave:
AC03 DD F9       0 6345 ld sp, ix
AC05 DD E1       0 6346 pop ix
AC07 C9          0 6347 ret
AC08             0 6348 _drawEnemies:
AC08 DD E5       0 6349 push ix
AC0A DD 21 00 00 0 6350 ld ix, 0
AC0E DD 39       0 6351 add ix, sp
AC10 3A 1F D6    0 6352 ld a, (_frameCounter)
AC13 E6 01       0 6353 and 1
AC15 CA 41 AC    0 6354 jp z, __LABEL261
AC18 3E 01       0 6355 ld a, 1
AC1A 32 3D D6    0 6356 ld (_tmpZ), a
AC1D C3 2F AC    0 6357 jp __LABEL263
AC20             0 6358 __LABEL266:
AC20 3A 3D D6    0 6359 ld a, (_tmpZ)
AC23 F5          0 6360 push af
AC24 CD 6C AC    0 6361 call _drawEnemy
AC27             0 6362 __LABEL267:
AC27 3A 3D D6    0 6363 ld a, (_tmpZ)
AC2A C6 02       0 6364 add a, 2
AC2C 32 3D D6    0 6365 ld (_tmpZ), a
AC2F             0 6366 __LABEL263:
AC2F 3A 1E D6    0 6367 ld a, (_enemyCount)
AC32 2A 3C D6    0 6368 ld hl, (_tmpZ - 1)
AC35 BC          0 6369 cp h
AC36 9F          0 6370 sbc a, a
AC37 CD 65 D5    0 6371 call __NORMALIZE_BOOLEAN
AC3A B7          0 6372 or a
AC3B CA 20 AC    0 6373 jp z, __LABEL266
AC3E             0 6374 __LABEL265:
AC3E C3 67 AC    0 6375 jp __LABEL262
AC41             0 6376 __LABEL261:
AC41 3E 02       0 6377 ld a, 2
AC43 32 3D D6    0 6378 ld (_tmpZ), a
AC46 C3 58 AC    0 6379 jp __LABEL268
AC49             0 6380 __LABEL271:
AC49 3A 3D D6    0 6381 ld a, (_tmpZ)
AC4C F5          0 6382 push af
AC4D CD 6C AC    0 6383 call _drawEnemy
AC50             0 6384 __LABEL272:
AC50 3A 3D D6    0 6385 ld a, (_tmpZ)
AC53 C6 02       0 6386 add a, 2
AC55 32 3D D6    0 6387 ld (_tmpZ), a
AC58             0 6388 __LABEL268:
AC58 3A 1E D6    0 6389 ld a, (_enemyCount)
AC5B 2A 3C D6    0 6390 ld hl, (_tmpZ - 1)
AC5E BC          0 6391 cp h
AC5F 9F          0 6392 sbc a, a
AC60 CD 65 D5    0 6393 call __NORMALIZE_BOOLEAN
AC63 B7          0 6394 or a
AC64 CA 49 AC    0 6395 jp z, __LABEL271
AC67             0 6396 __LABEL270:
AC67             0 6397 __LABEL262:
AC67             0 6398 _drawEnemies__leave:
AC67 DD F9       0 6399 ld sp, ix
AC69 DD E1       0 6400 pop ix
AC6B C9          0 6401 ret
AC6C             0 6402 _drawEnemy:
AC6C DD E5       0 6403 push ix
AC6E DD 21 00 00 0 6404 ld ix, 0
AC72 DD 39       0 6405 add ix, sp
AC74 21 00 00    0 6406 ld hl, 0
AC77 E5          0 6407 push hl
AC78 DD 7E 05    0 6408 ld a, (ix+5)
AC7B 6F          0 6409 ld l, a
AC7C 26 00       0 6410 ld h, 0
AC7E 2B          0 6411 dec hl
AC7F E5          0 6412 push hl
AC80 21 91 FA    0 6413 ld hl, _enemyStates
AC83 CD B4 CC    0 6414 call __ARRAY
AC86 7E          0 6415 ld a, (hl)
AC87 32 3B D6    0 6416 ld (_tmpX), a
AC8A D6 01       0 6417 sub 1
AC8C 9F          0 6418 sbc a, a
AC8D CD 65 D5    0 6419 call __NORMALIZE_BOOLEAN
AC90 B7          0 6420 or a
AC91 C2 93 B0    0 6421 jp nz, _drawEnemy__leave
AC94             0 6422 __LABEL274:
AC94 3A 3B D6    0 6423 ld a, (_tmpX)
AC97 3D          0 6424 dec a
AC98 D6 01       0 6425 sub 1
AC9A 9F          0 6426 sbc a, a
AC9B CD 65 D5    0 6427 call __NORMALIZE_BOOLEAN
AC9E B7          0 6428 or a
AC9F CA E8 AC    0 6429 jp z, __LABEL275
ACA2 21 02 00    0 6430 ld hl, 2
ACA5 E5          0 6431 push hl
ACA6 DD 7E 05    0 6432 ld a, (ix+5)
ACA9 6F          0 6433 ld l, a
ACAA 26 00       0 6434 ld h, 0
ACAC 2B          0 6435 dec hl
ACAD E5          0 6436 push hl
ACAE 21 91 FA    0 6437 ld hl, _enemyStates
ACB1 CD B4 CC    0 6438 call __ARRAY
ACB4 7E          0 6439 ld a, (hl)
ACB5 F5          0 6440 push af
ACB6 26 02       0 6441 ld h, 2
ACB8 F1          0 6442 pop af
ACB9 A4          0 6443 and h
ACBA D6 01       0 6444 sub 1
ACBC 9F          0 6445 sbc a, a
ACBD CD 65 D5    0 6446 call __NORMALIZE_BOOLEAN
ACC0 B7          0 6447 or a
ACC1 CA D3 AC    0 6448 jp z, __LABEL277
ACC4 21 79 F5    0 6449 ld hl, _vampUp.__DATA__
ACC7 22 56 D6    0 6450 ld (_tmpItem), hl
ACCA 21 88 F5    0 6451 ld hl, _vampDown.__DATA__
ACCD 22 58 D6    0 6452 ld (_tmpPrevItem), hl
ACD0 C3 DF AC    0 6453 jp __LABEL278
ACD3             0 6454 __LABEL277:
ACD3 21 88 F5    0 6455 ld hl, _vampDown.__DATA__
ACD6 22 56 D6    0 6456 ld (_tmpItem), hl
ACD9 21 79 F5    0 6457 ld hl, _vampUp.__DATA__
ACDC 22 58 D6    0 6458 ld (_tmpPrevItem), hl
ACDF             0 6459 __LABEL278:
ACDF 3A 4B D6    0 6460 ld a, (_vampColor)
ACE2 32 55 D6    0 6461 ld (_tmpColor), a
ACE5 C3 99 AF    0 6462 jp __LABEL276
ACE8             0 6463 __LABEL275:
ACE8 3A 3B D6    0 6464 ld a, (_tmpX)
ACEB D6 02       0 6465 sub 2
ACED D6 01       0 6466 sub 1
ACEF 9F          0 6467 sbc a, a
ACF0 CD 65 D5    0 6468 call __NORMALIZE_BOOLEAN
ACF3 B7          0 6469 or a
ACF4 CA 0C AD    0 6470 jp z, __LABEL279
ACF7 21 B5 F5    0 6471 ld hl, _spider.__DATA__
ACFA 22 56 D6    0 6472 ld (_tmpItem), hl
ACFD 21 B5 F5    0 6473 ld hl, _spider.__DATA__
AD00 22 58 D6    0 6474 ld (_tmpPrevItem), hl
AD03 3A 4C D6    0 6475 ld a, (_spiderColor)
AD06 32 55 D6    0 6476 ld (_tmpColor), a
AD09 C3 99 AF    0 6477 jp __LABEL280
AD0C             0 6478 __LABEL279:
AD0C 3A 3B D6    0 6479 ld a, (_tmpX)
AD0F D6 03       0 6480 sub 3
AD11 D6 01       0 6481 sub 1
AD13 9F          0 6482 sbc a, a
AD14 CD 65 D5    0 6483 call __NORMALIZE_BOOLEAN
AD17 B7          0 6484 or a
AD18 CA 61 AD    0 6485 jp z, __LABEL281
AD1B 21 01 00    0 6486 ld hl, 1
AD1E E5          0 6487 push hl
AD1F DD 7E 05    0 6488 ld a, (ix+5)
AD22 6F          0 6489 ld l, a
AD23 26 00       0 6490 ld h, 0
AD25 2B          0 6491 dec hl
AD26 E5          0 6492 push hl
AD27 21 91 FA    0 6493 ld hl, _enemyStates
AD2A CD B4 CC    0 6494 call __ARRAY
AD2D 7E          0 6495 ld a, (hl)
AD2E F5          0 6496 push af
AD2F 26 02       0 6497 ld h, 2
AD31 F1          0 6498 pop af
AD32 A4          0 6499 and h
AD33 D6 01       0 6500 sub 1
AD35 9F          0 6501 sbc a, a
AD36 CD 65 D5    0 6502 call __NORMALIZE_BOOLEAN
AD39 B7          0 6503 or a
AD3A CA 4C AD    0 6504 jp z, __LABEL283
AD3D 21 3B F7    0 6505 ld hl, _fly1.__DATA__
AD40 22 56 D6    0 6506 ld (_tmpItem), hl
AD43 21 4A F7    0 6507 ld hl, _fly2.__DATA__
AD46 22 58 D6    0 6508 ld (_tmpPrevItem), hl
AD49 C3 58 AD    0 6509 jp __LABEL284
AD4C             0 6510 __LABEL283:
AD4C 21 4A F7    0 6511 ld hl, _fly2.__DATA__
AD4F 22 56 D6    0 6512 ld (_tmpItem), hl
AD52 21 3B F7    0 6513 ld hl, _fly1.__DATA__
AD55 22 58 D6    0 6514 ld (_tmpPrevItem), hl
AD58             0 6515 __LABEL284:
AD58 3A 51 D6    0 6516 ld a, (_flyColor)
AD5B 32 55 D6    0 6517 ld (_tmpColor), a
AD5E C3 99 AF    0 6518 jp __LABEL282
AD61             0 6519 __LABEL281:
AD61 3A 3B D6    0 6520 ld a, (_tmpX)
AD64 D6 04       0 6521 sub 4
AD66 D6 01       0 6522 sub 1
AD68 9F          0 6523 sbc a, a
AD69 CD 65 D5    0 6524 call __NORMALIZE_BOOLEAN
AD6C B7          0 6525 or a
AD6D CA B6 AD    0 6526 jp z, __LABEL285
AD70 21 01 00    0 6527 ld hl, 1
AD73 E5          0 6528 push hl
AD74 DD 7E 05    0 6529 ld a, (ix+5)
AD77 6F          0 6530 ld l, a
AD78 26 00       0 6531 ld h, 0
AD7A 2B          0 6532 dec hl
AD7B E5          0 6533 push hl
AD7C 21 91 FA    0 6534 ld hl, _enemyStates
AD7F CD B4 CC    0 6535 call __ARRAY
AD82 7E          0 6536 ld a, (hl)
AD83 F5          0 6537 push af
AD84 26 02       0 6538 ld h, 2
AD86 F1          0 6539 pop af
AD87 A4          0 6540 and h
AD88 D6 01       0 6541 sub 1
AD8A 9F          0 6542 sbc a, a
AD8B CD 65 D5    0 6543 call __NORMALIZE_BOOLEAN
AD8E B7          0 6544 or a
AD8F CA A1 AD    0 6545 jp z, __LABEL287
AD92 21 0F F6    0 6546 ld hl, _bug1.__DATA__
AD95 22 56 D6    0 6547 ld (_tmpItem), hl
AD98 21 1E F6    0 6548 ld hl, _bug2.__DATA__
AD9B 22 58 D6    0 6549 ld (_tmpPrevItem), hl
AD9E C3 AD AD    0 6550 jp __LABEL288
ADA1             0 6551 __LABEL287:
ADA1 21 1E F6    0 6552 ld hl, _bug2.__DATA__
ADA4 22 56 D6    0 6553 ld (_tmpItem), hl
ADA7 21 0F F6    0 6554 ld hl, _bug1.__DATA__
ADAA 22 58 D6    0 6555 ld (_tmpPrevItem), hl
ADAD             0 6556 __LABEL288:
ADAD 3A 4E D6    0 6557 ld a, (_bugColor)
ADB0 32 55 D6    0 6558 ld (_tmpColor), a
ADB3 C3 99 AF    0 6559 jp __LABEL286
ADB6             0 6560 __LABEL285:
ADB6 3A 3B D6    0 6561 ld a, (_tmpX)
ADB9 D6 05       0 6562 sub 5
ADBB D6 01       0 6563 sub 1
ADBD 9F          0 6564 sbc a, a
ADBE CD 65 D5    0 6565 call __NORMALIZE_BOOLEAN
ADC1 B7          0 6566 or a
ADC2 CA 0B AE    0 6567 jp z, __LABEL289
ADC5 21 01 00    0 6568 ld hl, 1
ADC8 E5          0 6569 push hl
ADC9 DD 7E 05    0 6570 ld a, (ix+5)
ADCC 6F          0 6571 ld l, a
ADCD 26 00       0 6572 ld h, 0
ADCF 2B          0 6573 dec hl
ADD0 E5          0 6574 push hl
ADD1 21 91 FA    0 6575 ld hl, _enemyStates
ADD4 CD B4 CC    0 6576 call __ARRAY
ADD7 7E          0 6577 ld a, (hl)
ADD8 F5          0 6578 push af
ADD9 26 02       0 6579 ld h, 2
ADDB F1          0 6580 pop af
ADDC A4          0 6581 and h
ADDD D6 01       0 6582 sub 1
ADDF 9F          0 6583 sbc a, a
ADE0 CD 65 D5    0 6584 call __NORMALIZE_BOOLEAN
ADE3 B7          0 6585 or a
ADE4 CA F6 AD    0 6586 jp z, __LABEL291
ADE7 21 59 F7    0 6587 ld hl, _crab1.__DATA__
ADEA 22 56 D6    0 6588 ld (_tmpItem), hl
ADED 21 68 F7    0 6589 ld hl, _crab2.__DATA__
ADF0 22 58 D6    0 6590 ld (_tmpPrevItem), hl
ADF3 C3 02 AE    0 6591 jp __LABEL292
ADF6             0 6592 __LABEL291:
ADF6 21 68 F7    0 6593 ld hl, _crab2.__DATA__
ADF9 22 56 D6    0 6594 ld (_tmpItem), hl
ADFC 21 59 F7    0 6595 ld hl, _crab1.__DATA__
ADFF 22 58 D6    0 6596 ld (_tmpPrevItem), hl
AE02             0 6597 __LABEL292:
AE02 3A 50 D6    0 6598 ld a, (_crabColor)
AE05 32 55 D6    0 6599 ld (_tmpColor), a
AE08 C3 99 AF    0 6600 jp __LABEL290
AE0B             0 6601 __LABEL289:
AE0B 3A 3B D6    0 6602 ld a, (_tmpX)
AE0E D6 06       0 6603 sub 6
AE10 D6 01       0 6604 sub 1
AE12 9F          0 6605 sbc a, a
AE13 CD 65 D5    0 6606 call __NORMALIZE_BOOLEAN
AE16 B7          0 6607 or a
AE17 CA 6E AE    0 6608 jp z, __LABEL293
AE1A 3A 55 D6    0 6609 ld a, (_tmpColor)
AE1D 6F          0 6610 ld l, a
AE1E 26 00       0 6611 ld h, 0
AE20 2B          0 6612 dec hl
AE21 E5          0 6613 push hl
AE22 21 01 00    0 6614 ld hl, 1
AE25 E5          0 6615 push hl
AE26 DD 7E 05    0 6616 ld a, (ix+5)
AE29 6F          0 6617 ld l, a
AE2A 26 00       0 6618 ld h, 0
AE2C 2B          0 6619 dec hl
AE2D E5          0 6620 push hl
AE2E 21 91 FA    0 6621 ld hl, _enemyStates
AE31 CD B4 CC    0 6622 call __ARRAY
AE34 7E          0 6623 ld a, (hl)
AE35 26 08       0 6624 ld h, 8
AE37 CD 30 D2    0 6625 call __DIVU8_FAST
AE3A 6F          0 6626 ld l, a
AE3B 26 00       0 6627 ld h, 0
AE3D 2B          0 6628 dec hl
AE3E E5          0 6629 push hl
AE3F 21 9F F8    0 6630 ld hl, _solidMap
AE42 CD B4 CC    0 6631 call __ARRAY
AE45 7E          0 6632 ld a, (hl)
AE46 B7          0 6633 or a
AE47 CA 59 AE    0 6634 jp z, __LABEL295
AE4A 21 E2 F5    0 6635 ld hl, _skh1.__DATA__
AE4D 22 56 D6    0 6636 ld (_tmpItem), hl
AE50 21 E2 F5    0 6637 ld hl, _skh1.__DATA__
AE53 22 58 D6    0 6638 ld (_tmpPrevItem), hl
AE56 C3 65 AE    0 6639 jp __LABEL296
AE59             0 6640 __LABEL295:
AE59 21 F1 F5    0 6641 ld hl, _skh2.__DATA__
AE5C 22 56 D6    0 6642 ld (_tmpItem), hl
AE5F 21 F1 F5    0 6643 ld hl, _skh2.__DATA__
AE62 22 58 D6    0 6644 ld (_tmpPrevItem), hl
AE65             0 6645 __LABEL296:
AE65 3A 4D D6    0 6646 ld a, (_snakeColor)
AE68 32 55 D6    0 6647 ld (_tmpColor), a
AE6B C3 99 AF    0 6648 jp __LABEL294
AE6E             0 6649 __LABEL293:
AE6E 3A 3B D6    0 6650 ld a, (_tmpX)
AE71 D6 07       0 6651 sub 7
AE73 D6 01       0 6652 sub 1
AE75 9F          0 6653 sbc a, a
AE76 CD 65 D5    0 6654 call __NORMALIZE_BOOLEAN
AE79 B7          0 6655 or a
AE7A CA 99 AF    0 6656 jp z, __LABEL298
AE7D 21 06 00    0 6657 ld hl, 6
AE80 E5          0 6658 push hl
AE81 DD 7E 05    0 6659 ld a, (ix+5)
AE84 6F          0 6660 ld l, a
AE85 26 00       0 6661 ld h, 0
AE87 2B          0 6662 dec hl
AE88 E5          0 6663 push hl
AE89 21 91 FA    0 6664 ld hl, _enemyStates
AE8C CD B4 CC    0 6665 call __ARRAY
AE8F 7E          0 6666 ld a, (hl)
AE90 B7          0 6667 or a
AE91 CA 96 AF    0 6668 jp z, __LABEL300
AE94 21 07 00    0 6669 ld hl, 7
AE97 E5          0 6670 push hl
AE98 DD 7E 05    0 6671 ld a, (ix+5)
AE9B 6F          0 6672 ld l, a
AE9C 26 00       0 6673 ld h, 0
AE9E 2B          0 6674 dec hl
AE9F E5          0 6675 push hl
AEA0 21 91 FA    0 6676 ld hl, _enemyStates
AEA3 CD B4 CC    0 6677 call __ARRAY
AEA6 7E          0 6678 ld a, (hl)
AEA7 32 3C D6    0 6679 ld (_tmpY), a
AEAA 3D          0 6680 dec a
AEAB D6 01       0 6681 sub 1
AEAD 9F          0 6682 sbc a, a
AEAE CD 65 D5    0 6683 call __NORMALIZE_BOOLEAN
AEB1 B7          0 6684 or a
AEB2 CA BE AE    0 6685 jp z, __LABEL301
AEB5 21 2D F6    0 6686 ld hl, _crock1.__DATA__
AEB8 22 58 D6    0 6687 ld (_tmpPrevItem), hl
AEBB C3 D3 AE    0 6688 jp __LABEL302
AEBE             0 6689 __LABEL301:
AEBE 3A 3C D6    0 6690 ld a, (_tmpY)
AEC1 D6 02       0 6691 sub 2
AEC3 D6 01       0 6692 sub 1
AEC5 9F          0 6693 sbc a, a
AEC6 CD 65 D5    0 6694 call __NORMALIZE_BOOLEAN
AEC9 B7          0 6695 or a
AECA CA D3 AE    0 6696 jp z, __LABEL304
AECD 21 3C F6    0 6697 ld hl, _crock2.__DATA__
AED0 22 58 D6    0 6698 ld (_tmpPrevItem), hl
AED3             0 6699 __LABEL304:
AED3             0 6700 __LABEL302:
AED3 3A 3C D6    0 6701 ld a, (_tmpY)
AED6 B7          0 6702 or a
AED7 CA 15 AF    0 6703 jp z, __LABEL306
AEDA 3A 3A D6    0 6704 ld a, (_emptyAttrib)
AEDD 6F          0 6705 ld l, a
AEDE 26 00       0 6706 ld h, 0
AEE0 E5          0 6707 push hl
AEE1 21 01 00    0 6708 ld hl, 1
AEE4 E5          0 6709 push hl
AEE5 DD 7E 05    0 6710 ld a, (ix+5)
AEE8 6F          0 6711 ld l, a
AEE9 26 00       0 6712 ld h, 0
AEEB 2B          0 6713 dec hl
AEEC E5          0 6714 push hl
AEED 21 91 FA    0 6715 ld hl, _enemyStates
AEF0 CD B4 CC    0 6716 call __ARRAY
AEF3 7E          0 6717 ld a, (hl)
AEF4 6F          0 6718 ld l, a
AEF5 26 00       0 6719 ld h, 0
AEF7 E5          0 6720 push hl
AEF8 21 02 00    0 6721 ld hl, 2
AEFB E5          0 6722 push hl
AEFC DD 7E 05    0 6723 ld a, (ix+5)
AEFF 6F          0 6724 ld l, a
AF00 26 00       0 6725 ld h, 0
AF02 2B          0 6726 dec hl
AF03 E5          0 6727 push hl
AF04 21 91 FA    0 6728 ld hl, _enemyStates
AF07 CD B4 CC    0 6729 call __ARRAY
AF0A 7E          0 6730 ld a, (hl)
AF0B 6F          0 6731 ld l, a
AF0C 26 00       0 6732 ld h, 0
AF0E E5          0 6733 push hl
AF0F 2A 58 D6    0 6734 ld hl, (_tmpPrevItem)
AF12 CD 6D 8B    0 6735 call _drawColorSprite
AF15             0 6736 __LABEL306:
AF15 21 03 00    0 6737 ld hl, 3
AF18 E5          0 6738 push hl
AF19 DD 7E 05    0 6739 ld a, (ix+5)
AF1C 6F          0 6740 ld l, a
AF1D 26 00       0 6741 ld h, 0
AF1F 2B          0 6742 dec hl
AF20 E5          0 6743 push hl
AF21 21 91 FA    0 6744 ld hl, _enemyStates
AF24 CD B4 CC    0 6745 call __ARRAY
AF27 7E          0 6746 ld a, (hl)
AF28 32 3C D6    0 6747 ld (_tmpY), a
AF2B 3D          0 6748 dec a
AF2C D6 01       0 6749 sub 1
AF2E 9F          0 6750 sbc a, a
AF2F CD 65 D5    0 6751 call __NORMALIZE_BOOLEAN
AF32 B7          0 6752 or a
AF33 CA 3F AF    0 6753 jp z, __LABEL307
AF36 21 2D F6    0 6754 ld hl, _crock1.__DATA__
AF39 22 56 D6    0 6755 ld (_tmpItem), hl
AF3C C3 54 AF    0 6756 jp __LABEL308
AF3F             0 6757 __LABEL307:
AF3F 3A 3C D6    0 6758 ld a, (_tmpY)
AF42 D6 02       0 6759 sub 2
AF44 D6 01       0 6760 sub 1
AF46 9F          0 6761 sbc a, a
AF47 CD 65 D5    0 6762 call __NORMALIZE_BOOLEAN
AF4A B7          0 6763 or a
AF4B CA 54 AF    0 6764 jp z, __LABEL310
AF4E 21 3C F6    0 6765 ld hl, _crock2.__DATA__
AF51 22 56 D6    0 6766 ld (_tmpItem), hl
AF54             0 6767 __LABEL310:
AF54             0 6768 __LABEL308:
AF54 3A 3C D6    0 6769 ld a, (_tmpY)
AF57 B7          0 6770 or a
AF58 CA 96 AF    0 6771 jp z, __LABEL312
AF5B 3A 4F D6    0 6772 ld a, (_crocoColor)
AF5E 6F          0 6773 ld l, a
AF5F 26 00       0 6774 ld h, 0
AF61 E5          0 6775 push hl
AF62 21 01 00    0 6776 ld hl, 1
AF65 E5          0 6777 push hl
AF66 DD 7E 05    0 6778 ld a, (ix+5)
AF69 6F          0 6779 ld l, a
AF6A 26 00       0 6780 ld h, 0
AF6C 2B          0 6781 dec hl
AF6D E5          0 6782 push hl
AF6E 21 91 FA    0 6783 ld hl, _enemyStates
AF71 CD B4 CC    0 6784 call __ARRAY
AF74 7E          0 6785 ld a, (hl)
AF75 6F          0 6786 ld l, a
AF76 26 00       0 6787 ld h, 0
AF78 E5          0 6788 push hl
AF79 21 02 00    0 6789 ld hl, 2
AF7C E5          0 6790 push hl
AF7D DD 7E 05    0 6791 ld a, (ix+5)
AF80 6F          0 6792 ld l, a
AF81 26 00       0 6793 ld h, 0
AF83 2B          0 6794 dec hl
AF84 E5          0 6795 push hl
AF85 21 91 FA    0 6796 ld hl, _enemyStates
AF88 CD B4 CC    0 6797 call __ARRAY
AF8B 7E          0 6798 ld a, (hl)
AF8C 6F          0 6799 ld l, a
AF8D 26 00       0 6800 ld h, 0
AF8F E5          0 6801 push hl
AF90 2A 56 D6    0 6802 ld hl, (_tmpItem)
AF93 CD 6D 8B    0 6803 call _drawColorSprite
AF96             0 6804 __LABEL312:
AF96             0 6805 __LABEL300:
AF96 C3 93 B0    0 6806 jp _drawEnemy__leave
AF99             0 6807 __LABEL298:
AF99             0 6808 __LABEL294:
AF99             0 6809 __LABEL290:
AF99             0 6810 __LABEL286:
AF99             0 6811 __LABEL282:
AF99             0 6812 __LABEL280:
AF99             0 6813 __LABEL276:
AF99 3A 3B D6    0 6814 ld a, (_tmpX)
AF9C D6 06       0 6815 sub 6
AF9E D6 01       0 6816 sub 1
AFA0 9F          0 6817 sbc a, a
AFA1 CD 65 D5    0 6818 call __NORMALIZE_BOOLEAN
AFA4 B7          0 6819 or a
AFA5 CA E6 AF    0 6820 jp z, __LABEL313
AFA8 3A 4D D6    0 6821 ld a, (_snakeColor)
AFAB 6F          0 6822 ld l, a
AFAC 26 00       0 6823 ld h, 0
AFAE E5          0 6824 push hl
AFAF 21 03 00    0 6825 ld hl, 3
AFB2 E5          0 6826 push hl
AFB3 DD 7E 05    0 6827 ld a, (ix+5)
AFB6 6F          0 6828 ld l, a
AFB7 26 00       0 6829 ld h, 0
AFB9 2B          0 6830 dec hl
AFBA E5          0 6831 push hl
AFBB 21 91 FA    0 6832 ld hl, _enemyStates
AFBE CD B4 CC    0 6833 call __ARRAY
AFC1 7E          0 6834 ld a, (hl)
AFC2 6F          0 6835 ld l, a
AFC3 26 00       0 6836 ld h, 0
AFC5 E5          0 6837 push hl
AFC6 21 04 00    0 6838 ld hl, 4
AFC9 E5          0 6839 push hl
AFCA DD 7E 05    0 6840 ld a, (ix+5)
AFCD 6F          0 6841 ld l, a
AFCE 26 00       0 6842 ld h, 0
AFD0 2B          0 6843 dec hl
AFD1 E5          0 6844 push hl
AFD2 21 91 FA    0 6845 ld hl, _enemyStates
AFD5 CD B4 CC    0 6846 call __ARRAY
AFD8 7E          0 6847 ld a, (hl)
AFD9 6F          0 6848 ld l, a
AFDA 26 00       0 6849 ld h, 0
AFDC E5          0 6850 push hl
AFDD 2A 58 D6    0 6851 ld hl, (_tmpPrevItem)
AFE0 CD 6D 8B    0 6852 call _drawColorSprite
AFE3 C3 21 B0    0 6853 jp __LABEL314
AFE6             0 6854 __LABEL313:
AFE6 3A 3A D6    0 6855 ld a, (_emptyAttrib)
AFE9 6F          0 6856 ld l, a
AFEA 26 00       0 6857 ld h, 0
AFEC E5          0 6858 push hl
AFED 21 03 00    0 6859 ld hl, 3
AFF0 E5          0 6860 push hl
AFF1 DD 7E 05    0 6861 ld a, (ix+5)
AFF4 6F          0 6862 ld l, a
AFF5 26 00       0 6863 ld h, 0
AFF7 2B          0 6864 dec hl
AFF8 E5          0 6865 push hl
AFF9 21 91 FA    0 6866 ld hl, _enemyStates
AFFC CD B4 CC    0 6867 call __ARRAY
AFFF 7E          0 6868 ld a, (hl)
B000 6F          0 6869 ld l, a
B001 26 00       0 6870 ld h, 0
B003 E5          0 6871 push hl
B004 21 04 00    0 6872 ld hl, 4
B007 E5          0 6873 push hl
B008 DD 7E 05    0 6874 ld a, (ix+5)
B00B 6F          0 6875 ld l, a
B00C 26 00       0 6876 ld h, 0
B00E 2B          0 6877 dec hl
B00F E5          0 6878 push hl
B010 21 91 FA    0 6879 ld hl, _enemyStates
B013 CD B4 CC    0 6880 call __ARRAY
B016 7E          0 6881 ld a, (hl)
B017 6F          0 6882 ld l, a
B018 26 00       0 6883 ld h, 0
B01A E5          0 6884 push hl
B01B 2A 58 D6    0 6885 ld hl, (_tmpPrevItem)
B01E CD 6D 8B    0 6886 call _drawColorSprite
B021             0 6887 __LABEL314:
B021 3A 44 D6    0 6888 ld a, (_deadEnemy)
B024 DD 96 05    0 6889 sub (ix+5)
B027 D6 01       0 6890 sub 1
B029 9F          0 6891 sbc a, a
B02A CD 65 D5    0 6892 call __NORMALIZE_BOOLEAN
B02D B7          0 6893 or a
B02E CA 58 B0    0 6894 jp z, __LABEL315
B031 AF          0 6895 xor a
B032 32 44 D6    0 6896 ld (_deadEnemy), a
B035 21 00 00    0 6897 ld hl, 0
B038 E5          0 6898 push hl
B039 DD 7E 05    0 6899 ld a, (ix+5)
B03C 6F          0 6900 ld l, a
B03D 26 00       0 6901 ld h, 0
B03F 2B          0 6902 dec hl
B040 E5          0 6903 push hl
B041 21 91 FA    0 6904 ld hl, _enemyStates
B044 CD B4 CC    0 6905 call __ARRAY
B047 36 00       0 6906 ld (hl), 0
B049 3E 04       0 6907 ld a, 4
B04B CD 7C C0    0 6908 call _playAudio
B04E 21 64 00    0 6909 ld hl, 100
B051 E5          0 6910 push hl
B052 CD 07 CA    0 6911 call _updateScore
B055 C3 93 B0    0 6912 jp __LABEL316
B058             0 6913 __LABEL315:
B058 3A 55 D6    0 6914 ld a, (_tmpColor)
B05B 6F          0 6915 ld l, a
B05C 26 00       0 6916 ld h, 0
B05E E5          0 6917 push hl
B05F 21 01 00    0 6918 ld hl, 1
B062 E5          0 6919 push hl
B063 DD 7E 05    0 6920 ld a, (ix+5)
B066 6F          0 6921 ld l, a
B067 26 00       0 6922 ld h, 0
B069 2B          0 6923 dec hl
B06A E5          0 6924 push hl
B06B 21 91 FA    0 6925 ld hl, _enemyStates
B06E CD B4 CC    0 6926 call __ARRAY
B071 7E          0 6927 ld a, (hl)
B072 6F          0 6928 ld l, a
B073 26 00       0 6929 ld h, 0
B075 E5          0 6930 push hl
B076 21 02 00    0 6931 ld hl, 2
B079 E5          0 6932 push hl
B07A DD 7E 05    0 6933 ld a, (ix+5)
B07D 6F          0 6934 ld l, a
B07E 26 00       0 6935 ld h, 0
B080 2B          0 6936 dec hl
B081 E5          0 6937 push hl
B082 21 91 FA    0 6938 ld hl, _enemyStates
B085 CD B4 CC    0 6939 call __ARRAY
B088 7E          0 6940 ld a, (hl)
B089 6F          0 6941 ld l, a
B08A 26 00       0 6942 ld h, 0
B08C E5          0 6943 push hl
B08D 2A 56 D6    0 6944 ld hl, (_tmpItem)
B090 CD 6D 8B    0 6945 call _drawColorSprite
B093             0 6946 __LABEL316:
B093             0 6947 _drawEnemy__leave:
B093 DD F9       0 6948 ld sp, ix
B095 DD E1       0 6949 pop ix
B097 D9          0 6950 exx
B098 E1          0 6951 pop hl
B099 E3          0 6952 ex (sp), hl
B09A D9          0 6953 exx
B09B C9          0 6954 ret
B09C             0 6955 _drawShot:
B09C DD E5       0 6956 push ix
B09E DD 21 00 00 0 6957 ld ix, 0
B0A2 DD 39       0 6958 add ix, sp
B0A4 3A 40 D6    0 6959 ld a, (_prevShotX)
B0A7 CD 65 D5    0 6960 call __NORMALIZE_BOOLEAN
B0AA B7          0 6961 or a
B0AB CA C2 B0    0 6962 jp z, __LABEL318
B0AE 3A 40 D6    0 6963 ld a, (_prevShotX)
B0B1 6F          0 6964 ld l, a
B0B2 26 00       0 6965 ld h, 0
B0B4 E5          0 6966 push hl
B0B5 3A 41 D6    0 6967 ld a, (_prevShotY)
B0B8 6F          0 6968 ld l, a
B0B9 26 00       0 6969 ld h, 0
B0BB E5          0 6970 push hl
B0BC 21 94 F8    0 6971 ld hl, _shot.__DATA__
B0BF CD D4 8C    0 6972 call _drawSprite
B0C2             0 6973 __LABEL318:
B0C2 3A 42 D6    0 6974 ld a, (_shotX)
B0C5 CD 65 D5    0 6975 call __NORMALIZE_BOOLEAN
B0C8 B7          0 6976 or a
B0C9 CA E0 B0    0 6977 jp z, __LABEL320
B0CC 3A 42 D6    0 6978 ld a, (_shotX)
B0CF 6F          0 6979 ld l, a
B0D0 26 00       0 6980 ld h, 0
B0D2 E5          0 6981 push hl
B0D3 3A 43 D6    0 6982 ld a, (_shotY)
B0D6 6F          0 6983 ld l, a
B0D7 26 00       0 6984 ld h, 0
B0D9 E5          0 6985 push hl
B0DA 21 94 F8    0 6986 ld hl, _shot.__DATA__
B0DD CD D4 8C    0 6987 call _drawSprite
B0E0             0 6988 __LABEL320:
B0E0             0 6989 _drawShot__leave:
B0E0 DD F9       0 6990 ld sp, ix
B0E2 DD E1       0 6991 pop ix
B0E4 C9          0 6992 ret
B0E5             0 6993 _movePlayer:
B0E5 DD E5       0 6994 push ix
B0E7 DD 21 00 00 0 6995 ld ix, 0
B0EB DD 39       0 6996 add ix, sp
B0ED 21 F5 FF    0 6997 ld hl, -11
B0F0 39          0 6998 add hl, sp
B0F1 F9          0 6999 ld sp, hl
B0F2 36 00       0 7000 ld (hl), 0
B0F4 01 0A 00    0 7001 ld bc, 10
B0F7 54          0 7002 ld d, h
B0F8 5D          0 7003 ld e, l
B0F9 13          0 7004 inc de
B0FA ED B0       0 7005 ldir
B0FC CD DC B8    0 7006 call _keybScan
B0FF 3A 25 D6    0 7007 ld a, (_playerX)
B102 26 08       0 7008 ld h, 8
B104 CD 30 D2    0 7009 call __DIVU8_FAST
B107 3C          0 7010 inc a
B108 DD 77 FF    0 7011 ld (ix-1), a
B10B 3A 26 D6    0 7012 ld a, (_playerY)
B10E 26 08       0 7013 ld h, 8
B110 CD 30 D2    0 7014 call __DIVU8_FAST
B113 D6 05       0 7015 sub 5
B115 DD 77 FE    0 7016 ld (ix-2), a
B118 3A E0 FA    0 7017 ld a, (_keyStates.__DATA__ + 0)
B11B B7          0 7018 or a
B11C CA 23 B1    0 7019 jp z, __LABEL322
B11F DD 36 FD FE 0 7020 ld (ix-3), 254
B123             0 7021 __LABEL322:
B123 3A E1 FA    0 7022 ld a, (_keyStates.__DATA__ + 1)
B126 B7          0 7023 or a
B127 CA 2E B1    0 7024 jp z, __LABEL324
B12A DD 36 FD 02 0 7025 ld (ix-3), 2
B12E             0 7026 __LABEL324:
B12E 3A E2 FA    0 7027 ld a, (_keyStates.__DATA__ + 2)
B131 B7          0 7028 or a
B132 CA 3C B1    0 7029 jp z, __LABEL325
B135 DD 36 FC FE 0 7030 ld (ix-4), 254
B139 C3 40 B1    0 7031 jp __LABEL326
B13C             0 7032 __LABEL325:
B13C DD 36 FC 02 0 7033 ld (ix-4), 2
B140             0 7034 __LABEL326:
B140 3A 26 D6    0 7035 ld a, (_playerY)
B143 E6 07       0 7036 and 7
B145 D6 01       0 7037 sub 1
B147 9F          0 7038 sbc a, a
B148 CD 65 D5    0 7039 call __NORMALIZE_BOOLEAN
B14B DD 77 FB    0 7040 ld (ix-5), a
B14E 3A 25 D6    0 7041 ld a, (_playerX)
B151 E6 07       0 7042 and 7
B153 D6 01       0 7043 sub 1
B155 9F          0 7044 sbc a, a
B156 CD 65 D5    0 7045 call __NORMALIZE_BOOLEAN
B159 DD 77 FA    0 7046 ld (ix-6), a
B15C DD 7E FB    0 7047 ld a, (ix-5)
B15F B7          0 7048 or a
B160 CA 72 B3    0 7049 jp z, __LABEL328
B163 DD 7E FA    0 7050 ld a, (ix-6)
B166 B7          0 7051 or a
B167 CA 3C B2    0 7052 jp z, __LABEL329
B16A DD 7E FC    0 7053 ld a, (ix-4)
B16D D6 FE       0 7054 sub 254
B16F D6 01       0 7055 sub 1
B171 9F          0 7056 sbc a, a
B172 CD 65 D5    0 7057 call __NORMALIZE_BOOLEAN
B175 B7          0 7058 or a
B176 CA D9 B1    0 7059 jp z, __LABEL331
B179 DD 7E FE    0 7060 ld a, (ix-2)
B17C D6 01       0 7061 sub 1
B17E 9F          0 7062 sbc a, a
B17F CD 65 D5    0 7063 call __NORMALIZE_BOOLEAN
B182 B7          0 7064 or a
B183 CA 8D B1    0 7065 jp z, __LABEL333
B186 DD 36 F6 01 0 7066 ld (ix-10), 1
B18A C3 D6 B1    0 7067 jp __LABEL334
B18D             0 7068 __LABEL333:
B18D DD 7E FE    0 7069 ld a, (ix-2)
B190 F5          0 7070 push af
B191 3E 01       0 7071 ld a, 1
B193 E1          0 7072 pop hl
B194 BC          0 7073 cp h
B195 9F          0 7074 sbc a, a
B196 CD 65 D5    0 7075 call __NORMALIZE_BOOLEAN
B199 B7          0 7076 or a
B19A CA D6 B1    0 7077 jp z, __LABEL336
B19D DD 7E FE    0 7078 ld a, (ix-2)
B1A0 3D          0 7079 dec a
B1A1 6F          0 7080 ld l, a
B1A2 26 00       0 7081 ld h, 0
B1A4 2B          0 7082 dec hl
B1A5 E5          0 7083 push hl
B1A6 DD 7E FF    0 7084 ld a, (ix-1)
B1A9 6F          0 7085 ld l, a
B1AA 26 00       0 7086 ld h, 0
B1AC 2B          0 7087 dec hl
B1AD E5          0 7088 push hl
B1AE 21 9F F8    0 7089 ld hl, _solidMap
B1B1 CD B4 CC    0 7090 call __ARRAY
B1B4 7E          0 7091 ld a, (hl)
B1B5 DD 77 F9    0 7092 ld (ix-7), a
B1B8 CD 65 D5    0 7093 call __NORMALIZE_BOOLEAN
B1BB B7          0 7094 or a
B1BC CA D6 B1    0 7095 jp z, __LABEL338
B1BF DD 36 FC 00 0 7096 ld (ix-4), 0
B1C3 DD 7E F9    0 7097 ld a, (ix-7)
B1C6 D6 02       0 7098 sub 2
B1C8 D6 01       0 7099 sub 1
B1CA 9F          0 7100 sbc a, a
B1CB CD 65 D5    0 7101 call __NORMALIZE_BOOLEAN
B1CE B7          0 7102 or a
B1CF CA D6 B1    0 7103 jp z, __LABEL340
B1D2 DD 36 F5 01 0 7104 ld (ix-11), 1
B1D6             0 7105 __LABEL340:
B1D6             0 7106 __LABEL338:
B1D6             0 7107 __LABEL336:
B1D6             0 7108 __LABEL334:
B1D6 C3 39 B2    0 7109 jp __LABEL332
B1D9             0 7110 __LABEL331:
B1D9 DD 7E FE    0 7111 ld a, (ix-2)
B1DC D6 0C       0 7112 sub 12
B1DE D6 01       0 7113 sub 1
B1E0 9F          0 7114 sbc a, a
B1E1 CD 65 D5    0 7115 call __NORMALIZE_BOOLEAN
B1E4 B7          0 7116 or a
B1E5 CA EF B1    0 7117 jp z, __LABEL341
B1E8 DD 36 F6 01 0 7118 ld (ix-10), 1
B1EC C3 39 B2    0 7119 jp __LABEL342
B1EF             0 7120 __LABEL341:
B1EF DD 7E FE    0 7121 ld a, (ix-2)
B1F2 F5          0 7122 push af
B1F3 26 0B       0 7123 ld h, 11
B1F5 F1          0 7124 pop af
B1F6 BC          0 7125 cp h
B1F7 9F          0 7126 sbc a, a
B1F8 CD 65 D5    0 7127 call __NORMALIZE_BOOLEAN
B1FB B7          0 7128 or a
B1FC CA 39 B2    0 7129 jp z, __LABEL344
B1FF DD 7E FE    0 7130 ld a, (ix-2)
B202 C6 02       0 7131 add a, 2
B204 6F          0 7132 ld l, a
B205 26 00       0 7133 ld h, 0
B207 2B          0 7134 dec hl
B208 E5          0 7135 push hl
B209 DD 7E FF    0 7136 ld a, (ix-1)
B20C 6F          0 7137 ld l, a
B20D 26 00       0 7138 ld h, 0
B20F 2B          0 7139 dec hl
B210 E5          0 7140 push hl
B211 21 9F F8    0 7141 ld hl, _solidMap
B214 CD B4 CC    0 7142 call __ARRAY
B217 7E          0 7143 ld a, (hl)
B218 DD 77 F9    0 7144 ld (ix-7), a
B21B CD 65 D5    0 7145 call __NORMALIZE_BOOLEAN
B21E B7          0 7146 or a
B21F CA 39 B2    0 7147 jp z, __LABEL346
B222 DD 36 FC 00 0 7148 ld (ix-4), 0
B226 DD 7E F9    0 7149 ld a, (ix-7)
B229 D6 02       0 7150 sub 2
B22B D6 01       0 7151 sub 1
B22D 9F          0 7152 sbc a, a
B22E CD 65 D5    0 7153 call __NORMALIZE_BOOLEAN
B231 B7          0 7154 or a
B232 CA 39 B2    0 7155 jp z, __LABEL348
B235 DD 36 F5 01 0 7156 ld (ix-11), 1
B239             0 7157 __LABEL348:
B239             0 7158 __LABEL346:
B239             0 7159 __LABEL344:
B239             0 7160 __LABEL342:
B239             0 7161 __LABEL332:
B239 C3 72 B3    0 7162 jp __LABEL330
B23C             0 7163 __LABEL329:
B23C DD 7E FC    0 7164 ld a, (ix-4)
B23F D6 FE       0 7165 sub 254
B241 D6 01       0 7166 sub 1
B243 9F          0 7167 sbc a, a
B244 CD 65 D5    0 7168 call __NORMALIZE_BOOLEAN
B247 B7          0 7169 or a
B248 CA DE B2    0 7170 jp z, __LABEL349
B24B DD 7E FE    0 7171 ld a, (ix-2)
B24E D6 01       0 7172 sub 1
B250 9F          0 7173 sbc a, a
B251 CD 65 D5    0 7174 call __NORMALIZE_BOOLEAN
B254 B7          0 7175 or a
B255 CA 5F B2    0 7176 jp z, __LABEL351
B258 DD 36 F6 01 0 7177 ld (ix-10), 1
B25C C3 DB B2    0 7178 jp __LABEL352
B25F             0 7179 __LABEL351:
B25F DD 7E FE    0 7180 ld a, (ix-2)
B262 F5          0 7181 push af
B263 3E 01       0 7182 ld a, 1
B265 E1          0 7183 pop hl
B266 BC          0 7184 cp h
B267 9F          0 7185 sbc a, a
B268 CD 65 D5    0 7186 call __NORMALIZE_BOOLEAN
B26B B7          0 7187 or a
B26C CA DB B2    0 7188 jp z, __LABEL354
B26F DD 7E FE    0 7189 ld a, (ix-2)
B272 3D          0 7190 dec a
B273 6F          0 7191 ld l, a
B274 26 00       0 7192 ld h, 0
B276 2B          0 7193 dec hl
B277 E5          0 7194 push hl
B278 DD 7E FF    0 7195 ld a, (ix-1)
B27B 6F          0 7196 ld l, a
B27C 26 00       0 7197 ld h, 0
B27E 2B          0 7198 dec hl
B27F E5          0 7199 push hl
B280 21 9F F8    0 7200 ld hl, _solidMap
B283 CD B4 CC    0 7201 call __ARRAY
B286 7E          0 7202 ld a, (hl)
B287 DD 77 F9    0 7203 ld (ix-7), a
B28A DD 7E FE    0 7204 ld a, (ix-2)
B28D 3D          0 7205 dec a
B28E 6F          0 7206 ld l, a
B28F 26 00       0 7207 ld h, 0
B291 2B          0 7208 dec hl
B292 E5          0 7209 push hl
B293 DD 7E FF    0 7210 ld a, (ix-1)
B296 3C          0 7211 inc a
B297 6F          0 7212 ld l, a
B298 26 00       0 7213 ld h, 0
B29A 2B          0 7214 dec hl
B29B E5          0 7215 push hl
B29C 21 9F F8    0 7216 ld hl, _solidMap
B29F CD B4 CC    0 7217 call __ARRAY
B2A2 7E          0 7218 ld a, (hl)
B2A3 DD 77 F8    0 7219 ld (ix-8), a
B2A6 DD 7E F9    0 7220 ld a, (ix-7)
B2A9 DD B6 F8    0 7221 or (ix-8)
B2AC CD 65 D5    0 7222 call __NORMALIZE_BOOLEAN
B2AF B7          0 7223 or a
B2B0 CA DB B2    0 7224 jp z, __LABEL356
B2B3 DD 36 FC 00 0 7225 ld (ix-4), 0
B2B7 DD 7E F9    0 7226 ld a, (ix-7)
B2BA D6 02       0 7227 sub 2
B2BC D6 01       0 7228 sub 1
B2BE 9F          0 7229 sbc a, a
B2BF CD 65 D5    0 7230 call __NORMALIZE_BOOLEAN
B2C2 F5          0 7231 push af
B2C3 DD 7E F8    0 7232 ld a, (ix-8)
B2C6 D6 02       0 7233 sub 2
B2C8 D6 01       0 7234 sub 1
B2CA 9F          0 7235 sbc a, a
B2CB CD 65 D5    0 7236 call __NORMALIZE_BOOLEAN
B2CE D1          0 7237 pop de
B2CF B2          0 7238 or d
B2D0 CD 65 D5    0 7239 call __NORMALIZE_BOOLEAN
B2D3 B7          0 7240 or a
B2D4 CA DB B2    0 7241 jp z, __LABEL358
B2D7 DD 36 F5 01 0 7242 ld (ix-11), 1
B2DB             0 7243 __LABEL358:
B2DB             0 7244 __LABEL356:
B2DB             0 7245 __LABEL354:
B2DB             0 7246 __LABEL352:
B2DB C3 72 B3    0 7247 jp __LABEL350
B2DE             0 7248 __LABEL349:
B2DE DD 7E FE    0 7249 ld a, (ix-2)
B2E1 D6 0C       0 7250 sub 12
B2E3 D6 01       0 7251 sub 1
B2E5 9F          0 7252 sbc a, a
B2E6 CD 65 D5    0 7253 call __NORMALIZE_BOOLEAN
B2E9 B7          0 7254 or a
B2EA CA F4 B2    0 7255 jp z, __LABEL359
B2ED DD 36 F6 01 0 7256 ld (ix-10), 1
B2F1 C3 72 B3    0 7257 jp __LABEL360
B2F4             0 7258 __LABEL359:
B2F4 DD 7E FE    0 7259 ld a, (ix-2)
B2F7 F5          0 7260 push af
B2F8 26 0B       0 7261 ld h, 11
B2FA F1          0 7262 pop af
B2FB BC          0 7263 cp h
B2FC 9F          0 7264 sbc a, a
B2FD CD 65 D5    0 7265 call __NORMALIZE_BOOLEAN
B300 B7          0 7266 or a
B301 CA 72 B3    0 7267 jp z, __LABEL362
B304 DD 7E FE    0 7268 ld a, (ix-2)
B307 C6 02       0 7269 add a, 2
B309 6F          0 7270 ld l, a
B30A 26 00       0 7271 ld h, 0
B30C 2B          0 7272 dec hl
B30D E5          0 7273 push hl
B30E DD 7E FF    0 7274 ld a, (ix-1)
B311 6F          0 7275 ld l, a
B312 26 00       0 7276 ld h, 0
B314 2B          0 7277 dec hl
B315 E5          0 7278 push hl
B316 21 9F F8    0 7279 ld hl, _solidMap
B319 CD B4 CC    0 7280 call __ARRAY
B31C 7E          0 7281 ld a, (hl)
B31D DD 77 F9    0 7282 ld (ix-7), a
B320 DD 7E FE    0 7283 ld a, (ix-2)
B323 C6 02       0 7284 add a, 2
B325 6F          0 7285 ld l, a
B326 26 00       0 7286 ld h, 0
B328 2B          0 7287 dec hl
B329 E5          0 7288 push hl
B32A DD 7E FF    0 7289 ld a, (ix-1)
B32D 3C          0 7290 inc a
B32E 6F          0 7291 ld l, a
B32F 26 00       0 7292 ld h, 0
B331 2B          0 7293 dec hl
B332 E5          0 7294 push hl
B333 21 9F F8    0 7295 ld hl, _solidMap
B336 CD B4 CC    0 7296 call __ARRAY
B339 7E          0 7297 ld a, (hl)
B33A DD 77 F8    0 7298 ld (ix-8), a
B33D DD 7E F9    0 7299 ld a, (ix-7)
B340 DD B6 F8    0 7300 or (ix-8)
B343 CD 65 D5    0 7301 call __NORMALIZE_BOOLEAN
B346 B7          0 7302 or a
B347 CA 72 B3    0 7303 jp z, __LABEL364
B34A DD 36 FC 00 0 7304 ld (ix-4), 0
B34E DD 7E F9    0 7305 ld a, (ix-7)
B351 D6 02       0 7306 sub 2
B353 D6 01       0 7307 sub 1
B355 9F          0 7308 sbc a, a
B356 CD 65 D5    0 7309 call __NORMALIZE_BOOLEAN
B359 F5          0 7310 push af
B35A DD 7E F8    0 7311 ld a, (ix-8)
B35D D6 02       0 7312 sub 2
B35F D6 01       0 7313 sub 1
B361 9F          0 7314 sbc a, a
B362 CD 65 D5    0 7315 call __NORMALIZE_BOOLEAN
B365 D1          0 7316 pop de
B366 B2          0 7317 or d
B367 CD 65 D5    0 7318 call __NORMALIZE_BOOLEAN
B36A B7          0 7319 or a
B36B CA 72 B3    0 7320 jp z, __LABEL366
B36E DD 36 F5 01 0 7321 ld (ix-11), 1
B372             0 7322 __LABEL366:
B372             0 7323 __LABEL364:
B372             0 7324 __LABEL362:
B372             0 7325 __LABEL360:
B372             0 7326 __LABEL350:
B372             0 7327 __LABEL330:
B372             0 7328 __LABEL328:
B372 DD 7E FC    0 7329 ld a, (ix-4)
B375 B7          0 7330 or a
B376 CA 9D B3    0 7331 jp z, __LABEL368
B379 3A 26 D6    0 7332 ld a, (_playerY)
B37C DD 86 FC    0 7333 add a, (ix-4)
B37F F5          0 7334 push af
B380 26 07       0 7335 ld h, 7
B382 F1          0 7336 pop af
B383 A4          0 7337 and h
B384 D6 01       0 7338 sub 1
B386 9F          0 7339 sbc a, a
B387 CD 65 D5    0 7340 call __NORMALIZE_BOOLEAN
B38A DD 77 FB    0 7341 ld (ix-5), a
B38D 3A 26 D6    0 7342 ld a, (_playerY)
B390 DD 86 FC    0 7343 add a, (ix-4)
B393 26 08       0 7344 ld h, 8
B395 CD 44 D2    0 7345 call __DIVI8_FAST
B398 D6 05       0 7346 sub 5
B39A DD 77 FE    0 7347 ld (ix-2), a
B39D             0 7348 __LABEL368:
B39D DD 7E FA    0 7349 ld a, (ix-6)
B3A0 DD 66 FD    0 7350 ld h, (ix-3)
B3A3 B7          0 7351 or a
B3A4 28 01       0 7352 jr z, __LABEL708
B3A6 7C          0 7353 ld a, h
B3A7             0 7354 __LABEL708:
B3A7 CD 65 D5    0 7355 call __NORMALIZE_BOOLEAN
B3AA B7          0 7356 or a
B3AB CA 1E B7    0 7357 jp z, __LABEL370
B3AE DD 7E FB    0 7358 ld a, (ix-5)
B3B1 B7          0 7359 or a
B3B2 CA 27 B5    0 7360 jp z, __LABEL371
B3B5 DD 7E FD    0 7361 ld a, (ix-3)
B3B8 D6 FE       0 7362 sub 254
B3BA D6 01       0 7363 sub 1
B3BC 9F          0 7364 sbc a, a
B3BD CD 65 D5    0 7365 call __NORMALIZE_BOOLEAN
B3C0 B7          0 7366 or a
B3C1 CA 75 B4    0 7367 jp z, __LABEL373
B3C4 DD 7E FF    0 7368 ld a, (ix-1)
B3C7 3D          0 7369 dec a
B3C8 D6 01       0 7370 sub 1
B3CA 9F          0 7371 sbc a, a
B3CB CD 65 D5    0 7372 call __NORMALIZE_BOOLEAN
B3CE B7          0 7373 or a
B3CF CA D9 B3    0 7374 jp z, __LABEL375
B3D2 DD 36 F6 01 0 7375 ld (ix-10), 1
B3D6 C3 72 B4    0 7376 jp __LABEL376
B3D9             0 7377 __LABEL375:
B3D9 DD 7E FE    0 7378 ld a, (ix-2)
B3DC F5          0 7379 push af
B3DD AF          0 7380 xor a
B3DE E1          0 7381 pop hl
B3DF BC          0 7382 cp h
B3E0 9F          0 7383 sbc a, a
B3E1 CD 65 D5    0 7384 call __NORMALIZE_BOOLEAN
B3E4 B7          0 7385 or a
B3E5 CA 06 B4    0 7386 jp z, __LABEL377
B3E8 DD 7E FE    0 7387 ld a, (ix-2)
B3EB 6F          0 7388 ld l, a
B3EC 26 00       0 7389 ld h, 0
B3EE 2B          0 7390 dec hl
B3EF E5          0 7391 push hl
B3F0 DD 7E FF    0 7392 ld a, (ix-1)
B3F3 3D          0 7393 dec a
B3F4 6F          0 7394 ld l, a
B3F5 26 00       0 7395 ld h, 0
B3F7 2B          0 7396 dec hl
B3F8 E5          0 7397 push hl
B3F9 21 9F F8    0 7398 ld hl, _solidMap
B3FC CD B4 CC    0 7399 call __ARRAY
B3FF 7E          0 7400 ld a, (hl)
B400 DD 77 F9    0 7401 ld (ix-7), a
B403 C3 0A B4    0 7402 jp __LABEL378
B406             0 7403 __LABEL377:
B406 DD 36 F9 00 0 7404 ld (ix-7), 0
B40A             0 7405 __LABEL378:
B40A DD 7E FE    0 7406 ld a, (ix-2)
B40D F5          0 7407 push af
B40E 26 0C       0 7408 ld h, 12
B410 F1          0 7409 pop af
B411 BC          0 7410 cp h
B412 9F          0 7411 sbc a, a
B413 CD 65 D5    0 7412 call __NORMALIZE_BOOLEAN
B416 B7          0 7413 or a
B417 CA 39 B4    0 7414 jp z, __LABEL379
B41A DD 7E FE    0 7415 ld a, (ix-2)
B41D 3C          0 7416 inc a
B41E 6F          0 7417 ld l, a
B41F 26 00       0 7418 ld h, 0
B421 2B          0 7419 dec hl
B422 E5          0 7420 push hl
B423 DD 7E FF    0 7421 ld a, (ix-1)
B426 3D          0 7422 dec a
B427 6F          0 7423 ld l, a
B428 26 00       0 7424 ld h, 0
B42A 2B          0 7425 dec hl
B42B E5          0 7426 push hl
B42C 21 9F F8    0 7427 ld hl, _solidMap
B42F CD B4 CC    0 7428 call __ARRAY
B432 7E          0 7429 ld a, (hl)
B433 DD 77 F8    0 7430 ld (ix-8), a
B436 C3 3D B4    0 7431 jp __LABEL380
B439             0 7432 __LABEL379:
B439 DD 36 F8 00 0 7433 ld (ix-8), 0
B43D             0 7434 __LABEL380:
B43D DD 7E F9    0 7435 ld a, (ix-7)
B440 DD B6 F8    0 7436 or (ix-8)
B443 CD 65 D5    0 7437 call __NORMALIZE_BOOLEAN
B446 B7          0 7438 or a
B447 CA 72 B4    0 7439 jp z, __LABEL382
B44A DD 36 FD 00 0 7440 ld (ix-3), 0
B44E DD 7E F9    0 7441 ld a, (ix-7)
B451 D6 02       0 7442 sub 2
B453 D6 01       0 7443 sub 1
B455 9F          0 7444 sbc a, a
B456 CD 65 D5    0 7445 call __NORMALIZE_BOOLEAN
B459 F5          0 7446 push af
B45A DD 7E F8    0 7447 ld a, (ix-8)
B45D D6 02       0 7448 sub 2
B45F D6 01       0 7449 sub 1
B461 9F          0 7450 sbc a, a
B462 CD 65 D5    0 7451 call __NORMALIZE_BOOLEAN
B465 D1          0 7452 pop de
B466 B2          0 7453 or d
B467 CD 65 D5    0 7454 call __NORMALIZE_BOOLEAN
B46A B7          0 7455 or a
B46B CA 72 B4    0 7456 jp z, __LABEL384
B46E DD 36 F5 01 0 7457 ld (ix-11), 1
B472             0 7458 __LABEL384:
B472             0 7459 __LABEL382:
B472             0 7460 __LABEL376:
B472 C3 24 B5    0 7461 jp __LABEL374
B475             0 7462 __LABEL373:
B475 DD 7E FF    0 7463 ld a, (ix-1)
B478 D6 20       0 7464 sub 32
B47A D6 01       0 7465 sub 1
B47C 9F          0 7466 sbc a, a
B47D CD 65 D5    0 7467 call __NORMALIZE_BOOLEAN
B480 B7          0 7468 or a
B481 CA 8B B4    0 7469 jp z, __LABEL385
B484 DD 36 F6 01 0 7470 ld (ix-10), 1
B488 C3 24 B5    0 7471 jp __LABEL386
B48B             0 7472 __LABEL385:
B48B DD 7E FE    0 7473 ld a, (ix-2)
B48E F5          0 7474 push af
B48F AF          0 7475 xor a
B490 E1          0 7476 pop hl
B491 BC          0 7477 cp h
B492 9F          0 7478 sbc a, a
B493 CD 65 D5    0 7479 call __NORMALIZE_BOOLEAN
B496 B7          0 7480 or a
B497 CA B8 B4    0 7481 jp z, __LABEL387
B49A DD 7E FE    0 7482 ld a, (ix-2)
B49D 6F          0 7483 ld l, a
B49E 26 00       0 7484 ld h, 0
B4A0 2B          0 7485 dec hl
B4A1 E5          0 7486 push hl
B4A2 DD 7E FF    0 7487 ld a, (ix-1)
B4A5 3C          0 7488 inc a
B4A6 6F          0 7489 ld l, a
B4A7 26 00       0 7490 ld h, 0
B4A9 2B          0 7491 dec hl
B4AA E5          0 7492 push hl
B4AB 21 9F F8    0 7493 ld hl, _solidMap
B4AE CD B4 CC    0 7494 call __ARRAY
B4B1 7E          0 7495 ld a, (hl)
B4B2 DD 77 F9    0 7496 ld (ix-7), a
B4B5 C3 BC B4    0 7497 jp __LABEL388
B4B8             0 7498 __LABEL387:
B4B8 DD 36 F9 00 0 7499 ld (ix-7), 0
B4BC             0 7500 __LABEL388:
B4BC DD 7E FE    0 7501 ld a, (ix-2)
B4BF F5          0 7502 push af
B4C0 26 0C       0 7503 ld h, 12
B4C2 F1          0 7504 pop af
B4C3 BC          0 7505 cp h
B4C4 9F          0 7506 sbc a, a
B4C5 CD 65 D5    0 7507 call __NORMALIZE_BOOLEAN
B4C8 B7          0 7508 or a
B4C9 CA EB B4    0 7509 jp z, __LABEL389
B4CC DD 7E FE    0 7510 ld a, (ix-2)
B4CF 3C          0 7511 inc a
B4D0 6F          0 7512 ld l, a
B4D1 26 00       0 7513 ld h, 0
B4D3 2B          0 7514 dec hl
B4D4 E5          0 7515 push hl
B4D5 DD 7E FF    0 7516 ld a, (ix-1)
B4D8 3C          0 7517 inc a
B4D9 6F          0 7518 ld l, a
B4DA 26 00       0 7519 ld h, 0
B4DC 2B          0 7520 dec hl
B4DD E5          0 7521 push hl
B4DE 21 9F F8    0 7522 ld hl, _solidMap
B4E1 CD B4 CC    0 7523 call __ARRAY
B4E4 7E          0 7524 ld a, (hl)
B4E5 DD 77 F8    0 7525 ld (ix-8), a
B4E8 C3 EF B4    0 7526 jp __LABEL390
B4EB             0 7527 __LABEL389:
B4EB DD 36 F8 00 0 7528 ld (ix-8), 0
B4EF             0 7529 __LABEL390:
B4EF DD 7E F9    0 7530 ld a, (ix-7)
B4F2 DD B6 F8    0 7531 or (ix-8)
B4F5 CD 65 D5    0 7532 call __NORMALIZE_BOOLEAN
B4F8 B7          0 7533 or a
B4F9 CA 24 B5    0 7534 jp z, __LABEL392
B4FC DD 36 FD 00 0 7535 ld (ix-3), 0
B500 DD 7E F9    0 7536 ld a, (ix-7)
B503 D6 02       0 7537 sub 2
B505 D6 01       0 7538 sub 1
B507 9F          0 7539 sbc a, a
B508 CD 65 D5    0 7540 call __NORMALIZE_BOOLEAN
B50B F5          0 7541 push af
B50C DD 7E F8    0 7542 ld a, (ix-8)
B50F D6 02       0 7543 sub 2
B511 D6 01       0 7544 sub 1
B513 9F          0 7545 sbc a, a
B514 CD 65 D5    0 7546 call __NORMALIZE_BOOLEAN
B517 D1          0 7547 pop de
B518 B2          0 7548 or d
B519 CD 65 D5    0 7549 call __NORMALIZE_BOOLEAN
B51C B7          0 7550 or a
B51D CA 24 B5    0 7551 jp z, __LABEL394
B520 DD 36 F5 01 0 7552 ld (ix-11), 1
B524             0 7553 __LABEL394:
B524             0 7554 __LABEL392:
B524             0 7555 __LABEL386:
B524             0 7556 __LABEL374:
B524 C3 1E B7    0 7557 jp __LABEL372
B527             0 7558 __LABEL371:
B527 DD 7E FD    0 7559 ld a, (ix-3)
B52A D6 FE       0 7560 sub 254
B52C D6 01       0 7561 sub 1
B52E 9F          0 7562 sbc a, a
B52F CD 65 D5    0 7563 call __NORMALIZE_BOOLEAN
B532 B7          0 7564 or a
B533 CA 2B B6    0 7565 jp z, __LABEL395
B536 DD 7E FF    0 7566 ld a, (ix-1)
B539 3D          0 7567 dec a
B53A D6 01       0 7568 sub 1
B53C 9F          0 7569 sbc a, a
B53D CD 65 D5    0 7570 call __NORMALIZE_BOOLEAN
B540 B7          0 7571 or a
B541 CA 4B B5    0 7572 jp z, __LABEL397
B544 DD 36 F6 01 0 7573 ld (ix-10), 1
B548 C3 28 B6    0 7574 jp __LABEL398
B54B             0 7575 __LABEL397:
B54B DD 7E FE    0 7576 ld a, (ix-2)
B54E F5          0 7577 push af
B54F AF          0 7578 xor a
B550 E1          0 7579 pop hl
B551 BC          0 7580 cp h
B552 9F          0 7581 sbc a, a
B553 CD 65 D5    0 7582 call __NORMALIZE_BOOLEAN
B556 B7          0 7583 or a
B557 CA 78 B5    0 7584 jp z, __LABEL399
B55A DD 7E FE    0 7585 ld a, (ix-2)
B55D 6F          0 7586 ld l, a
B55E 26 00       0 7587 ld h, 0
B560 2B          0 7588 dec hl
B561 E5          0 7589 push hl
B562 DD 7E FF    0 7590 ld a, (ix-1)
B565 3D          0 7591 dec a
B566 6F          0 7592 ld l, a
B567 26 00       0 7593 ld h, 0
B569 2B          0 7594 dec hl
B56A E5          0 7595 push hl
B56B 21 9F F8    0 7596 ld hl, _solidMap
B56E CD B4 CC    0 7597 call __ARRAY
B571 7E          0 7598 ld a, (hl)
B572 DD 77 F9    0 7599 ld (ix-7), a
B575 C3 7C B5    0 7600 jp __LABEL400
B578             0 7601 __LABEL399:
B578 DD 36 F9 00 0 7602 ld (ix-7), 0
B57C             0 7603 __LABEL400:
B57C DD 7E FE    0 7604 ld a, (ix-2)
B57F F5          0 7605 push af
B580 26 0C       0 7606 ld h, 12
B582 F1          0 7607 pop af
B583 BC          0 7608 cp h
B584 9F          0 7609 sbc a, a
B585 CD 65 D5    0 7610 call __NORMALIZE_BOOLEAN
B588 B7          0 7611 or a
B589 CA AB B5    0 7612 jp z, __LABEL401
B58C DD 7E FE    0 7613 ld a, (ix-2)
B58F 3C          0 7614 inc a
B590 6F          0 7615 ld l, a
B591 26 00       0 7616 ld h, 0
B593 2B          0 7617 dec hl
B594 E5          0 7618 push hl
B595 DD 7E FF    0 7619 ld a, (ix-1)
B598 3D          0 7620 dec a
B599 6F          0 7621 ld l, a
B59A 26 00       0 7622 ld h, 0
B59C 2B          0 7623 dec hl
B59D E5          0 7624 push hl
B59E 21 9F F8    0 7625 ld hl, _solidMap
B5A1 CD B4 CC    0 7626 call __ARRAY
B5A4 7E          0 7627 ld a, (hl)
B5A5 DD 77 F8    0 7628 ld (ix-8), a
B5A8 C3 AF B5    0 7629 jp __LABEL402
B5AB             0 7630 __LABEL401:
B5AB DD 36 F8 00 0 7631 ld (ix-8), 0
B5AF             0 7632 __LABEL402:
B5AF DD 7E FE    0 7633 ld a, (ix-2)
B5B2 F5          0 7634 push af
B5B3 26 0B       0 7635 ld h, 11
B5B5 F1          0 7636 pop af
B5B6 BC          0 7637 cp h
B5B7 9F          0 7638 sbc a, a
B5B8 CD 65 D5    0 7639 call __NORMALIZE_BOOLEAN
B5BB B7          0 7640 or a
B5BC CA DF B5    0 7641 jp z, __LABEL403
B5BF DD 7E FE    0 7642 ld a, (ix-2)
B5C2 C6 02       0 7643 add a, 2
B5C4 6F          0 7644 ld l, a
B5C5 26 00       0 7645 ld h, 0
B5C7 2B          0 7646 dec hl
B5C8 E5          0 7647 push hl
B5C9 DD 7E FF    0 7648 ld a, (ix-1)
B5CC 3D          0 7649 dec a
B5CD 6F          0 7650 ld l, a
B5CE 26 00       0 7651 ld h, 0
B5D0 2B          0 7652 dec hl
B5D1 E5          0 7653 push hl
B5D2 21 9F F8    0 7654 ld hl, _solidMap
B5D5 CD B4 CC    0 7655 call __ARRAY
B5D8 7E          0 7656 ld a, (hl)
B5D9 DD 77 F7    0 7657 ld (ix-9), a
B5DC C3 E3 B5    0 7658 jp __LABEL404
B5DF             0 7659 __LABEL403:
B5DF DD 36 F7 00 0 7660 ld (ix-9), 0
B5E3             0 7661 __LABEL404:
B5E3 DD 7E F9    0 7662 ld a, (ix-7)
B5E6 DD B6 F8    0 7663 or (ix-8)
B5E9 DD B6 F7    0 7664 or (ix-9)
B5EC CA 28 B6    0 7665 jp z, __LABEL406
B5EF DD 36 FD 00 0 7666 ld (ix-3), 0
B5F3 DD 7E F9    0 7667 ld a, (ix-7)
B5F6 D6 02       0 7668 sub 2
B5F8 D6 01       0 7669 sub 1
B5FA 9F          0 7670 sbc a, a
B5FB CD 65 D5    0 7671 call __NORMALIZE_BOOLEAN
B5FE F5          0 7672 push af
B5FF DD 7E F8    0 7673 ld a, (ix-8)
B602 D6 02       0 7674 sub 2
B604 D6 01       0 7675 sub 1
B606 9F          0 7676 sbc a, a
B607 CD 65 D5    0 7677 call __NORMALIZE_BOOLEAN
B60A D1          0 7678 pop de
B60B B2          0 7679 or d
B60C CD 65 D5    0 7680 call __NORMALIZE_BOOLEAN
B60F F5          0 7681 push af
B610 DD 7E F7    0 7682 ld a, (ix-9)
B613 D6 02       0 7683 sub 2
B615 D6 01       0 7684 sub 1
B617 9F          0 7685 sbc a, a
B618 CD 65 D5    0 7686 call __NORMALIZE_BOOLEAN
B61B D1          0 7687 pop de
B61C B2          0 7688 or d
B61D CD 65 D5    0 7689 call __NORMALIZE_BOOLEAN
B620 B7          0 7690 or a
B621 CA 28 B6    0 7691 jp z, __LABEL408
B624 DD 36 F5 01 0 7692 ld (ix-11), 1
B628             0 7693 __LABEL408:
B628             0 7694 __LABEL406:
B628             0 7695 __LABEL398:
B628 C3 1E B7    0 7696 jp __LABEL396
B62B             0 7697 __LABEL395:
B62B DD 7E FF    0 7698 ld a, (ix-1)
B62E D6 20       0 7699 sub 32
B630 D6 01       0 7700 sub 1
B632 9F          0 7701 sbc a, a
B633 CD 65 D5    0 7702 call __NORMALIZE_BOOLEAN
B636 B7          0 7703 or a
B637 CA 41 B6    0 7704 jp z, __LABEL409
B63A DD 36 F6 01 0 7705 ld (ix-10), 1
B63E C3 1E B7    0 7706 jp __LABEL410
B641             0 7707 __LABEL409:
B641 DD 7E FE    0 7708 ld a, (ix-2)
B644 F5          0 7709 push af
B645 AF          0 7710 xor a
B646 E1          0 7711 pop hl
B647 BC          0 7712 cp h
B648 9F          0 7713 sbc a, a
B649 CD 65 D5    0 7714 call __NORMALIZE_BOOLEAN
B64C B7          0 7715 or a
B64D CA 6E B6    0 7716 jp z, __LABEL411
B650 DD 7E FE    0 7717 ld a, (ix-2)
B653 6F          0 7718 ld l, a
B654 26 00       0 7719 ld h, 0
B656 2B          0 7720 dec hl
B657 E5          0 7721 push hl
B658 DD 7E FF    0 7722 ld a, (ix-1)
B65B 3C          0 7723 inc a
B65C 6F          0 7724 ld l, a
B65D 26 00       0 7725 ld h, 0
B65F 2B          0 7726 dec hl
B660 E5          0 7727 push hl
B661 21 9F F8    0 7728 ld hl, _solidMap
B664 CD B4 CC    0 7729 call __ARRAY
B667 7E          0 7730 ld a, (hl)
B668 DD 77 F9    0 7731 ld (ix-7), a
B66B C3 72 B6    0 7732 jp __LABEL412
B66E             0 7733 __LABEL411:
B66E DD 36 F9 00 0 7734 ld (ix-7), 0
B672             0 7735 __LABEL412:
B672 DD 7E FE    0 7736 ld a, (ix-2)
B675 F5          0 7737 push af
B676 26 0C       0 7738 ld h, 12
B678 F1          0 7739 pop af
B679 BC          0 7740 cp h
B67A 9F          0 7741 sbc a, a
B67B CD 65 D5    0 7742 call __NORMALIZE_BOOLEAN
B67E B7          0 7743 or a
B67F CA A1 B6    0 7744 jp z, __LABEL413
B682 DD 7E FE    0 7745 ld a, (ix-2)
B685 3C          0 7746 inc a
B686 6F          0 7747 ld l, a
B687 26 00       0 7748 ld h, 0
B689 2B          0 7749 dec hl
B68A E5          0 7750 push hl
B68B DD 7E FF    0 7751 ld a, (ix-1)
B68E 3C          0 7752 inc a
B68F 6F          0 7753 ld l, a
B690 26 00       0 7754 ld h, 0
B692 2B          0 7755 dec hl
B693 E5          0 7756 push hl
B694 21 9F F8    0 7757 ld hl, _solidMap
B697 CD B4 CC    0 7758 call __ARRAY
B69A 7E          0 7759 ld a, (hl)
B69B DD 77 F8    0 7760 ld (ix-8), a
B69E C3 A5 B6    0 7761 jp __LABEL414
B6A1             0 7762 __LABEL413:
B6A1 DD 36 F8 00 0 7763 ld (ix-8), 0
B6A5             0 7764 __LABEL414:
B6A5 DD 7E FE    0 7765 ld a, (ix-2)
B6A8 F5          0 7766 push af
B6A9 26 0B       0 7767 ld h, 11
B6AB F1          0 7768 pop af
B6AC BC          0 7769 cp h
B6AD 9F          0 7770 sbc a, a
B6AE CD 65 D5    0 7771 call __NORMALIZE_BOOLEAN
B6B1 B7          0 7772 or a
B6B2 CA D5 B6    0 7773 jp z, __LABEL415
B6B5 DD 7E FE    0 7774 ld a, (ix-2)
B6B8 C6 02       0 7775 add a, 2
B6BA 6F          0 7776 ld l, a
B6BB 26 00       0 7777 ld h, 0
B6BD 2B          0 7778 dec hl
B6BE E5          0 7779 push hl
B6BF DD 7E FF    0 7780 ld a, (ix-1)
B6C2 3C          0 7781 inc a
B6C3 6F          0 7782 ld l, a
B6C4 26 00       0 7783 ld h, 0
B6C6 2B          0 7784 dec hl
B6C7 E5          0 7785 push hl
B6C8 21 9F F8    0 7786 ld hl, _solidMap
B6CB CD B4 CC    0 7787 call __ARRAY
B6CE 7E          0 7788 ld a, (hl)
B6CF DD 77 F7    0 7789 ld (ix-9), a
B6D2 C3 D9 B6    0 7790 jp __LABEL416
B6D5             0 7791 __LABEL415:
B6D5 DD 36 F7 00 0 7792 ld (ix-9), 0
B6D9             0 7793 __LABEL416:
B6D9 DD 7E F9    0 7794 ld a, (ix-7)
B6DC DD B6 F8    0 7795 or (ix-8)
B6DF DD B6 F7    0 7796 or (ix-9)
B6E2 CA 1E B7    0 7797 jp z, __LABEL418
B6E5 DD 36 FD 00 0 7798 ld (ix-3), 0
B6E9 DD 7E F9    0 7799 ld a, (ix-7)
B6EC D6 02       0 7800 sub 2
B6EE D6 01       0 7801 sub 1
B6F0 9F          0 7802 sbc a, a
B6F1 CD 65 D5    0 7803 call __NORMALIZE_BOOLEAN
B6F4 F5          0 7804 push af
B6F5 DD 7E F8    0 7805 ld a, (ix-8)
B6F8 D6 02       0 7806 sub 2
B6FA D6 01       0 7807 sub 1
B6FC 9F          0 7808 sbc a, a
B6FD CD 65 D5    0 7809 call __NORMALIZE_BOOLEAN
B700 D1          0 7810 pop de
B701 B2          0 7811 or d
B702 CD 65 D5    0 7812 call __NORMALIZE_BOOLEAN
B705 F5          0 7813 push af
B706 DD 7E F7    0 7814 ld a, (ix-9)
B709 D6 02       0 7815 sub 2
B70B D6 01       0 7816 sub 1
B70D 9F          0 7817 sbc a, a
B70E CD 65 D5    0 7818 call __NORMALIZE_BOOLEAN
B711 D1          0 7819 pop de
B712 B2          0 7820 or d
B713 CD 65 D5    0 7821 call __NORMALIZE_BOOLEAN
B716 B7          0 7822 or a
B717 CA 1E B7    0 7823 jp z, __LABEL420
B71A DD 36 F5 01 0 7824 ld (ix-11), 1
B71E             0 7825 __LABEL420:
B71E             0 7826 __LABEL418:
B71E             0 7827 __LABEL410:
B71E             0 7828 __LABEL396:
B71E             0 7829 __LABEL372:
B71E             0 7830 __LABEL370:
B71E AF          0 7831 xor a
B71F 32 2F D6    0 7832 ld (_playerMoved), a
B722 DD 7E F6    0 7833 ld a, (ix-10)
B725 B7          0 7834 or a
B726 CA 2E B7    0 7835 jp z, __LABEL421
B729 3E 02       0 7836 ld a, 2
B72B C3 B9 B7    0 7837 jp _movePlayer__leave
B72E             0 7838 __LABEL421:
B72E DD 7E F5    0 7839 ld a, (ix-11)
B731 B7          0 7840 or a
B732 CA 3A B7    0 7841 jp z, __LABEL423
B735 3E 01       0 7842 ld a, 1
B737 C3 B9 B7    0 7843 jp _movePlayer__leave
B73A             0 7844 __LABEL423:
B73A DD 7E FD    0 7845 ld a, (ix-3)
B73D DD B6 FC    0 7846 or (ix-4)
B740 CA 91 B7    0 7847 jp z, __LABEL426
B743 3A 25 D6    0 7848 ld a, (_playerX)
B746 32 27 D6    0 7849 ld (_prevPlayerX), a
B749 3A 26 D6    0 7850 ld a, (_playerY)
B74C 32 28 D6    0 7851 ld (_prevPlayerY), a
B74F 3A 25 D6    0 7852 ld a, (_playerX)
B752 DD 86 FD    0 7853 add a, (ix-3)
B755 32 25 D6    0 7854 ld (_playerX), a
B758 3A 26 D6    0 7855 ld a, (_playerY)
B75B DD 86 FC    0 7856 add a, (ix-4)
B75E 32 26 D6    0 7857 ld (_playerY), a
B761 DD 7E FD    0 7858 ld a, (ix-3)
B764 D6 02       0 7859 sub 2
B766 D6 01       0 7860 sub 1
B768 9F          0 7861 sbc a, a
B769 CD 65 D5    0 7862 call __NORMALIZE_BOOLEAN
B76C B7          0 7863 or a
B76D CA 78 B7    0 7864 jp z, __LABEL427
B770 3E 01       0 7865 ld a, 1
B772 32 29 D6    0 7866 ld (_playerDir), a
B775 C3 8C B7    0 7867 jp __LABEL428
B778             0 7868 __LABEL427:
B778 DD 7E FD    0 7869 ld a, (ix-3)
B77B D6 FE       0 7870 sub 254
B77D D6 01       0 7871 sub 1
B77F 9F          0 7872 sbc a, a
B780 CD 65 D5    0 7873 call __NORMALIZE_BOOLEAN
B783 B7          0 7874 or a
B784 CA 8C B7    0 7875 jp z, __LABEL430
B787 3E FF       0 7876 ld a, 255
B789 32 29 D6    0 7877 ld (_playerDir), a
B78C             0 7878 __LABEL430:
B78C             0 7879 __LABEL428:
B78C 3E 01       0 7880 ld a, 1
B78E 32 2F D6    0 7881 ld (_playerMoved), a
B791             0 7882 __LABEL426:
B791 3A 45 D6    0 7883 ld a, (_personX)
B794 CD 65 D5    0 7884 call __NORMALIZE_BOOLEAN
B797 F5          0 7885 push af
B798 3A 46 D6    0 7886 ld a, (_personY)
B79B F5          0 7887 push af
B79C 3A 45 D6    0 7888 ld a, (_personX)
B79F F5          0 7889 push af
B7A0 CD 10 A7    0 7890 call _checkPlayerCollision
B7A3 67          0 7891 ld h, a
B7A4 F1          0 7892 pop af
B7A5 B7          0 7893 or a
B7A6 28 01       0 7894 jr z, __LABEL709
B7A8 7C          0 7895 ld a, h
B7A9             0 7896 __LABEL709:
B7A9 CD 65 D5    0 7897 call __NORMALIZE_BOOLEAN
B7AC B7          0 7898 or a
B7AD CA B5 B7    0 7899 jp z, __LABEL432
B7B0 3E 03       0 7900 ld a, 3
B7B2 C3 B9 B7    0 7901 jp _movePlayer__leave
B7B5             0 7902 __LABEL432:
B7B5 AF          0 7903 xor a
B7B6 C3 B9 B7    0 7904 jp _movePlayer__leave
B7B9             0 7905 __LABEL424:
B7B9             0 7906 __LABEL422:
B7B9             0 7907 _movePlayer__leave:
B7B9 DD F9       0 7908 ld sp, ix
B7BB DD E1       0 7909 pop ix
B7BD C9          0 7910 ret
B7BE             0 7911 _drawPlayer:
B7BE DD E5       0 7912 push ix
B7C0 DD 21 00 00 0 7913 ld ix, 0
B7C4 DD 39       0 7914 add ix, sp
B7C6 3A 2F D6    0 7915 ld a, (_playerMoved)
B7C9 B7          0 7916 or a
B7CA CA 17 B8    0 7917 jp z, __LABEL433
B7CD 3A 27 D6    0 7918 ld a, (_prevPlayerX)
B7D0 6F          0 7919 ld l, a
B7D1 26 00       0 7920 ld h, 0
B7D3 E5          0 7921 push hl
B7D4 3A 28 D6    0 7922 ld a, (_prevPlayerY)
B7D7 6F          0 7923 ld l, a
B7D8 26 00       0 7924 ld h, 0
B7DA E5          0 7925 push hl
B7DB 2A 2B D6    0 7926 ld hl, (_lastHead)
B7DE CD D4 8C    0 7927 call _drawSprite
B7E1 3A 27 D6    0 7928 ld a, (_prevPlayerX)
B7E4 6F          0 7929 ld l, a
B7E5 26 00       0 7930 ld h, 0
B7E7 E5          0 7931 push hl
B7E8 3A 28 D6    0 7932 ld a, (_prevPlayerY)
B7EB C6 08       0 7933 add a, 8
B7ED 6F          0 7934 ld l, a
B7EE 26 00       0 7935 ld h, 0
B7F0 E5          0 7936 push hl
B7F1 2A 2D D6    0 7937 ld hl, (_lastBody)
B7F4 CD D4 8C    0 7938 call _drawSprite
B7F7 3A 29 D6    0 7939 ld a, (_playerDir)
B7FA 3D          0 7940 dec a
B7FB D6 01       0 7941 sub 1
B7FD 9F          0 7942 sbc a, a
B7FE CD 65 D5    0 7943 call __NORMALIZE_BOOLEAN
B801 B7          0 7944 or a
B802 CA 0E B8    0 7945 jp z, __LABEL435
B805 21 D1 F7    0 7946 ld hl, _body2r.__DATA__
B808 22 2D D6    0 7947 ld (_lastBody), hl
B80B C3 14 B8    0 7948 jp __LABEL436
B80E             0 7949 __LABEL435:
B80E 21 0D F8    0 7950 ld hl, _body2l.__DATA__
B811 22 2D D6    0 7951 ld (_lastBody), hl
B814             0 7952 __LABEL436:
B814 C3 5E B8    0 7953 jp __LABEL434
B817             0 7954 __LABEL433:
B817 3A 25 D6    0 7955 ld a, (_playerX)
B81A 6F          0 7956 ld l, a
B81B 26 00       0 7957 ld h, 0
B81D E5          0 7958 push hl
B81E 3A 26 D6    0 7959 ld a, (_playerY)
B821 6F          0 7960 ld l, a
B822 26 00       0 7961 ld h, 0
B824 E5          0 7962 push hl
B825 2A 2B D6    0 7963 ld hl, (_lastHead)
B828 CD D4 8C    0 7964 call _drawSprite
B82B 3A 25 D6    0 7965 ld a, (_playerX)
B82E 6F          0 7966 ld l, a
B82F 26 00       0 7967 ld h, 0
B831 E5          0 7968 push hl
B832 3A 26 D6    0 7969 ld a, (_playerY)
B835 C6 08       0 7970 add a, 8
B837 6F          0 7971 ld l, a
B838 26 00       0 7972 ld h, 0
B83A E5          0 7973 push hl
B83B 2A 2D D6    0 7974 ld hl, (_lastBody)
B83E CD D4 8C    0 7975 call _drawSprite
B841 3A 29 D6    0 7976 ld a, (_playerDir)
B844 3D          0 7977 dec a
B845 D6 01       0 7978 sub 1
B847 9F          0 7979 sbc a, a
B848 CD 65 D5    0 7980 call __NORMALIZE_BOOLEAN
B84B B7          0 7981 or a
B84C CA 58 B8    0 7982 jp z, __LABEL437
B84F 21 C2 F7    0 7983 ld hl, _body1r.__DATA__
B852 22 2D D6    0 7984 ld (_lastBody), hl
B855 C3 5E B8    0 7985 jp __LABEL438
B858             0 7986 __LABEL437:
B858 21 FE F7    0 7987 ld hl, _body1l.__DATA__
B85B 22 2D D6    0 7988 ld (_lastBody), hl
B85E             0 7989 __LABEL438:
B85E             0 7990 __LABEL434:
B85E 3A 29 D6    0 7991 ld a, (_playerDir)
B861 3D          0 7992 dec a
B862 D6 01       0 7993 sub 1
B864 9F          0 7994 sbc a, a
B865 CD 65 D5    0 7995 call __NORMALIZE_BOOLEAN
B868 B7          0 7996 or a
B869 CA 8E B8    0 7997 jp z, __LABEL439
B86C 11 A4 F7    0 7998 ld de, _head1r.__DATA__
B86F 2A 2B D6    0 7999 ld hl, (_lastHead)
B872 CD 6E D2    0 8000 call __EQ16
B875 CD 65 D5    0 8001 call __NORMALIZE_BOOLEAN
B878 B7          0 8002 or a
B879 CA 85 B8    0 8003 jp z, __LABEL441
B87C 21 B3 F7    0 8004 ld hl, _head2r.__DATA__
B87F 22 2B D6    0 8005 ld (_lastHead), hl
B882 C3 8B B8    0 8006 jp __LABEL442
B885             0 8007 __LABEL441:
B885 21 A4 F7    0 8008 ld hl, _head1r.__DATA__
B888 22 2B D6    0 8009 ld (_lastHead), hl
B88B             0 8010 __LABEL442:
B88B C3 AD B8    0 8011 jp __LABEL440
B88E             0 8012 __LABEL439:
B88E 11 E0 F7    0 8013 ld de, _head1l.__DATA__
B891 2A 2B D6    0 8014 ld hl, (_lastHead)
B894 CD 6E D2    0 8015 call __EQ16
B897 CD 65 D5    0 8016 call __NORMALIZE_BOOLEAN
B89A B7          0 8017 or a
B89B CA A7 B8    0 8018 jp z, __LABEL443
B89E 21 EF F7    0 8019 ld hl, _head2l.__DATA__
B8A1 22 2B D6    0 8020 ld (_lastHead), hl
B8A4 C3 AD B8    0 8021 jp __LABEL444
B8A7             0 8022 __LABEL443:
B8A7 21 E0 F7    0 8023 ld hl, _head1l.__DATA__
B8AA 22 2B D6    0 8024 ld (_lastHead), hl
B8AD             0 8025 __LABEL444:
B8AD             0 8026 __LABEL440:
B8AD 3A 25 D6    0 8027 ld a, (_playerX)
B8B0 6F          0 8028 ld l, a
B8B1 26 00       0 8029 ld h, 0
B8B3 E5          0 8030 push hl
B8B4 3A 26 D6    0 8031 ld a, (_playerY)
B8B7 6F          0 8032 ld l, a
B8B8 26 00       0 8033 ld h, 0
B8BA E5          0 8034 push hl
B8BB 2A 2B D6    0 8035 ld hl, (_lastHead)
B8BE CD D4 8C    0 8036 call _drawSprite
B8C1 3A 25 D6    0 8037 ld a, (_playerX)
B8C4 6F          0 8038 ld l, a
B8C5 26 00       0 8039 ld h, 0
B8C7 E5          0 8040 push hl
B8C8 3A 26 D6    0 8041 ld a, (_playerY)
B8CB C6 08       0 8042 add a, 8
B8CD 6F          0 8043 ld l, a
B8CE 26 00       0 8044 ld h, 0
B8D0 E5          0 8045 push hl
B8D1 2A 2D D6    0 8046 ld hl, (_lastBody)
B8D4 CD D4 8C    0 8047 call _drawSprite
B8D7             0 8048 _drawPlayer__leave:
B8D7 DD F9       0 8049 ld sp, ix
B8D9 DD E1       0 8050 pop ix
B8DB C9          0 8051 ret
B8DC             0 8052 _keybScan:
B8DC DD E5       0 8053 push ix
B8DE DD 21 00 00 0 8054 ld ix, 0
B8E2 DD 39       0 8055 add ix, sp
B8E4 DD E5       0 8057 push ix
B8E6 DD 21 E0 FA 0 8058 ld ix, _keyStates.__DATA__
B8EA DD 36 00 00 0 8059 ld (ix+0), 0
B8EE DD 36 01 00 0 8060 ld (ix+1), 0
B8F2 DD 36 02 00 0 8061 ld (ix+2), 0
B8F6 DD 36 03 00 0 8062 ld (ix+3), 0
B8FA DD 36 04 00 0 8063 ld (ix+4), 0
B8FE 01 FE DF    0 8064 ld bc, 57342
B901 ED 78       0 8065 in a, (c)
B903 1F          0 8066 rra
B904 DA 0B B9    0 8067 jp c, key_test_o
B907 DD 36 01 01 0 8068 ld (ix +1), 1
B90B             0 8069 key_test_o:
B90B 1F          0 8070 rra
B90C DA 13 B9    0 8071 jp c, key_test_q
B90F DD 36 00 01 0 8072 ld (ix+0), 1
B913             0 8073 key_test_q:
B913 01 FE FB    0 8074 ld bc, 64510
B916 ED 78       0 8075 in a, (c)
B918 1F          0 8076 rra
B919 DA 20 B9    0 8077 jp c, key_test_a
B91C DD 36 02 01 0 8078 ld (ix + 2), 1
B920             0 8079 key_test_a
B920 01 FE FD    0 8080 ld bc, 65022
B923 ED 78       0 8081 in a, (c)
B925 1F          0 8082 rra
B926 DA 2D B9    0 8083 jp c, key_test_fire
B929 DD 36 03 01 0 8084 ld (ix + 3), 1
B92D             0 8085 key_test_fire
B92D 01 FE 7F    0 8086 ld bc, 32766
B930 ED 78       0 8087 in a, (c)
B932 E6 1F       0 8088 and 31
B934 EE 1F       0 8089 xor 31
B936 CA 3D B9    0 8090 jp z, end_keyscan
B939 DD 36 04 01 0 8091 ld (ix + 4), 1
B93D             0 8092 end_keyscan
B93D DD E1       0 8093 pop ix
B93F             0 8095 _keybScan__leave:
B93F DD F9       0 8096 ld sp, ix
B941 DD E1       0 8097 pop ix
B943 C9          0 8098 ret
B944             0 8099 _longPause:
B944 DD E5       0 8100 push ix
B946 DD 21 00 00 0 8101 ld ix, 0
B94A DD 39       0 8102 add ix, sp
B94C F3          0 8104 di
B94D FB          0 8105 ei
B94E 3E 14       0 8106 ld a, 20
B950             0 8107 pause_loop:
B950 76          0 8108 halt
B951 3D          0 8109 dec a
B952 20 FC       0 8110 jr nz, pause_loop
B954 F3          0 8111 di
B955             0 8113 _longPause__leave:
B955 DD F9       0 8114 ld sp, ix
B957 DD E1       0 8115 pop ix
B959 C9          0 8116 ret
B95A             0 8117 _processDeath:
B95A DD E5       0 8118 push ix
B95C DD 21 00 00 0 8119 ld ix, 0
B960 DD 39       0 8120 add ix, sp
B962 F3          0 8122 di
B963 FB          0 8123 ei
B964 76          0 8124 halt
B965 F3          0 8125 di
B966 AF          0 8127 xor a
B967 F5          0 8128 push af
B968 3E 01       0 8129 ld a, 1
B96A F5          0 8130 push af
B96B 3E 02       0 8131 ld a, 2
B96D F5          0 8132 push af
B96E AF          0 8133 xor a
B96F CD C8 89    0 8134 call _createAttrib
B972 CD 63 91    0 8135 call _dumpAttribCenter
B975 F3          0 8137 di
B976 FB          0 8138 ei
B977 76          0 8139 halt
B978 76          0 8140 halt
B979 76          0 8141 halt
B97A 76          0 8142 halt
B97B F3          0 8143 di
B97C CD 17 91    0 8145 call _dumpAttribsCenter
B97F 3E 01       0 8146 ld a, 1
B981 CD 7C C0    0 8147 call _playAudio
B984 3A 25 D6    0 8148 ld a, (_playerX)
B987 6F          0 8149 ld l, a
B988 26 00       0 8150 ld h, 0
B98A E5          0 8151 push hl
B98B 3A 26 D6    0 8152 ld a, (_playerY)
B98E 6F          0 8153 ld l, a
B98F 26 00       0 8154 ld h, 0
B991 E5          0 8155 push hl
B992 2A 2B D6    0 8156 ld hl, (_lastHead)
B995 CD D4 8C    0 8157 call _drawSprite
B998 3A 25 D6    0 8158 ld a, (_playerX)
B99B 6F          0 8159 ld l, a
B99C 26 00       0 8160 ld h, 0
B99E E5          0 8161 push hl
B99F 3A 26 D6    0 8162 ld a, (_playerY)
B9A2 C6 08       0 8163 add a, 8
B9A4 6F          0 8164 ld l, a
B9A5 26 00       0 8165 ld h, 0
B9A7 E5          0 8166 push hl
B9A8 2A 2D D6    0 8167 ld hl, (_lastBody)
B9AB CD D4 8C    0 8168 call _drawSprite
B9AE 3A 25 D6    0 8169 ld a, (_playerX)
B9B1 6F          0 8170 ld l, a
B9B2 26 00       0 8171 ld h, 0
B9B4 E5          0 8172 push hl
B9B5 3A 26 D6    0 8173 ld a, (_playerY)
B9B8 6F          0 8174 ld l, a
B9B9 26 00       0 8175 ld h, 0
B9BB E5          0 8176 push hl
B9BC 21 1C F8    0 8177 ld hl, _death1u.__DATA__
B9BF CD D4 8C    0 8178 call _drawSprite
B9C2 3A 25 D6    0 8179 ld a, (_playerX)
B9C5 6F          0 8180 ld l, a
B9C6 26 00       0 8181 ld h, 0
B9C8 E5          0 8182 push hl
B9C9 3A 26 D6    0 8183 ld a, (_playerY)
B9CC C6 08       0 8184 add a, 8
B9CE 6F          0 8185 ld l, a
B9CF 26 00       0 8186 ld h, 0
B9D1 E5          0 8187 push hl
B9D2 21 2B F8    0 8188 ld hl, _death1d.__DATA__
B9D5 CD D4 8C    0 8189 call _drawSprite
B9D8 CD 0D 90    0 8190 call _dumpScreenCenter
B9DB CD 44 B9    0 8191 call _longPause
B9DE 3A 25 D6    0 8192 ld a, (_playerX)
B9E1 6F          0 8193 ld l, a
B9E2 26 00       0 8194 ld h, 0
B9E4 E5          0 8195 push hl
B9E5 3A 26 D6    0 8196 ld a, (_playerY)
B9E8 6F          0 8197 ld l, a
B9E9 26 00       0 8198 ld h, 0
B9EB E5          0 8199 push hl
B9EC 21 1C F8    0 8200 ld hl, _death1u.__DATA__
B9EF CD D4 8C    0 8201 call _drawSprite
B9F2 3A 25 D6    0 8202 ld a, (_playerX)
B9F5 6F          0 8203 ld l, a
B9F6 26 00       0 8204 ld h, 0
B9F8 E5          0 8205 push hl
B9F9 3A 26 D6    0 8206 ld a, (_playerY)
B9FC C6 08       0 8207 add a, 8
B9FE 6F          0 8208 ld l, a
B9FF 26 00       0 8209 ld h, 0
BA01 E5          0 8210 push hl
BA02 21 2B F8    0 8211 ld hl, _death1d.__DATA__
BA05 CD D4 8C    0 8212 call _drawSprite
BA08 3A 25 D6    0 8213 ld a, (_playerX)
BA0B 6F          0 8214 ld l, a
BA0C 26 00       0 8215 ld h, 0
BA0E E5          0 8216 push hl
BA0F 3A 26 D6    0 8217 ld a, (_playerY)
BA12 6F          0 8218 ld l, a
BA13 26 00       0 8219 ld h, 0
BA15 E5          0 8220 push hl
BA16 21 3A F8    0 8221 ld hl, _death2u.__DATA__
BA19 CD D4 8C    0 8222 call _drawSprite
BA1C 3A 25 D6    0 8223 ld a, (_playerX)
BA1F 6F          0 8224 ld l, a
BA20 26 00       0 8225 ld h, 0
BA22 E5          0 8226 push hl
BA23 3A 26 D6    0 8227 ld a, (_playerY)
BA26 C6 08       0 8228 add a, 8
BA28 6F          0 8229 ld l, a
BA29 26 00       0 8230 ld h, 0
BA2B E5          0 8231 push hl
BA2C 21 49 F8    0 8232 ld hl, _death2d.__DATA__
BA2F CD D4 8C    0 8233 call _drawSprite
BA32 CD 0D 90    0 8234 call _dumpScreenCenter
BA35 CD 44 B9    0 8235 call _longPause
BA38 3A 25 D6    0 8236 ld a, (_playerX)
BA3B 6F          0 8237 ld l, a
BA3C 26 00       0 8238 ld h, 0
BA3E E5          0 8239 push hl
BA3F 3A 26 D6    0 8240 ld a, (_playerY)
BA42 6F          0 8241 ld l, a
BA43 26 00       0 8242 ld h, 0
BA45 E5          0 8243 push hl
BA46 21 3A F8    0 8244 ld hl, _death2u.__DATA__
BA49 CD D4 8C    0 8245 call _drawSprite
BA4C 3A 25 D6    0 8246 ld a, (_playerX)
BA4F 6F          0 8247 ld l, a
BA50 26 00       0 8248 ld h, 0
BA52 E5          0 8249 push hl
BA53 3A 26 D6    0 8250 ld a, (_playerY)
BA56 C6 08       0 8251 add a, 8
BA58 6F          0 8252 ld l, a
BA59 26 00       0 8253 ld h, 0
BA5B E5          0 8254 push hl
BA5C 21 49 F8    0 8255 ld hl, _death2d.__DATA__
BA5F CD D4 8C    0 8256 call _drawSprite
BA62 21 35 D6    0 8257 ld hl, _lifes
BA65 35          0 8258 dec (hl)
BA66 AF          0 8259 xor a
BA67 F5          0 8260 push af
BA68 3A 35 D6    0 8261 ld a, (_lifes)
BA6B 87          0 8262 add a, a
BA6C F5          0 8263 push af
BA6D 3E 15       0 8264 ld a, 21
BA6F F5          0 8265 push af
BA70 CD 1A 85    0 8266 call _setattr
BA73 AF          0 8267 xor a
BA74 F5          0 8268 push af
BA75 3A 35 D6    0 8269 ld a, (_lifes)
BA78 87          0 8270 add a, a
BA79 F5          0 8271 push af
BA7A 3E 16       0 8272 ld a, 22
BA7C F5          0 8273 push af
BA7D CD 1A 85    0 8274 call _setattr
BA80 CD 0D 90    0 8275 call _dumpScreenCenter
BA83 CD 44 B9    0 8276 call _longPause
BA86 AF          0 8277 xor a
BA87 2A 34 D6    0 8278 ld hl, (_lifes - 1)
BA8A BC          0 8279 cp h
BA8B 9F          0 8280 sbc a, a
BA8C CD 65 D5    0 8281 call __NORMALIZE_BOOLEAN
BA8F             0 8282 _processDeath__leave:
BA8F DD F9       0 8283 ld sp, ix
BA91 DD E1       0 8284 pop ix
BA93 C9          0 8285 ret
BA94             0 8286 _render:
BA94 DD E5       0 8287 push ix
BA96 DD 21 00 00 0 8288 ld ix, 0
BA9A DD 39       0 8289 add ix, sp
BA9C CD BE B7    0 8290 call _drawPlayer
BA9F CD 9C B0    0 8291 call _drawShot
BAA2 CD 08 AC    0 8292 call _drawEnemies
BAA5 CD 8E BF    0 8293 call _drawDynamite
BAA8 3A 1E D6    0 8294 ld a, (_enemyCount)
BAAB FE 05       0 8295 cp 5
BAAD 9F          0 8296 sbc a, a
BAAE CD 65 D5    0 8297 call __NORMALIZE_BOOLEAN
BAB1 F5          0 8298 push af
BAB2 3A 42 D6    0 8299 ld a, (_shotX)
BAB5 D6 01       0 8300 sub 1
BAB7 9F          0 8301 sbc a, a
BAB8 CD 65 D5    0 8302 call __NORMALIZE_BOOLEAN
BABB 67          0 8303 ld h, a
BABC F1          0 8304 pop af
BABD B7          0 8305 or a
BABE 28 01       0 8306 jr z, __LABEL710
BAC0 7C          0 8307 ld a, h
BAC1             0 8308 __LABEL710:
BAC1 CD 65 D5    0 8309 call __NORMALIZE_BOOLEAN
BAC4 B7          0 8310 or a
BAC5 CA CC BA    0 8311 jp z, __LABEL446
BAC8 F3          0 8313 di
BAC9 FB          0 8314 ei
BACA 76          0 8315 halt
BACB F3          0 8316 di
BACC             0 8318 __LABEL446:
BACC 3A 22 D6    0 8319 ld a, (_lightOn)
BACF B7          0 8320 or a
BAD0 CA D9 BA    0 8321 jp z, __LABEL447
BAD3 CD 0D 90    0 8322 call _dumpScreenCenter
BAD6 C3 DC BA    0 8323 jp __LABEL448
BAD9             0 8324 __LABEL447:
BAD9 CD DF 8E    0 8325 call _dumpPixelsCenter
BADC             0 8326 __LABEL448:
BADC             0 8327 _render__leave:
BADC DD F9       0 8328 ld sp, ix
BADE DD E1       0 8329 pop ix
BAE0 C9          0 8330 ret
BAE1             0 8331 _gameOver:
BAE1 DD E5       0 8332 push ix
BAE3 DD 21 00 00 0 8333 ld ix, 0
BAE7 DD 39       0 8334 add ix, sp
BAE9 21 00 00    0 8335 ld hl, 0
BAEC E5          0 8336 push hl
BAED 33          0 8337 inc sp
BAEE DD 36 FF 0A 0 8338 ld (ix-1), 10
BAF2 C3 20 BB    0 8339 jp __LABEL449
BAF5             0 8340 __LABEL452:
BAF5 AF          0 8341 xor a
BAF6 F5          0 8342 push af
BAF7 3E 01       0 8343 ld a, 1
BAF9 F5          0 8344 push af
BAFA AF          0 8345 xor a
BAFB F5          0 8346 push af
BAFC 3E 07       0 8347 ld a, 7
BAFE CD C8 89    0 8348 call _createAttrib
BB01 6F          0 8349 ld l, a
BB02 26 00       0 8350 ld h, 0
BB04 E5          0 8351 push hl
BB05 DD 7E FF    0 8352 ld a, (ix-1)
BB08 6F          0 8353 ld l, a
BB09 26 00       0 8354 ld h, 0
BB0B E5          0 8355 push hl
BB0C 21 0A 00    0 8356 ld hl, 10
BB0F E5          0 8357 push hl
BB10 21 58 F8    0 8358 ld hl, _skull.__DATA__
BB13 CD 16 8B    0 8359 call _printColorChar
BB16 F3          0 8361 di
BB17 FB          0 8362 ei
BB18 76          0 8363 halt
BB19 F3          0 8364 di
BB1A CD 0D 90    0 8366 call _dumpScreenCenter
BB1D             0 8367 __LABEL453:
BB1D DD 34 FF    0 8368 inc (ix-1)
BB20             0 8369 __LABEL449:
BB20 DD 7E FF    0 8370 ld a, (ix-1)
BB23 F5          0 8371 push af
BB24 3E 15       0 8372 ld a, 21
BB26 E1          0 8373 pop hl
BB27 BC          0 8374 cp h
BB28 9F          0 8375 sbc a, a
BB29 CD 65 D5    0 8376 call __NORMALIZE_BOOLEAN
BB2C B7          0 8377 or a
BB2D CA F5 BA    0 8378 jp z, __LABEL452
BB30             0 8379 __LABEL451:
BB30 DD 36 FF 0B 0 8380 ld (ix-1), 11
BB34 C3 62 BB    0 8381 jp __LABEL454
BB37             0 8382 __LABEL457:
BB37 AF          0 8383 xor a
BB38 F5          0 8384 push af
BB39 3E 01       0 8385 ld a, 1
BB3B F5          0 8386 push af
BB3C AF          0 8387 xor a
BB3D F5          0 8388 push af
BB3E 3E 07       0 8389 ld a, 7
BB40 CD C8 89    0 8390 call _createAttrib
BB43 6F          0 8391 ld l, a
BB44 26 00       0 8392 ld h, 0
BB46 E5          0 8393 push hl
BB47 21 15 00    0 8394 ld hl, 21
BB4A E5          0 8395 push hl
BB4B DD 7E FF    0 8396 ld a, (ix-1)
BB4E 6F          0 8397 ld l, a
BB4F 26 00       0 8398 ld h, 0
BB51 E5          0 8399 push hl
BB52 21 58 F8    0 8400 ld hl, _skull.__DATA__
BB55 CD 16 8B    0 8401 call _printColorChar
BB58 F3          0 8403 di
BB59 FB          0 8404 ei
BB5A 76          0 8405 halt
BB5B F3          0 8406 di
BB5C CD 0D 90    0 8408 call _dumpScreenCenter
BB5F             0 8409 __LABEL458:
BB5F DD 34 FF    0 8410 inc (ix-1)
BB62             0 8411 __LABEL454:
BB62 DD 7E FF    0 8412 ld a, (ix-1)
BB65 F5          0 8413 push af
BB66 3E 0D       0 8414 ld a, 13
BB68 E1          0 8415 pop hl
BB69 BC          0 8416 cp h
BB6A 9F          0 8417 sbc a, a
BB6B CD 65 D5    0 8418 call __NORMALIZE_BOOLEAN
BB6E B7          0 8419 or a
BB6F CA 37 BB    0 8420 jp z, __LABEL457
BB72             0 8421 __LABEL456:
BB72 DD 36 FF 15 0 8422 ld (ix-1), 21
BB76 C3 A4 BB    0 8423 jp __LABEL459
BB79             0 8424 __LABEL462:
BB79 AF          0 8425 xor a
BB7A F5          0 8426 push af
BB7B 3E 01       0 8427 ld a, 1
BB7D F5          0 8428 push af
BB7E AF          0 8429 xor a
BB7F F5          0 8430 push af
BB80 3E 07       0 8431 ld a, 7
BB82 CD C8 89    0 8432 call _createAttrib
BB85 6F          0 8433 ld l, a
BB86 26 00       0 8434 ld h, 0
BB88 E5          0 8435 push hl
BB89 DD 7E FF    0 8436 ld a, (ix-1)
BB8C 6F          0 8437 ld l, a
BB8D 26 00       0 8438 ld h, 0
BB8F E5          0 8439 push hl
BB90 21 0E 00    0 8440 ld hl, 14
BB93 E5          0 8441 push hl
BB94 21 58 F8    0 8442 ld hl, _skull.__DATA__
BB97 CD 16 8B    0 8443 call _printColorChar
BB9A F3          0 8445 di
BB9B FB          0 8446 ei
BB9C 76          0 8447 halt
BB9D F3          0 8448 di
BB9E CD 0D 90    0 8450 call _dumpScreenCenter
BBA1             0 8451 __LABEL463:
BBA1 DD 35 FF    0 8452 dec (ix-1)
BBA4             0 8453 __LABEL459:
BBA4 DD 7E FF    0 8454 ld a, (ix-1)
BBA7 F5          0 8455 push af
BBA8 26 0A       0 8456 ld h, 10
BBAA F1          0 8457 pop af
BBAB BC          0 8458 cp h
BBAC 9F          0 8459 sbc a, a
BBAD CD 65 D5    0 8460 call __NORMALIZE_BOOLEAN
BBB0 B7          0 8461 or a
BBB1 CA 79 BB    0 8462 jp z, __LABEL462
BBB4             0 8463 __LABEL461:
BBB4 DD 36 FF 0D 0 8464 ld (ix-1), 13
BBB8 C3 E6 BB    0 8465 jp __LABEL464
BBBB             0 8466 __LABEL467:
BBBB AF          0 8467 xor a
BBBC F5          0 8468 push af
BBBD 3E 01       0 8469 ld a, 1
BBBF F5          0 8470 push af
BBC0 AF          0 8471 xor a
BBC1 F5          0 8472 push af
BBC2 3E 07       0 8473 ld a, 7
BBC4 CD C8 89    0 8474 call _createAttrib
BBC7 6F          0 8475 ld l, a
BBC8 26 00       0 8476 ld h, 0
BBCA E5          0 8477 push hl
BBCB 21 0A 00    0 8478 ld hl, 10
BBCE E5          0 8479 push hl
BBCF DD 7E FF    0 8480 ld a, (ix-1)
BBD2 6F          0 8481 ld l, a
BBD3 26 00       0 8482 ld h, 0
BBD5 E5          0 8483 push hl
BBD6 21 58 F8    0 8484 ld hl, _skull.__DATA__
BBD9 CD 16 8B    0 8485 call _printColorChar
BBDC F3          0 8487 di
BBDD FB          0 8488 ei
BBDE 76          0 8489 halt
BBDF F3          0 8490 di
BBE0 CD 0D 90    0 8492 call _dumpScreenCenter
BBE3             0 8493 __LABEL468:
BBE3 DD 35 FF    0 8494 dec (ix-1)
BBE6             0 8495 __LABEL464:
BBE6 DD 7E FF    0 8496 ld a, (ix-1)
BBE9 F5          0 8497 push af
BBEA 26 0B       0 8498 ld h, 11
BBEC F1          0 8499 pop af
BBED BC          0 8500 cp h
BBEE 9F          0 8501 sbc a, a
BBEF CD 65 D5    0 8502 call __NORMALIZE_BOOLEAN
BBF2 B7          0 8503 or a
BBF3 CA BB BB    0 8504 jp z, __LABEL467
BBF6             0 8505 __LABEL466:
BBF6 AF          0 8506 xor a
BBF7 F5          0 8507 push af
BBF8 3E 0B       0 8508 ld a, 11
BBFA F5          0 8509 push af
BBFB 3E 0B       0 8510 ld a, 11
BBFD F5          0 8511 push af
BBFE 21 B6 CB    0 8512 ld hl, __LABEL469
BC01 CD 89 D3    0 8513 call __LOADSTR
BC04 E5          0 8514 push hl
BC05 CD 10 89    0 8515 call _printZXString
BC08 AF          0 8516 xor a
BC09 F5          0 8517 push af
BC0A 3E 01       0 8518 ld a, 1
BC0C F5          0 8519 push af
BC0D AF          0 8520 xor a
BC0E F5          0 8521 push af
BC0F 3E 02       0 8522 ld a, 2
BC11 CD C8 89    0 8523 call _createAttrib
BC14 F5          0 8524 push af
BC15 3E 0B       0 8525 ld a, 11
BC17 F5          0 8526 push af
BC18 3E 0C       0 8527 ld a, 12
BC1A F5          0 8528 push af
BC1B 21 C2 CB    0 8529 ld hl, __LABEL470
BC1E CD 89 D3    0 8530 call __LOADSTR
BC21 E5          0 8531 push hl
BC22 CD 10 89    0 8532 call _printZXString
BC25 AF          0 8533 xor a
BC26 F5          0 8534 push af
BC27 3E 0B       0 8535 ld a, 11
BC29 F5          0 8536 push af
BC2A 3E 0D       0 8537 ld a, 13
BC2C F5          0 8538 push af
BC2D 21 B6 CB    0 8539 ld hl, __LABEL469
BC30 CD 89 D3    0 8540 call __LOADSTR
BC33 E5          0 8541 push hl
BC34 CD 10 89    0 8542 call _printZXString
BC37 F3          0 8544 di
BC38 FB          0 8545 ei
BC39 76          0 8546 halt
BC3A F3          0 8547 di
BC3B CD 0D 90    0 8549 call _dumpScreenCenter
BC3E 3E 06       0 8550 ld a, 6
BC40 CD 7C C0    0 8551 call _playAudio
BC43 CD 7D 91    0 8552 call _waitSpace
BC46             0 8553 _gameOver__leave:
BC46 DD F9       0 8554 ld sp, ix
BC48 DD E1       0 8555 pop ix
BC4A C9          0 8556 ret
BC4B             0 8557 _checkDynamite:
BC4B DD E5       0 8558 push ix
BC4D DD 21 00 00 0 8559 ld ix, 0
BC51 DD 39       0 8560 add ix, sp
BC53 21 00 00    0 8561 ld hl, 0
BC56 E5          0 8562 push hl
BC57 E5          0 8563 push hl
BC58 E5          0 8564 push hl
BC59 3A 30 D6    0 8565 ld a, (_dynaCounter)
BC5C FE 19       0 8566 cp 25
BC5E 9F          0 8567 sbc a, a
BC5F CD 65 D5    0 8568 call __NORMALIZE_BOOLEAN
BC62 B7          0 8569 or a
BC63 CA A4 BE    0 8570 jp z, __LABEL471
BC66 21 30 D6    0 8571 ld hl, _dynaCounter
BC69 35          0 8572 dec (hl)
BC6A 3A 30 D6    0 8573 ld a, (_dynaCounter)
BC6D D6 01       0 8574 sub 1
BC6F 9F          0 8575 sbc a, a
BC70 CD 65 D5    0 8576 call __NORMALIZE_BOOLEAN
BC73 B7          0 8577 or a
BC74 CA A1 BE    0 8578 jp z, __LABEL474
BC77 3A 33 D6    0 8579 ld a, (_dynaX)
BC7A E6 01       0 8580 and 1
BC7C D6 01       0 8581 sub 1
BC7E 9F          0 8582 sbc a, a
BC7F CD 65 D5    0 8583 call __NORMALIZE_BOOLEAN
BC82 B7          0 8584 or a
BC83 CA C8 BC    0 8585 jp z, __LABEL475
BC86 3A 33 D6    0 8586 ld a, (_dynaX)
BC89 26 08       0 8587 ld h, 8
BC8B CD 30 D2    0 8588 call __DIVU8_FAST
BC8E 3C          0 8589 inc a
BC8F C6 02       0 8590 add a, 2
BC91 32 5C D6    0 8591 ld (_xEnd), a
BC94 3E 04       0 8592 ld a, 4
BC96 2A 5B D6    0 8593 ld hl, (_xEnd - 1)
BC99 BC          0 8594 cp h
BC9A 9F          0 8595 sbc a, a
BC9B CD 65 D5    0 8596 call __NORMALIZE_BOOLEAN
BC9E B7          0 8597 or a
BC9F CA AD BC    0 8598 jp z, __LABEL477
BCA2 3A 5C D6    0 8599 ld a, (_xEnd)
BCA5 D6 04       0 8600 sub 4
BCA7 32 5A D6    0 8601 ld (_xStart), a
BCAA C3 B2 BC    0 8602 jp __LABEL478
BCAD             0 8603 __LABEL477:
BCAD 3E 01       0 8604 ld a, 1
BCAF 32 5A D6    0 8605 ld (_xStart), a
BCB2             0 8606 __LABEL478:
BCB2 3E 20       0 8607 ld a, 32
BCB4 2A 5B D6    0 8608 ld hl, (_xEnd - 1)
BCB7 BC          0 8609 cp h
BCB8 9F          0 8610 sbc a, a
BCB9 CD 65 D5    0 8611 call __NORMALIZE_BOOLEAN
BCBC B7          0 8612 or a
BCBD CA C5 BC    0 8613 jp z, __LABEL480
BCC0 3E 20       0 8614 ld a, 32
BCC2 32 5C D6    0 8615 ld (_xEnd), a
BCC5             0 8616 __LABEL480:
BCC5 C3 07 BD    0 8617 jp __LABEL476
BCC8             0 8618 __LABEL475:
BCC8 3A 33 D6    0 8619 ld a, (_dynaX)
BCCB 26 08       0 8620 ld h, 8
BCCD CD 30 D2    0 8621 call __DIVU8_FAST
BCD0 3C          0 8622 inc a
BCD1 C6 03       0 8623 add a, 3
BCD3 32 5C D6    0 8624 ld (_xEnd), a
BCD6 3E 05       0 8625 ld a, 5
BCD8 2A 5B D6    0 8626 ld hl, (_xEnd - 1)
BCDB BC          0 8627 cp h
BCDC 9F          0 8628 sbc a, a
BCDD CD 65 D5    0 8629 call __NORMALIZE_BOOLEAN
BCE0 B7          0 8630 or a
BCE1 CA EF BC    0 8631 jp z, __LABEL481
BCE4 3A 5C D6    0 8632 ld a, (_xEnd)
BCE7 D6 05       0 8633 sub 5
BCE9 32 5A D6    0 8634 ld (_xStart), a
BCEC C3 F4 BC    0 8635 jp __LABEL482
BCEF             0 8636 __LABEL481:
BCEF 3E 01       0 8637 ld a, 1
BCF1 32 5A D6    0 8638 ld (_xStart), a
BCF4             0 8639 __LABEL482:
BCF4 3E 20       0 8640 ld a, 32
BCF6 2A 5B D6    0 8641 ld hl, (_xEnd - 1)
BCF9 BC          0 8642 cp h
BCFA 9F          0 8643 sbc a, a
BCFB CD 65 D5    0 8644 call __NORMALIZE_BOOLEAN
BCFE B7          0 8645 or a
BCFF CA 07 BD    0 8646 jp z, __LABEL484
BD02 3E 20       0 8647 ld a, 32
BD04 32 5C D6    0 8648 ld (_xEnd), a
BD07             0 8649 __LABEL484:
BD07             0 8650 __LABEL476:
BD07 3A 34 D6    0 8651 ld a, (_dynaY)
BD0A 26 08       0 8652 ld h, 8
BD0C CD 30 D2    0 8653 call __DIVU8_FAST
BD0F D6 05       0 8654 sub 5
BD11 C6 02       0 8655 add a, 2
BD13 32 5D D6    0 8656 ld (_yEnd), a
BD16 3E 04       0 8657 ld a, 4
BD18 2A 5C D6    0 8658 ld hl, (_yEnd - 1)
BD1B BC          0 8659 cp h
BD1C 9F          0 8660 sbc a, a
BD1D CD 65 D5    0 8661 call __NORMALIZE_BOOLEAN
BD20 B7          0 8662 or a
BD21 CA 2F BD    0 8663 jp z, __LABEL485
BD24 3A 5D D6    0 8664 ld a, (_yEnd)
BD27 D6 04       0 8665 sub 4
BD29 32 5B D6    0 8666 ld (_yStart), a
BD2C C3 34 BD    0 8667 jp __LABEL486
BD2F             0 8668 __LABEL485:
BD2F 3E 01       0 8669 ld a, 1
BD31 32 5B D6    0 8670 ld (_yStart), a
BD34             0 8671 __LABEL486:
BD34 3E 0C       0 8672 ld a, 12
BD36 2A 5C D6    0 8673 ld hl, (_yEnd - 1)
BD39 BC          0 8674 cp h
BD3A 9F          0 8675 sbc a, a
BD3B CD 65 D5    0 8676 call __NORMALIZE_BOOLEAN
BD3E B7          0 8677 or a
BD3F CA 47 BD    0 8678 jp z, __LABEL488
BD42 3E 0C       0 8679 ld a, 12
BD44 32 5D D6    0 8680 ld (_yEnd), a
BD47             0 8681 __LABEL488:
BD47 3A 5B D6    0 8682 ld a, (_yStart)
BD4A DD 77 FE    0 8683 ld (ix-2), a
BD4D C3 C9 BD    0 8684 jp __LABEL489
BD50             0 8685 __LABEL492:
BD50 3A 5A D6    0 8686 ld a, (_xStart)
BD53 DD 77 FF    0 8687 ld (ix-1), a
BD56 C3 B5 BD    0 8688 jp __LABEL494
BD59             0 8689 __LABEL497:
BD59 DD 7E FE    0 8690 ld a, (ix-2)
BD5C 6F          0 8691 ld l, a
BD5D 26 00       0 8692 ld h, 0
BD5F 2B          0 8693 dec hl
BD60 E5          0 8694 push hl
BD61 DD 7E FF    0 8695 ld a, (ix-1)
BD64 6F          0 8696 ld l, a
BD65 26 00       0 8697 ld h, 0
BD67 2B          0 8698 dec hl
BD68 E5          0 8699 push hl
BD69 21 9F F8    0 8700 ld hl, _solidMap
BD6C CD B4 CC    0 8701 call __ARRAY
BD6F 7E          0 8702 ld a, (hl)
BD70 D6 03       0 8703 sub 3
BD72 D6 01       0 8704 sub 1
BD74 9F          0 8705 sbc a, a
BD75 CD 65 D5    0 8706 call __NORMALIZE_BOOLEAN
BD78 B7          0 8707 or a
BD79 CA B2 BD    0 8708 jp z, __LABEL500
BD7C DD 7E FE    0 8709 ld a, (ix-2)
BD7F 6F          0 8710 ld l, a
BD80 26 00       0 8711 ld h, 0
BD82 2B          0 8712 dec hl
BD83 E5          0 8713 push hl
BD84 DD 7E FF    0 8714 ld a, (ix-1)
BD87 6F          0 8715 ld l, a
BD88 26 00       0 8716 ld h, 0
BD8A 2B          0 8717 dec hl
BD8B E5          0 8718 push hl
BD8C 21 9F F8    0 8719 ld hl, _solidMap
BD8F CD B4 CC    0 8720 call __ARRAY
BD92 36 00       0 8721 ld (hl), 0
BD94 3A 3A D6    0 8722 ld a, (_emptyAttrib)
BD97 6F          0 8723 ld l, a
BD98 26 00       0 8724 ld h, 0
BD9A E5          0 8725 push hl
BD9B DD 7E FF    0 8726 ld a, (ix-1)
BD9E 3D          0 8727 dec a
BD9F 6F          0 8728 ld l, a
BDA0 26 00       0 8729 ld h, 0
BDA2 E5          0 8730 push hl
BDA3 DD 7E FE    0 8731 ld a, (ix-2)
BDA6 C6 05       0 8732 add a, 5
BDA8 6F          0 8733 ld l, a
BDA9 26 00       0 8734 ld h, 0
BDAB E5          0 8735 push hl
BDAC 21 86 F7    0 8736 ld hl, _empty.__DATA__
BDAF CD 16 8B    0 8737 call _printColorChar
BDB2             0 8738 __LABEL500:
BDB2             0 8739 __LABEL498:
BDB2 DD 34 FF    0 8740 inc (ix-1)
BDB5             0 8741 __LABEL494:
BDB5 DD 7E FF    0 8742 ld a, (ix-1)
BDB8 F5          0 8743 push af
BDB9 3A 5C D6    0 8744 ld a, (_xEnd)
BDBC E1          0 8745 pop hl
BDBD BC          0 8746 cp h
BDBE 9F          0 8747 sbc a, a
BDBF CD 65 D5    0 8748 call __NORMALIZE_BOOLEAN
BDC2 B7          0 8749 or a
BDC3 CA 59 BD    0 8750 jp z, __LABEL497
BDC6             0 8751 __LABEL496:
BDC6             0 8752 __LABEL493:
BDC6 DD 34 FE    0 8753 inc (ix-2)
BDC9             0 8754 __LABEL489:
BDC9 DD 7E FE    0 8755 ld a, (ix-2)
BDCC F5          0 8756 push af
BDCD 3A 5D D6    0 8757 ld a, (_yEnd)
BDD0 E1          0 8758 pop hl
BDD1 BC          0 8759 cp h
BDD2 9F          0 8760 sbc a, a
BDD3 CD 65 D5    0 8761 call __NORMALIZE_BOOLEAN
BDD6 B7          0 8762 or a
BDD7 CA 50 BD    0 8763 jp z, __LABEL492
BDDA             0 8764 __LABEL491:
BDDA 3A 25 D6    0 8765 ld a, (_playerX)
BDDD 6F          0 8766 ld l, a
BDDE 26 00       0 8767 ld h, 0
BDE0 DD 75 FC    0 8768 ld (ix-4), l
BDE3 DD 74 FD    0 8769 ld (ix-3), h
BDE6 DD 6E FC    0 8770 ld l, (ix-4)
BDE9 DD 66 FD    0 8771 ld h, (ix-3)
BDEC E5          0 8772 push hl
BDED 3A 33 D6    0 8773 ld a, (_dynaX)
BDF0 6F          0 8774 ld l, a
BDF1 26 00       0 8775 ld h, 0
BDF3 EB          0 8776 ex de, hl
BDF4 E1          0 8777 pop hl
BDF5 B7          0 8778 or a
BDF6 ED 52       0 8779 sbc hl, de
BDF8 DD 75 FC    0 8780 ld (ix-4), l
BDFB DD 74 FD    0 8781 ld (ix-3), h
BDFE DD 6E FC    0 8782 ld l, (ix-4)
BE01 DD 66 FD    0 8783 ld h, (ix-3)
BE04 E5          0 8784 push hl
BE05 11 00 00    0 8785 ld de, 0
BE08 E1          0 8786 pop hl
BE09 CD B2 D3    0 8787 call __LTI16
BE0C CD 65 D5    0 8788 call __NORMALIZE_BOOLEAN
BE0F B7          0 8789 or a
BE10 CA 22 BE    0 8790 jp z, __LABEL502
BE13 DD 6E FC    0 8791 ld l, (ix-4)
BE16 DD 66 FD    0 8792 ld h, (ix-3)
BE19 CD E8 D1    0 8793 call __NEGHL
BE1C DD 75 FC    0 8794 ld (ix-4), l
BE1F DD 74 FD    0 8795 ld (ix-3), h
BE22             0 8796 __LABEL502:
BE22 3A 26 D6    0 8797 ld a, (_playerY)
BE25 6F          0 8798 ld l, a
BE26 26 00       0 8799 ld h, 0
BE28 DD 75 FA    0 8800 ld (ix-6), l
BE2B DD 74 FB    0 8801 ld (ix-5), h
BE2E DD 6E FA    0 8802 ld l, (ix-6)
BE31 DD 66 FB    0 8803 ld h, (ix-5)
BE34 E5          0 8804 push hl
BE35 3A 34 D6    0 8805 ld a, (_dynaY)
BE38 D6 04       0 8806 sub 4
BE3A 6F          0 8807 ld l, a
BE3B 26 00       0 8808 ld h, 0
BE3D EB          0 8809 ex de, hl
BE3E E1          0 8810 pop hl
BE3F B7          0 8811 or a
BE40 ED 52       0 8812 sbc hl, de
BE42 DD 75 FA    0 8813 ld (ix-6), l
BE45 DD 74 FB    0 8814 ld (ix-5), h
BE48 DD 6E FA    0 8815 ld l, (ix-6)
BE4B DD 66 FB    0 8816 ld h, (ix-5)
BE4E E5          0 8817 push hl
BE4F 11 00 00    0 8818 ld de, 0
BE52 E1          0 8819 pop hl
BE53 CD B2 D3    0 8820 call __LTI16
BE56 CD 65 D5    0 8821 call __NORMALIZE_BOOLEAN
BE59 B7          0 8822 or a
BE5A CA 6C BE    0 8823 jp z, __LABEL504
BE5D DD 6E FA    0 8824 ld l, (ix-6)
BE60 DD 66 FB    0 8825 ld h, (ix-5)
BE63 CD E8 D1    0 8826 call __NEGHL
BE66 DD 75 FA    0 8827 ld (ix-6), l
BE69 DD 74 FB    0 8828 ld (ix-5), h
BE6C             0 8829 __LABEL504:
BE6C DD 6E FA    0 8830 ld l, (ix-6)
BE6F DD 66 FB    0 8831 ld h, (ix-5)
BE72 E5          0 8832 push hl
BE73 11 1B 00    0 8833 ld de, 27
BE76 E1          0 8834 pop hl
BE77 CD B2 D3    0 8835 call __LTI16
BE7A CD 65 D5    0 8836 call __NORMALIZE_BOOLEAN
BE7D F5          0 8837 push af
BE7E DD 6E FC    0 8838 ld l, (ix-4)
BE81 DD 66 FD    0 8839 ld h, (ix-3)
BE84 E5          0 8840 push hl
BE85 11 17 00    0 8841 ld de, 23
BE88 E1          0 8842 pop hl
BE89 CD B2 D3    0 8843 call __LTI16
BE8C CD 65 D5    0 8844 call __NORMALIZE_BOOLEAN
BE8F 67          0 8845 ld h, a
BE90 F1          0 8846 pop af
BE91 B7          0 8847 or a
BE92 28 01       0 8848 jr z, __LABEL711
BE94 7C          0 8849 ld a, h
BE95             0 8850 __LABEL711:
BE95 CD 65 D5    0 8851 call __NORMALIZE_BOOLEAN
BE98 B7          0 8852 or a
BE99 CA A1 BE    0 8853 jp z, __LABEL506
BE9C 3E 01       0 8854 ld a, 1
BE9E C3 89 BF    0 8855 jp _checkDynamite__leave
BEA1             0 8856 __LABEL506:
BEA1             0 8857 __LABEL474:
BEA1 C3 88 BF    0 8858 jp __LABEL472
BEA4             0 8859 __LABEL471:
BEA4 3A E3 FA    0 8860 ld a, (_keyStates.__DATA__ + 3)
BEA7 F5          0 8861 push af
BEA8 AF          0 8862 xor a
BEA9 2A 35 D6    0 8863 ld hl, (_dynamites - 1)
BEAC BC          0 8864 cp h
BEAD 9F          0 8865 sbc a, a
BEAE CD 65 D5    0 8866 call __NORMALIZE_BOOLEAN
BEB1 67          0 8867 ld h, a
BEB2 F1          0 8868 pop af
BEB3 B7          0 8869 or a
BEB4 28 01       0 8870 jr z, __LABEL712
BEB6 7C          0 8871 ld a, h
BEB7             0 8872 __LABEL712:
BEB7 CD 65 D5    0 8873 call __NORMALIZE_BOOLEAN
BEBA F5          0 8874 push af
BEBB 3A 37 D6    0 8875 ld a, (_entryScreen)
BEBE D6 01       0 8876 sub 1
BEC0 9F          0 8877 sbc a, a
BEC1 CD 65 D5    0 8878 call __NORMALIZE_BOOLEAN
BEC4 67          0 8879 ld h, a
BEC5 F1          0 8880 pop af
BEC6 B7          0 8881 or a
BEC7 28 01       0 8882 jr z, __LABEL713
BEC9 7C          0 8883 ld a, h
BECA             0 8884 __LABEL713:
BECA CD 65 D5    0 8885 call __NORMALIZE_BOOLEAN
BECD B7          0 8886 or a
BECE CA 88 BF    0 8887 jp z, __LABEL508
BED1 3A 26 D6    0 8888 ld a, (_playerY)
BED4 E6 07       0 8889 and 7
BED6 D6 01       0 8890 sub 1
BED8 9F          0 8891 sbc a, a
BED9 CD 65 D5    0 8892 call __NORMALIZE_BOOLEAN
BEDC B7          0 8893 or a
BEDD CA 88 BF    0 8894 jp z, __LABEL510
BEE0 3A 25 D6    0 8895 ld a, (_playerX)
BEE3 26 08       0 8896 ld h, 8
BEE5 CD 30 D2    0 8897 call __DIVU8_FAST
BEE8 3C          0 8898 inc a
BEE9 32 5A D6    0 8899 ld (_xStart), a
BEEC 3A 25 D6    0 8900 ld a, (_playerX)
BEEF E6 07       0 8901 and 7
BEF1 CD 65 D5    0 8902 call __NORMALIZE_BOOLEAN
BEF4 F5          0 8903 push af
BEF5 3A 25 D6    0 8904 ld a, (_playerX)
BEF8 FE F8       0 8905 cp 248
BEFA 9F          0 8906 sbc a, a
BEFB CD 65 D5    0 8907 call __NORMALIZE_BOOLEAN
BEFE 67          0 8908 ld h, a
BEFF F1          0 8909 pop af
BF00 B7          0 8910 or a
BF01 28 01       0 8911 jr z, __LABEL714
BF03 7C          0 8912 ld a, h
BF04             0 8913 __LABEL714:
BF04 CD 65 D5    0 8914 call __NORMALIZE_BOOLEAN
BF07 B7          0 8915 or a
BF08 CA 15 BF    0 8916 jp z, __LABEL511
BF0B 3A 5A D6    0 8917 ld a, (_xStart)
BF0E 3C          0 8918 inc a
BF0F 32 5C D6    0 8919 ld (_xEnd), a
BF12 C3 1B BF    0 8920 jp __LABEL512
BF15             0 8921 __LABEL511:
BF15 3A 5A D6    0 8922 ld a, (_xStart)
BF18 32 5C D6    0 8923 ld (_xEnd), a
BF1B             0 8924 __LABEL512:
BF1B 3A 26 D6    0 8925 ld a, (_playerY)
BF1E 26 08       0 8926 ld h, 8
BF20 CD 30 D2    0 8927 call __DIVU8_FAST
BF23 D6 03       0 8928 sub 3
BF25 32 5B D6    0 8929 ld (_yStart), a
BF28 6F          0 8930 ld l, a
BF29 26 00       0 8931 ld h, 0
BF2B 2B          0 8932 dec hl
BF2C E5          0 8933 push hl
BF2D 3A 5A D6    0 8934 ld a, (_xStart)
BF30 6F          0 8935 ld l, a
BF31 26 00       0 8936 ld h, 0
BF33 2B          0 8937 dec hl
BF34 E5          0 8938 push hl
BF35 21 9F F8    0 8939 ld hl, _solidMap
BF38 CD B4 CC    0 8940 call __ARRAY
BF3B 7E          0 8941 ld a, (hl)
BF3C F5          0 8942 push af
BF3D 3A 5B D6    0 8943 ld a, (_yStart)
BF40 6F          0 8944 ld l, a
BF41 26 00       0 8945 ld h, 0
BF43 2B          0 8946 dec hl
BF44 E5          0 8947 push hl
BF45 3A 5C D6    0 8948 ld a, (_xEnd)
BF48 6F          0 8949 ld l, a
BF49 26 00       0 8950 ld h, 0
BF4B 2B          0 8951 dec hl
BF4C E5          0 8952 push hl
BF4D 21 9F F8    0 8953 ld hl, _solidMap
BF50 CD B4 CC    0 8954 call __ARRAY
BF53 F1          0 8955 pop af
BF54 B6          0 8956 or (hl)
BF55 CD 65 D5    0 8957 call __NORMALIZE_BOOLEAN
BF58 B7          0 8958 or a
BF59 CA 88 BF    0 8959 jp z, __LABEL514
BF5C 21 36 D6    0 8960 ld hl, _dynamites
BF5F 35          0 8961 dec (hl)
BF60 AF          0 8962 xor a
BF61 F5          0 8963 push af
BF62 3A 36 D6    0 8964 ld a, (_dynamites)
BF65 87          0 8965 add a, a
BF66 C6 19       0 8966 add a, 25
BF68 F5          0 8967 push af
BF69 3E 15       0 8968 ld a, 21
BF6B F5          0 8969 push af
BF6C CD 1A 85    0 8970 call _setattr
BF6F 3E 18       0 8971 ld a, 24
BF71 32 30 D6    0 8972 ld (_dynaCounter), a
BF74 3A 25 D6    0 8973 ld a, (_playerX)
BF77 32 33 D6    0 8974 ld (_dynaX), a
BF7A 3A 26 D6    0 8975 ld a, (_playerY)
BF7D C6 08       0 8976 add a, 8
BF7F 32 34 D6    0 8977 ld (_dynaY), a
BF82 21 00 00    0 8978 ld hl, 0
BF85 22 31 D6    0 8979 ld (_lastDyna), hl
BF88             0 8980 __LABEL514:
BF88             0 8981 __LABEL510:
BF88             0 8982 __LABEL508:
BF88             0 8983 __LABEL472:
BF88 AF          0 8984 xor a
BF89             0 8985 _checkDynamite__leave:
BF89 DD F9       0 8986 ld sp, ix
BF8B DD E1       0 8987 pop ix
BF8D C9          0 8988 ret
BF8E             0 8989 _drawDynamite:
BF8E DD E5       0 8990 push ix
BF90 DD 21 00 00 0 8991 ld ix, 0
BF94 DD 39       0 8992 add ix, sp
BF96 3A 30 D6    0 8993 ld a, (_dynaCounter)
BF99 FE 19       0 8994 cp 25
BF9B 9F          0 8995 sbc a, a
BF9C CD 65 D5    0 8996 call __NORMALIZE_BOOLEAN
BF9F B7          0 8997 or a
BFA0 CA 77 C0    0 8998 jp z, __LABEL516
BFA3 3A 30 D6    0 8999 ld a, (_dynaCounter)
BFA6 D6 01       0 9000 sub 1
BFA8 9F          0 9001 sbc a, a
BFA9 CD 65 D5    0 9002 call __NORMALIZE_BOOLEAN
BFAC B7          0 9003 or a
BFAD CA 08 C0    0 9004 jp z, __LABEL517
BFB0 3E FF       0 9005 ld a, 255
BFB2 32 30 D6    0 9006 ld (_dynaCounter), a
BFB5 3A 3A D6    0 9007 ld a, (_emptyAttrib)
BFB8 6F          0 9008 ld l, a
BFB9 26 00       0 9009 ld h, 0
BFBB E5          0 9010 push hl
BFBC 3A 33 D6    0 9011 ld a, (_dynaX)
BFBF 6F          0 9012 ld l, a
BFC0 26 00       0 9013 ld h, 0
BFC2 E5          0 9014 push hl
BFC3 3A 34 D6    0 9015 ld a, (_dynaY)
BFC6 6F          0 9016 ld l, a
BFC7 26 00       0 9017 ld h, 0
BFC9 E5          0 9018 push hl
BFCA 2A 31 D6    0 9019 ld hl, (_lastDyna)
BFCD CD 6D 8B    0 9020 call _drawColorSprite
BFD0 CD 0D 90    0 9021 call _dumpScreenCenter
BFD3 F3          0 9023 di
BFD4 FB          0 9024 ei
BFD5 76          0 9025 halt
BFD6 76          0 9026 halt
BFD7 76          0 9027 halt
BFD8 76          0 9028 halt
BFD9 F3          0 9029 di
BFDA AF          0 9031 xor a
BFDB F5          0 9032 push af
BFDC 3E 01       0 9033 ld a, 1
BFDE F5          0 9034 push af
BFDF 3E 06       0 9035 ld a, 6
BFE1 F5          0 9036 push af
BFE2 3E 02       0 9037 ld a, 2
BFE4 CD C8 89    0 9038 call _createAttrib
BFE7 CD 63 91    0 9039 call _dumpAttribCenter
BFEA AF          0 9040 xor a
BFEB CD 7C C0    0 9041 call _playAudio
BFEE 3A 22 D6    0 9042 ld a, (_lightOn)
BFF1 B7          0 9043 or a
BFF2 CA FB BF    0 9044 jp z, __LABEL519
BFF5 CD 17 91    0 9045 call _dumpAttribsCenter
BFF8 C3 FE BF    0 9046 jp __LABEL520
BFFB             0 9047 __LABEL519:
BFFB CD 0A C2    0 9048 call _turnLightOff
BFFE             0 9049 __LABEL520:
BFFE 21 32 00    0 9050 ld hl, 50
C001 E5          0 9051 push hl
C002 CD 07 CA    0 9052 call _updateScore
C005 C3 77 C0    0 9053 jp __LABEL518
C008             0 9054 __LABEL517:
C008 3A 30 D6    0 9055 ld a, (_dynaCounter)
C00B E6 07       0 9056 and 7
C00D D6 01       0 9057 sub 1
C00F 9F          0 9058 sbc a, a
C010 CD 65 D5    0 9059 call __NORMALIZE_BOOLEAN
C013 B7          0 9060 or a
C014 CA 77 C0    0 9061 jp z, __LABEL522
C017 11 00 00    0 9062 ld de, 0
C01A 2A 31 D6    0 9063 ld hl, (_lastDyna)
C01D B7          0 9064 or a
C01E ED 52       0 9065 sbc hl, de
C020 7C          0 9066 ld a, h
C021 B5          0 9067 or l
C022 CD 65 D5    0 9068 call __NORMALIZE_BOOLEAN
C025 B7          0 9069 or a
C026 CA 3D C0    0 9070 jp z, __LABEL524
C029 3A 33 D6    0 9071 ld a, (_dynaX)
C02C 6F          0 9072 ld l, a
C02D 26 00       0 9073 ld h, 0
C02F E5          0 9074 push hl
C030 3A 34 D6    0 9075 ld a, (_dynaY)
C033 6F          0 9076 ld l, a
C034 26 00       0 9077 ld h, 0
C036 E5          0 9078 push hl
C037 2A 31 D6    0 9079 ld hl, (_lastDyna)
C03A CD D4 8C    0 9080 call _drawSprite
C03D             0 9081 __LABEL524:
C03D 11 C4 F5    0 9082 ld de, _dynamite1.__DATA__
C040 2A 31 D6    0 9083 ld hl, (_lastDyna)
C043 CD 6E D2    0 9084 call __EQ16
C046 CD 65 D5    0 9085 call __NORMALIZE_BOOLEAN
C049 B7          0 9086 or a
C04A CA 56 C0    0 9087 jp z, __LABEL525
C04D 21 D3 F5    0 9088 ld hl, _dynamite2.__DATA__
C050 22 31 D6    0 9089 ld (_lastDyna), hl
C053 C3 5C C0    0 9090 jp __LABEL526
C056             0 9091 __LABEL525:
C056 21 C4 F5    0 9092 ld hl, _dynamite1.__DATA__
C059 22 31 D6    0 9093 ld (_lastDyna), hl
C05C             0 9094 __LABEL526:
C05C 3A 52 D6    0 9095 ld a, (_dynaColor)
C05F 6F          0 9096 ld l, a
C060 26 00       0 9097 ld h, 0
C062 E5          0 9098 push hl
C063 3A 33 D6    0 9099 ld a, (_dynaX)
C066 6F          0 9100 ld l, a
C067 26 00       0 9101 ld h, 0
C069 E5          0 9102 push hl
C06A 3A 34 D6    0 9103 ld a, (_dynaY)
C06D 6F          0 9104 ld l, a
C06E 26 00       0 9105 ld h, 0
C070 E5          0 9106 push hl
C071 2A 31 D6    0 9107 ld hl, (_lastDyna)
C074 CD 6D 8B    0 9108 call _drawColorSprite
C077             0 9109 __LABEL522:
C077             0 9110 __LABEL518:
C077             0 9111 __LABEL516:
C077             0 9112 _drawDynamite__leave:
C077 DD F9       0 9113 ld sp, ix
C079 DD E1       0 9114 pop ix
C07B C9          0 9115 ret
C07C             0 9116 _playAudio:
C07C             0 9118 playBasic:
C07C DD E5       0 9119 push ix
C07E             0 9120 play:
C07E 21 55 C1    0 9121 ld hl,sfxData
C081 DD E5       0 9122 push ix
C083 FD E5       0 9123 push iy
C085 06 00       0 9124 ld b,0
C087 4F          0 9125 ld c,a
C088 09          0 9126 add hl,bc
C089 09          0 9127 add hl,bc
C08A 5E          0 9128 ld e,(hl)
C08B 23          0 9129 inc hl
C08C 56          0 9130 ld d,(hl)
C08D D5          0 9131 push de
C08E DD E1       0 9132 pop ix
C090 3A 48 5C    0 9133 ld a,(23624)
C093 1F          0 9134 rra
C094 1F          0 9135 rra
C095 1F          0 9136 rra
C096 E6 07       0 9137 and 7
C098 32 02 C1    0 9138 ld (sfxRoutineToneBorder  +1),a
C09B 32 35 C1    0 9139 ld (sfxRoutineNoiseBorder +1),a
C09E 32 D6 C0    0 9140 ld (sfxRoutineSampleBorder+1),a
C0A1             0 9141 readData:
C0A1 DD 7E 00    0 9142 ld a,(ix+0)
C0A4 DD 4E 01    0 9143 ld c,(ix+1)
C0A7 DD 46 02    0 9144 ld b,(ix+2)
C0AA DD 5E 03    0 9145 ld e,(ix+3)
C0AD DD 56 04    0 9146 ld d,(ix+4)
C0B0 D5          0 9147 push de
C0B1 FD E1       0 9148 pop iy
C0B3 3D          0 9149 dec a
C0B4 28 31       0 9150 jr z,sfxRoutineTone
C0B6 3D          0 9151 dec a
C0B7 28 6D       0 9152 jr z,sfxRoutineNoise
C0B9 3D          0 9153 dec a
C0BA 28 09       0 9154 jr z,sfxRoutineSample
C0BC FD E1       0 9155 pop iy
C0BE DD E1       0 9156 pop ix
C0C0 DD E1       0 9157 pop ix
C0C2 C3 09 C2    0 9158 jp end_audio
C0C5             0 9159 sfxRoutineSample:
C0C5 EB          0 9160 ex de,hl
C0C6             0 9161 sfxRS0:
C0C6 1E 08       0 9162 ld e,8
C0C8 56          0 9163 ld d,(hl)
C0C9 23          0 9164 inc hl
C0CA             0 9165 sfxRS1:
C0CA DD 7E 05    0 9166 ld a,(ix+5)
C0CD             0 9167 sfxRS2:
C0CD 3D          0 9168 dec a
C0CE 20 FD       0 9169 jr nz,sfxRS2
C0D0 CB 12       0 9170 rl d
C0D2 9F          0 9171 sbc a,a
C0D3 E6 10       0 9172 and 16
C0D5             0 9173 sfxRoutineSampleBorder:
C0D5 F6 00       0 9174 or 0
C0D7 D3 FE       0 9175 out (254),a
C0D9 1D          0 9176 dec e
C0DA 20 EE       0 9177 jr nz,sfxRS1
C0DC 0B          0 9178 dec bc
C0DD 78          0 9179 ld a,b
C0DE B1          0 9180 or c
C0DF 20 E5       0 9181 jr nz,sfxRS0
C0E1 0E 06       0 9182 ld c,6
C0E3             0 9183 nextData:
C0E3 DD 09       0 9184 add ix,bc
C0E5 18 BA       0 9185 jr readData
C0E7             0 9186 sfxRoutineTone:
C0E7 DD 5E 05    0 9187 ld e,(ix+5)
C0EA DD 56 06    0 9188 ld d,(ix+6)
C0ED DD 7E 09    0 9189 ld a,(ix+9)
C0F0 32 FD C0    0 9190 ld (sfxRoutineToneDuty+1),a
C0F3 21 00 00    0 9191 ld hl,0
C0F6             0 9192 sfxRT0:
C0F6 C5          0 9193 push bc
C0F7 FD E5       0 9194 push iy
C0F9 C1          0 9195 pop bc
C0FA             0 9196 sfxRT1:
C0FA 19          0 9197 add hl,de
C0FB 7C          0 9198 ld a,h
C0FC             0 9199 sfxRoutineToneDuty:
C0FC FE 00       0 9200 cp 0
C0FE 9F          0 9201 sbc a,a
C0FF E6 10       0 9202 and 16
C101             0 9203 sfxRoutineToneBorder:
C101 F6 00       0 9204 or 0
C103 D3 FE       0 9205 out (254),a
C105 0B          0 9206 dec bc
C106 78          0 9207 ld a,b
C107 B1          0 9208 or c
C108 20 F0       0 9209 jr nz,sfxRT1
C10A 3A FD C0    0 9210 ld a,(sfxRoutineToneDuty+1)
C10D DD 86 0A    0 9211 add a,(ix+10)
C110 32 FD C0    0 9212 ld (sfxRoutineToneDuty+1),a
C113 DD 4E 07    0 9213 ld c,(ix+7)
C116 DD 46 08    0 9214 ld b,(ix+8)
C119 EB          0 9215 ex de,hl
C11A 09          0 9216 add hl,bc
C11B EB          0 9217 ex de,hl
C11C C1          0 9218 pop bc
C11D 0B          0 9219 dec bc
C11E 78          0 9220 ld a,b
C11F B1          0 9221 or c
C120 20 D4       0 9222 jr nz,sfxRT0
C122 0E 0B       0 9223 ld c,11
C124 18 BD       0 9224 jr nextData
C126             0 9225 sfxRoutineNoise:
C126 DD 5E 05    0 9226 ld e,(ix+5)
C129 16 01       0 9227 ld d,1
C12B 62          0 9228 ld h,d
C12C 6A          0 9229 ld l,d
C12D             0 9230 sfxRN0:
C12D C5          0 9231 push bc
C12E FD E5       0 9232 push iy
C130 C1          0 9233 pop bc
C131             0 9234 sfxRN1:
C131 7E          0 9235 ld a,(hl)
C132 E6 10       0 9236 and 16
C134             0 9237 sfxRoutineNoiseBorder:
C134 F6 00       0 9238 or 0
C136 D3 FE       0 9239 out (254),a
C138 15          0 9240 dec d
C139 20 06       0 9241 jr nz,sfxRN2
C13B 53          0 9242 ld d,e
C13C 23          0 9243 inc hl
C13D 7C          0 9244 ld a,h
C13E E6 1F       0 9245 and 31
C140 67          0 9246 ld h,a
C141             0 9247 sfxRN2:
C141 0B          0 9248 dec bc
C142 78          0 9249 ld a,b
C143 B1          0 9250 or c
C144 20 EB       0 9251 jr nz,sfxRN1
C146 7B          0 9252 ld a,e
C147 DD 86 06    0 9253 add a,(ix+6)
C14A 5F          0 9254 ld e,a
C14B C1          0 9255 pop bc
C14C 0B          0 9256 dec bc
C14D 78          0 9257 ld a,b
C14E B1          0 9258 or c
C14F 20 DC       0 9259 jr nz,sfxRN0
C151 0E 07       0 9260 ld c,7
C153 18 8E       0 9261 jr nextData
C155             0 9262 sfxData:
C155             0 9263 SoundEffectsData:
C155 65 C1       0 9264 defw SoundEffect0Data
C157 6D C1       0 9265 defw SoundEffect1Data
C159 80 C1       0 9266 defw SoundEffect2Data
C15B 93 C1       0 9267 defw SoundEffect3Data
C15D 9B C1       0 9268 defw SoundEffect4Data
C15F A7 C1       0 9269 defw SoundEffect5Data
C161 D4 C1       0 9270 defw SoundEffect6Data
C163 01 C2       0 9271 defw SoundEffect7Data
C165             0 9272 SoundEffect0Data:
C165 02          0 9273 defb 2
C166 14 00 FA 00 0 9274 defw 20,250,2730
C16A AA 0A       0 9274 
C16C 00          0 9275 defb 0
C16D             0 9276 SoundEffect1Data:
C16D 02          0 9277 defb 2
C16E 08 00 FA 00 0 9278 defw 8,250,65330
C172 32 FF       0 9278 
C174 01          0 9279 defb 1
C175 20 00 96 00 0 9280 defw 32,150,512,65528,65344
C179 00 02 F8 FF 0 9280 
C17D 40 FF       0 9280 
C17F 00          0 9281 defb 0
C180             0 9282 SoundEffect2Data:
C180 02          0 9283 defb 2
C181 04 00 F4 01 0 9284 defw 4,500,65285
C185 05 FF       0 9284 
C187 01          0 9285 defb 1
C188 20 00 96 00 0 9286 defw 32,150,4096,8,65088
C18C 00 10 08 00 0 9286 
C190 40 FE       0 9286 
C192 00          0 9287 defb 0
C193             0 9288 SoundEffect3Data:
C193 02          0 9289 defb 2
C194 32 00 32 00 0 9290 defw 50,50,65330
C198 32 FF       0 9290 
C19A 00          0 9291 defb 0
C19B             0 9292 SoundEffect4Data:
C19B 01          0 9293 defb 1
C19C 32 00 32 00 0 9294 defw 50,50,4096,65436,128
C1A0 00 10 9C FF 0 9294 
C1A4 80 00       0 9294 
C1A6 00          0 9295 defb 0
C1A7             0 9296 SoundEffect5Data:
C1A7 01          0 9297 defb 1
C1A8 32 00 64 00 0 9298 defw 50,100,400,0,32
C1AC 90 01 00 00 0 9298 
C1B0 20 00       0 9298 
C1B2 01          0 9299 defb 1
C1B3 0A 00 F4 01 0 9300 defw 10,500,0,0,0
C1B7 00 00 00 00 0 9300 
C1BB 00 00       0 9300 
C1BD 01          0 9301 defb 1
C1BE C8 00 32 00 0 9302 defw 200,50,500,2,64
C1C2 F4 01 02 00 0 9302 
C1C6 40 00       0 9302 
C1C8 01          0 9303 defb 1
C1C9 C8 00 32 00 0 9304 defw 200,50,500,65535,64
C1CD F4 01 FF FF 0 9304 
C1D1 40 00       0 9304 
C1D3 00          0 9305 defb 0
C1D4             0 9306 SoundEffect6Data:
C1D4 01          0 9307 defb 1
C1D5 0A 00 E8 03 0 9308 defw 10,1000,220,0,128
C1D9 DC 00 00 00 0 9308 
C1DD 80 00       0 9308 
C1DF 01          0 9309 defb 1
C1E0 0A 00 E8 03 0 9310 defw 10,1000,165,0,128
C1E4 A5 00 00 00 0 9310 
C1E8 80 00       0 9310 
C1EA 01          0 9311 defb 1
C1EB 0A 00 E8 03 0 9312 defw 10,1000,110,0,128
C1EF 6E 00 00 00 0 9312 
C1F3 80 00       0 9312 
C1F5 01          0 9313 defb 1
C1F6 14 00 E8 03 0 9314 defw 20,1000,104,0,128
C1FA 68 00 00 00 0 9314 
C1FE 80 00       0 9314 
C200 00          0 9315 defb 0
C201             0 9316 SoundEffect7Data:
C201 02          0 9317 defb 2
C202 0A 00 E8 03 0 9318 defw 10,1000,4107
C206 0B 10       0 9318 
C208 00          0 9319 defb 0
C209             0 9320 end_audio:
C209             0 9322 _playAudio__leave:
C209 C9          0 9323 ret
C20A             0 9324 _turnLightOff:
C20A DD E5       0 9325 push ix
C20C DD 21 00 00 0 9326 ld ix, 0
C210 DD 39       0 9327 add ix, sp
C212 3E 07       0 9328 ld a, 7
C214 F5          0 9329 push af
C215 3A 20 D6    0 9330 ld a, (_lampX)
C218 3D          0 9331 dec a
C219 F5          0 9332 push af
C21A 3A 21 D6    0 9333 ld a, (_lampY)
C21D C6 05       0 9334 add a, 5
C21F F5          0 9335 push af
C220 CD 1A 85    0 9336 call _setattr
C223 3E 01       0 9337 ld a, 1
C225 32 5A D6    0 9338 ld (_xStart), a
C228 C3 88 C2    0 9339 jp __LABEL527
C22B             0 9340 __LABEL530:
C22B 3E 01       0 9341 ld a, 1
C22D 32 5B D6    0 9342 ld (_yStart), a
C230 C3 76 C2    0 9343 jp __LABEL532
C233             0 9344 __LABEL535:
C233 3A 5B D6    0 9345 ld a, (_yStart)
C236 6F          0 9346 ld l, a
C237 26 00       0 9347 ld h, 0
C239 2B          0 9348 dec hl
C23A E5          0 9349 push hl
C23B 3A 5A D6    0 9350 ld a, (_xStart)
C23E 6F          0 9351 ld l, a
C23F 26 00       0 9352 ld h, 0
C241 2B          0 9353 dec hl
C242 E5          0 9354 push hl
C243 21 9F F8    0 9355 ld hl, _solidMap
C246 CD B4 CC    0 9356 call __ARRAY
C249 7E          0 9357 ld a, (hl)
C24A B7          0 9358 or a
C24B CA 61 C2    0 9359 jp z, __LABEL537
C24E AF          0 9360 xor a
C24F F5          0 9361 push af
C250 3A 5A D6    0 9362 ld a, (_xStart)
C253 3D          0 9363 dec a
C254 F5          0 9364 push af
C255 3A 5B D6    0 9365 ld a, (_yStart)
C258 C6 05       0 9366 add a, 5
C25A F5          0 9367 push af
C25B CD 1A 85    0 9368 call _setattr
C25E C3 72 C2    0 9369 jp __LABEL538
C261             0 9370 __LABEL537:
C261 3E 07       0 9371 ld a, 7
C263 F5          0 9372 push af
C264 3A 5A D6    0 9373 ld a, (_xStart)
C267 3D          0 9374 dec a
C268 F5          0 9375 push af
C269 3A 5B D6    0 9376 ld a, (_yStart)
C26C C6 05       0 9377 add a, 5
C26E F5          0 9378 push af
C26F CD 1A 85    0 9379 call _setattr
C272             0 9380 __LABEL538:
C272             0 9381 __LABEL536:
C272 21 5B D6    0 9382 ld hl, _yStart
C275 34          0 9383 inc (hl)
C276             0 9384 __LABEL532:
C276 3E 0C       0 9385 ld a, 12
C278 2A 5A D6    0 9386 ld hl, (_yStart - 1)
C27B BC          0 9387 cp h
C27C 9F          0 9388 sbc a, a
C27D CD 65 D5    0 9389 call __NORMALIZE_BOOLEAN
C280 B7          0 9390 or a
C281 CA 33 C2    0 9391 jp z, __LABEL535
C284             0 9392 __LABEL534:
C284             0 9393 __LABEL531:
C284 21 5A D6    0 9394 ld hl, _xStart
C287 34          0 9395 inc (hl)
C288             0 9396 __LABEL527:
C288 3E 20       0 9397 ld a, 32
C28A 2A 59 D6    0 9398 ld hl, (_xStart - 1)
C28D BC          0 9399 cp h
C28E 9F          0 9400 sbc a, a
C28F CD 65 D5    0 9401 call __NORMALIZE_BOOLEAN
C292 B7          0 9402 or a
C293 CA 2B C2    0 9403 jp z, __LABEL530
C296             0 9404 __LABEL529:
C296             0 9405 _turnLightOff__leave:
C296 DD F9       0 9406 ld sp, ix
C298 DD E1       0 9407 pop ix
C29A C9          0 9408 ret
C29B             0 9409 _checkLight:
C29B DD E5       0 9410 push ix
C29D DD 21 00 00 0 9411 ld ix, 0
C2A1 DD 39       0 9412 add ix, sp
C2A3 2A 21 D6    0 9413 ld hl, (_lightOn - 1)
C2A6 3A 20 D6    0 9414 ld a, (_lampX)
C2A9 B7          0 9415 or a
C2AA 28 01       0 9416 jr z, __LABEL715
C2AC 7C          0 9417 ld a, h
C2AD             0 9418 __LABEL715:
C2AD CD 65 D5    0 9419 call __NORMALIZE_BOOLEAN
C2B0 B7          0 9420 or a
C2B1 CA CF C2    0 9421 jp z, __LABEL540
C2B4 3A 21 D6    0 9422 ld a, (_lampY)
C2B7 F5          0 9423 push af
C2B8 3A 20 D6    0 9424 ld a, (_lampX)
C2BB F5          0 9425 push af
C2BC CD 10 A7    0 9426 call _checkPlayerCollision
C2BF B7          0 9427 or a
C2C0 CA CF C2    0 9428 jp z, __LABEL542
C2C3 3E 02       0 9429 ld a, 2
C2C5 CD 7C C0    0 9430 call _playAudio
C2C8 CD 0A C2    0 9431 call _turnLightOff
C2CB AF          0 9432 xor a
C2CC 32 22 D6    0 9433 ld (_lightOn), a
C2CF             0 9434 __LABEL542:
C2CF             0 9435 __LABEL540:
C2CF             0 9436 _checkLight__leave:
C2CF DD F9       0 9437 ld sp, ix
C2D1 DD E1       0 9438 pop ix
C2D3 C9          0 9439 ret
C2D4             0 9440 _entrance:
C2D4 DD E5       0 9441 push ix
C2D6 DD 21 00 00 0 9442 ld ix, 0
C2DA DD 39       0 9443 add ix, sp
C2DC 21 F0 FF    0 9444 ld hl, -16
C2DF 39          0 9445 add hl, sp
C2E0 F9          0 9446 ld sp, hl
C2E1 36 00       0 9447 ld (hl), 0
C2E3 01 0F 00    0 9448 ld bc, 15
C2E6 54          0 9449 ld d, h
C2E7 5D          0 9450 ld e, l
C2E8 13          0 9451 inc de
C2E9 ED B0       0 9452 ldir
C2EB 21 F0 FF    0 9453 ld hl, -16
C2EE 11 F9 FA    0 9454 ld de, __LABEL716
C2F1 01 20 00    0 9455 ld bc, 32
C2F4 CD 1F CD    0 9456 call __ALLOC_LOCAL_ARRAY
C2F7 3E 05       0 9457 ld a, 5
C2F9 CD 9B 22    0 9458 call BORDER
C2FC 3E 01       0 9459 ld a, 1
C2FE 32 3B D6    0 9460 ld (_tmpX), a
C301 C3 3A C3    0 9461 jp __LABEL543
C304             0 9462 __LABEL546:
C304 3E 01       0 9463 ld a, 1
C306 32 3C D6    0 9464 ld (_tmpY), a
C309 C3 28 C3    0 9465 jp __LABEL548
C30C             0 9466 __LABEL551:
C30C 3A 3C D6    0 9467 ld a, (_tmpY)
C30F 6F          0 9468 ld l, a
C310 26 00       0 9469 ld h, 0
C312 2B          0 9470 dec hl
C313 E5          0 9471 push hl
C314 3A 3B D6    0 9472 ld a, (_tmpX)
C317 6F          0 9473 ld l, a
C318 26 00       0 9474 ld h, 0
C31A 2B          0 9475 dec hl
C31B E5          0 9476 push hl
C31C 21 91 FA    0 9477 ld hl, _enemyStates
C31F CD B4 CC    0 9478 call __ARRAY
C322 36 00       0 9479 ld (hl), 0
C324             0 9480 __LABEL552:
C324 21 3C D6    0 9481 ld hl, _tmpY
C327 34          0 9482 inc (hl)
C328             0 9483 __LABEL548:
C328 3E 0B       0 9484 ld a, 11
C32A 2A 3B D6    0 9485 ld hl, (_tmpY - 1)
C32D BC          0 9486 cp h
C32E 9F          0 9487 sbc a, a
C32F CD 65 D5    0 9488 call __NORMALIZE_BOOLEAN
C332 B7          0 9489 or a
C333 CA 0C C3    0 9490 jp z, __LABEL551
C336             0 9491 __LABEL550:
C336             0 9492 __LABEL547:
C336 21 3B D6    0 9493 ld hl, _tmpX
C339 34          0 9494 inc (hl)
C33A             0 9495 __LABEL543:
C33A 3E 06       0 9496 ld a, 6
C33C 2A 3A D6    0 9497 ld hl, (_tmpX - 1)
C33F BC          0 9498 cp h
C340 9F          0 9499 sbc a, a
C341 CD 65 D5    0 9500 call __NORMALIZE_BOOLEAN
C344 B7          0 9501 or a
C345 CA 04 C3    0 9502 jp z, __LABEL546
C348             0 9503 __LABEL545:
C348 AF          0 9504 xor a
C349 F5          0 9505 push af
C34A AF          0 9506 xor a
C34B F5          0 9507 push af
C34C 3E 05       0 9508 ld a, 5
C34E F5          0 9509 push af
C34F AF          0 9510 xor a
C350 CD C8 89    0 9511 call _createAttrib
C353 DD 77 FF    0 9512 ld (ix-1), a
C356 AF          0 9513 xor a
C357 F5          0 9514 push af
C358 3E 01       0 9515 ld a, 1
C35A F5          0 9516 push af
C35B 3E 04       0 9517 ld a, 4
C35D F5          0 9518 push af
C35E 3E 02       0 9519 ld a, 2
C360 CD C8 89    0 9520 call _createAttrib
C363 DD 77 FC    0 9521 ld (ix-4), a
C366 DD 7E FF    0 9522 ld a, (ix-1)
C369 CD 39 8A    0 9523 call _clearScreenCenter
C36C 2A 1A D6    0 9524 ld hl, (_currentMapIndex)
C36F 2B          0 9525 dec hl
C370 E5          0 9526 push hl
C371 21 F1 FA    0 9527 ld hl, _maps
C374 CD B4 CC    0 9528 call __ARRAY
C377 7E          0 9529 ld a, (hl)
C378 6F          0 9530 ld l, a
C379 26 00       0 9531 ld h, 0
C37B DD 75 F4    0 9532 ld (ix-12), l
C37E DD 74 F5    0 9533 ld (ix-11), h
C381 21 72 00    0 9534 ld hl, 114
C384 E5          0 9535 push hl
C385 DD 6E F4    0 9536 ld l, (ix-12)
C388 DD 66 F5    0 9537 ld h, (ix-11)
C38B 2B          0 9538 dec hl
C38C E5          0 9539 push hl
C38D 21 E8 FA    0 9540 ld hl, _screens
C390 CD B4 CC    0 9541 call __ARRAY
C393 7E          0 9542 ld a, (hl)
C394 DD 77 FB    0 9543 ld (ix-5), a
C397 06 06       0 9544 ld b, 6
C399             0 9545 __LABEL717:
C399 CB 3F       0 9546 srl a
C39B 10 FC       0 9547 djnz __LABEL717
C39D F5          0 9548 push af
C39E 26 03       0 9549 ld h, 3
C3A0 F1          0 9550 pop af
C3A1 A4          0 9551 and h
C3A2 DD 77 FB    0 9552 ld (ix-5), a
C3A5 DD 36 FD 01 0 9553 ld (ix-3), 1
C3A9 C3 3C C4    0 9554 jp __LABEL553
C3AC             0 9555 __LABEL556:
C3AC DD 36 FE 01 0 9556 ld (ix-2), 1
C3B0 C3 29 C4    0 9557 jp __LABEL558
C3B3             0 9558 __LABEL561:
C3B3 DD 7E FE    0 9559 ld a, (ix-2)
C3B6 3D          0 9560 dec a
C3B7 D6 01       0 9561 sub 1
C3B9 9F          0 9562 sbc a, a
C3BA CD 65 D5    0 9563 call __NORMALIZE_BOOLEAN
C3BD F5          0 9564 push af
C3BE DD 7E FE    0 9565 ld a, (ix-2)
C3C1 D6 20       0 9566 sub 32
C3C3 D6 01       0 9567 sub 1
C3C5 9F          0 9568 sbc a, a
C3C6 CD 65 D5    0 9569 call __NORMALIZE_BOOLEAN
C3C9 D1          0 9570 pop de
C3CA B2          0 9571 or d
C3CB CD 65 D5    0 9572 call __NORMALIZE_BOOLEAN
C3CE F5          0 9573 push af
C3CF DD 7E FD    0 9574 ld a, (ix-3)
C3D2 3D          0 9575 dec a
C3D3 D6 01       0 9576 sub 1
C3D5 9F          0 9577 sbc a, a
C3D6 CD 65 D5    0 9578 call __NORMALIZE_BOOLEAN
C3D9 D1          0 9579 pop de
C3DA B2          0 9580 or d
C3DB CD 65 D5    0 9581 call __NORMALIZE_BOOLEAN
C3DE F5          0 9582 push af
C3DF DD 7E FD    0 9583 ld a, (ix-3)
C3E2 D6 0C       0 9584 sub 12
C3E4 D6 01       0 9585 sub 1
C3E6 9F          0 9586 sbc a, a
C3E7 CD 65 D5    0 9587 call __NORMALIZE_BOOLEAN
C3EA D1          0 9588 pop de
C3EB B2          0 9589 or d
C3EC CD 65 D5    0 9590 call __NORMALIZE_BOOLEAN
C3EF B7          0 9591 or a
C3F0 CA 0E C4    0 9592 jp z, __LABEL563
C3F3 DD 7E FD    0 9593 ld a, (ix-3)
C3F6 6F          0 9594 ld l, a
C3F7 26 00       0 9595 ld h, 0
C3F9 2B          0 9596 dec hl
C3FA E5          0 9597 push hl
C3FB DD 7E FE    0 9598 ld a, (ix-2)
C3FE 6F          0 9599 ld l, a
C3FF 26 00       0 9600 ld h, 0
C401 2B          0 9601 dec hl
C402 E5          0 9602 push hl
C403 21 9F F8    0 9603 ld hl, _solidMap
C406 CD B4 CC    0 9604 call __ARRAY
C409 36 01       0 9605 ld (hl), 1
C40B C3 26 C4    0 9606 jp __LABEL564
C40E             0 9607 __LABEL563:
C40E DD 7E FD    0 9608 ld a, (ix-3)
C411 6F          0 9609 ld l, a
C412 26 00       0 9610 ld h, 0
C414 2B          0 9611 dec hl
C415 E5          0 9612 push hl
C416 DD 7E FE    0 9613 ld a, (ix-2)
C419 6F          0 9614 ld l, a
C41A 26 00       0 9615 ld h, 0
C41C 2B          0 9616 dec hl
C41D E5          0 9617 push hl
C41E 21 9F F8    0 9618 ld hl, _solidMap
C421 CD B4 CC    0 9619 call __ARRAY
C424 36 00       0 9620 ld (hl), 0
C426             0 9621 __LABEL564:
C426             0 9622 __LABEL562:
C426 DD 34 FE    0 9623 inc (ix-2)
C429             0 9624 __LABEL558:
C429 DD 7E FE    0 9625 ld a, (ix-2)
C42C F5          0 9626 push af
C42D 3E 20       0 9627 ld a, 32
C42F E1          0 9628 pop hl
C430 BC          0 9629 cp h
C431 9F          0 9630 sbc a, a
C432 CD 65 D5    0 9631 call __NORMALIZE_BOOLEAN
C435 B7          0 9632 or a
C436 CA B3 C3    0 9633 jp z, __LABEL561
C439             0 9634 __LABEL560:
C439             0 9635 __LABEL557:
C439 DD 34 FD    0 9636 inc (ix-3)
C43C             0 9637 __LABEL553:
C43C DD 7E FD    0 9638 ld a, (ix-3)
C43F F5          0 9639 push af
C440 3E 0C       0 9640 ld a, 12
C442 E1          0 9641 pop hl
C443 BC          0 9642 cp h
C444 9F          0 9643 sbc a, a
C445 CD 65 D5    0 9644 call __NORMALIZE_BOOLEAN
C448 B7          0 9645 or a
C449 CA AC C3    0 9646 jp z, __LABEL556
C44C             0 9647 __LABEL555:
C44C DD 7E FB    0 9648 ld a, (ix-5)
C44F CD 65 D5    0 9649 call __NORMALIZE_BOOLEAN
C452 B7          0 9650 or a
C453 CA FF C4    0 9651 jp z, __LABEL566
C456 DD 36 FE 00 0 9652 ld (ix-2), 0
C45A C3 EF C4    0 9653 jp __LABEL567
C45D             0 9654 __LABEL570:
C45D DD 7E FE    0 9655 ld a, (ix-2)
C460 3C          0 9656 inc a
C461 6F          0 9657 ld l, a
C462 26 00       0 9658 ld h, 0
C464 2B          0 9659 dec hl
C465 E5          0 9660 push hl
C466 DD 6E F4    0 9661 ld l, (ix-12)
C469 DD 66 F5    0 9662 ld h, (ix-11)
C46C 2B          0 9663 dec hl
C46D E5          0 9664 push hl
C46E 21 E8 FA    0 9665 ld hl, _screens
C471 CD B4 CC    0 9666 call __ARRAY
C474 7E          0 9667 ld a, (hl)
C475 DD 77 FA    0 9668 ld (ix-6), a
C478 DD 36 FD 00 0 9669 ld (ix-3), 0
C47C C3 DC C4    0 9670 jp __LABEL572
C47F             0 9671 __LABEL575:
C47F DD 7E FA    0 9672 ld a, (ix-6)
C482 F5          0 9673 push af
C483 DD 7E FD    0 9674 ld a, (ix-3)
C486 87          0 9675 add a, a
C487 26 03       0 9676 ld h, 3
C489 B7          0 9677 or a
C48A 47          0 9678 ld b, a
C48B 7C          0 9679 ld a, h
C48C 28 03       0 9680 jr z, __LABEL719
C48E             0 9681 __LABEL718:
C48E 87          0 9682 add a, a
C48F 10 FD       0 9683 djnz __LABEL718
C491             0 9684 __LABEL719:
C491 D1          0 9685 pop de
C492 A2          0 9686 and d
C493 D6 01       0 9687 sub 1
C495 9F          0 9688 sbc a, a
C496 CD 65 D5    0 9689 call __NORMALIZE_BOOLEAN
C499 B7          0 9690 or a
C49A CA D9 C4    0 9691 jp z, __LABEL578
C49D 21 0B 00    0 9692 ld hl, 11
C4A0 E5          0 9693 push hl
C4A1 DD 7E FE    0 9694 ld a, (ix-2)
C4A4 87          0 9695 add a, a
C4A5 87          0 9696 add a, a
C4A6 DD 86 FD    0 9697 add a, (ix-3)
C4A9 3C          0 9698 inc a
C4AA 6F          0 9699 ld l, a
C4AB 26 00       0 9700 ld h, 0
C4AD 2B          0 9701 dec hl
C4AE E5          0 9702 push hl
C4AF 21 9F F8    0 9703 ld hl, _solidMap
C4B2 CD B4 CC    0 9704 call __ARRAY
C4B5 36 00       0 9705 ld (hl), 0
C4B7 DD 36 F9 01 0 9706 ld (ix-7), 1
C4BB DD 7E F8    0 9707 ld a, (ix-8)
C4BE D6 01       0 9708 sub 1
C4C0 9F          0 9709 sbc a, a
C4C1 CD 65 D5    0 9710 call __NORMALIZE_BOOLEAN
C4C4 B7          0 9711 or a
C4C5 CA D4 C4    0 9712 jp z, __LABEL580
C4C8 DD 7E FE    0 9713 ld a, (ix-2)
C4CB 87          0 9714 add a, a
C4CC 87          0 9715 add a, a
C4CD DD 86 FD    0 9716 add a, (ix-3)
C4D0 3C          0 9717 inc a
C4D1 DD 77 F8    0 9718 ld (ix-8), a
C4D4             0 9719 __LABEL580:
C4D4 3E 01       0 9720 ld a, 1
C4D6 32 1D D6    0 9721 ld (_currentMapExit), a
C4D9             0 9722 __LABEL578:
C4D9             0 9723 __LABEL576:
C4D9 DD 34 FD    0 9724 inc (ix-3)
C4DC             0 9725 __LABEL572:
C4DC DD 7E FD    0 9726 ld a, (ix-3)
C4DF F5          0 9727 push af
C4E0 3E 03       0 9728 ld a, 3
C4E2 E1          0 9729 pop hl
C4E3 BC          0 9730 cp h
C4E4 9F          0 9731 sbc a, a
C4E5 CD 65 D5    0 9732 call __NORMALIZE_BOOLEAN
C4E8 B7          0 9733 or a
C4E9 CA 7F C4    0 9734 jp z, __LABEL575
C4EC             0 9735 __LABEL574:
C4EC             0 9736 __LABEL571:
C4EC DD 34 FE    0 9737 inc (ix-2)
C4EF             0 9738 __LABEL567:
C4EF DD 7E FE    0 9739 ld a, (ix-2)
C4F2 F5          0 9740 push af
C4F3 3E 07       0 9741 ld a, 7
C4F5 E1          0 9742 pop hl
C4F6 BC          0 9743 cp h
C4F7 9F          0 9744 sbc a, a
C4F8 CD 65 D5    0 9745 call __NORMALIZE_BOOLEAN
C4FB B7          0 9746 or a
C4FC CA 5D C4    0 9747 jp z, __LABEL570
C4FF             0 9748 __LABEL569:
C4FF             0 9749 __LABEL566:
C4FF DD 7E FB    0 9750 ld a, (ix-5)
C502 3D          0 9751 dec a
C503 CD 65 D5    0 9752 call __NORMALIZE_BOOLEAN
C506 F5          0 9753 push af
C507 DD 7E F9    0 9754 ld a, (ix-7)
C50A D6 01       0 9755 sub 1
C50C 9F          0 9756 sbc a, a
C50D CD 65 D5    0 9757 call __NORMALIZE_BOOLEAN
C510 67          0 9758 ld h, a
C511 F1          0 9759 pop af
C512 B7          0 9760 or a
C513 28 01       0 9761 jr z, __LABEL720
C515 7C          0 9762 ld a, h
C516             0 9763 __LABEL720:
C516 CD 65 D5    0 9764 call __NORMALIZE_BOOLEAN
C519 B7          0 9765 or a
C51A CA C6 C5    0 9766 jp z, __LABEL582
C51D DD 36 FE 00 0 9767 ld (ix-2), 0
C521 C3 B6 C5    0 9768 jp __LABEL583
C524             0 9769 __LABEL586:
C524 DD 7E FE    0 9770 ld a, (ix-2)
C527 C6 59       0 9771 add a, 89
C529 6F          0 9772 ld l, a
C52A 26 00       0 9773 ld h, 0
C52C 2B          0 9774 dec hl
C52D E5          0 9775 push hl
C52E DD 6E F4    0 9776 ld l, (ix-12)
C531 DD 66 F5    0 9777 ld h, (ix-11)
C534 2B          0 9778 dec hl
C535 E5          0 9779 push hl
C536 21 E8 FA    0 9780 ld hl, _screens
C539 CD B4 CC    0 9781 call __ARRAY
C53C 7E          0 9782 ld a, (hl)
C53D DD 77 FA    0 9783 ld (ix-6), a
C540 DD 36 FD 00 0 9784 ld (ix-3), 0
C544 C3 A3 C5    0 9785 jp __LABEL588
C547             0 9786 __LABEL591:
C547 DD 7E FA    0 9787 ld a, (ix-6)
C54A F5          0 9788 push af
C54B DD 7E FD    0 9789 ld a, (ix-3)
C54E 87          0 9790 add a, a
C54F 26 03       0 9791 ld h, 3
C551 B7          0 9792 or a
C552 47          0 9793 ld b, a
C553 7C          0 9794 ld a, h
C554 28 03       0 9795 jr z, __LABEL722
C556             0 9796 __LABEL721:
C556 87          0 9797 add a, a
C557 10 FD       0 9798 djnz __LABEL721
C559             0 9799 __LABEL722:
C559 D1          0 9800 pop de
C55A A2          0 9801 and d
C55B D6 01       0 9802 sub 1
C55D 9F          0 9803 sbc a, a
C55E CD 65 D5    0 9804 call __NORMALIZE_BOOLEAN
C561 B7          0 9805 or a
C562 CA A0 C5    0 9806 jp z, __LABEL594
C565 21 00 00    0 9807 ld hl, 0
C568 E5          0 9808 push hl
C569 DD 7E FE    0 9809 ld a, (ix-2)
C56C 87          0 9810 add a, a
C56D 87          0 9811 add a, a
C56E DD 86 FD    0 9812 add a, (ix-3)
C571 3C          0 9813 inc a
C572 6F          0 9814 ld l, a
C573 26 00       0 9815 ld h, 0
C575 2B          0 9816 dec hl
C576 E5          0 9817 push hl
C577 21 9F F8    0 9818 ld hl, _solidMap
C57A CD B4 CC    0 9819 call __ARRAY
C57D 36 00       0 9820 ld (hl), 0
C57F DD 36 F9 02 0 9821 ld (ix-7), 2
C583 DD 7E F8    0 9822 ld a, (ix-8)
C586 D6 01       0 9823 sub 1
C588 9F          0 9824 sbc a, a
C589 CD 65 D5    0 9825 call __NORMALIZE_BOOLEAN
C58C B7          0 9826 or a
C58D CA 9C C5    0 9827 jp z, __LABEL596
C590 DD 7E FE    0 9828 ld a, (ix-2)
C593 87          0 9829 add a, a
C594 87          0 9830 add a, a
C595 DD 86 FD    0 9831 add a, (ix-3)
C598 3C          0 9832 inc a
C599 DD 77 F8    0 9833 ld (ix-8), a
C59C             0 9834 __LABEL596:
C59C AF          0 9835 xor a
C59D 32 1D D6    0 9836 ld (_currentMapExit), a
C5A0             0 9837 __LABEL594:
C5A0             0 9838 __LABEL592:
C5A0 DD 34 FD    0 9839 inc (ix-3)
C5A3             0 9840 __LABEL588:
C5A3 DD 7E FD    0 9841 ld a, (ix-3)
C5A6 F5          0 9842 push af
C5A7 3E 03       0 9843 ld a, 3
C5A9 E1          0 9844 pop hl
C5AA BC          0 9845 cp h
C5AB 9F          0 9846 sbc a, a
C5AC CD 65 D5    0 9847 call __NORMALIZE_BOOLEAN
C5AF B7          0 9848 or a
C5B0 CA 47 C5    0 9849 jp z, __LABEL591
C5B3             0 9850 __LABEL590:
C5B3             0 9851 __LABEL587:
C5B3 DD 34 FE    0 9852 inc (ix-2)
C5B6             0 9853 __LABEL583:
C5B6 DD 7E FE    0 9854 ld a, (ix-2)
C5B9 F5          0 9855 push af
C5BA 3E 07       0 9856 ld a, 7
C5BC E1          0 9857 pop hl
C5BD BC          0 9858 cp h
C5BE 9F          0 9859 sbc a, a
C5BF CD 65 D5    0 9860 call __NORMALIZE_BOOLEAN
C5C2 B7          0 9861 or a
C5C3 CA 24 C5    0 9862 jp z, __LABEL586
C5C6             0 9863 __LABEL585:
C5C6             0 9864 __LABEL582:
C5C6 DD 7E FB    0 9865 ld a, (ix-5)
C5C9 D6 02       0 9866 sub 2
C5CB CD 65 D5    0 9867 call __NORMALIZE_BOOLEAN
C5CE F5          0 9868 push af
C5CF DD 7E F9    0 9869 ld a, (ix-7)
C5D2 D6 01       0 9870 sub 1
C5D4 9F          0 9871 sbc a, a
C5D5 CD 65 D5    0 9872 call __NORMALIZE_BOOLEAN
C5D8 67          0 9873 ld h, a
C5D9 F1          0 9874 pop af
C5DA B7          0 9875 or a
C5DB 28 01       0 9876 jr z, __LABEL723
C5DD 7C          0 9877 ld a, h
C5DE             0 9878 __LABEL723:
C5DE CD 65 D5    0 9879 call __NORMALIZE_BOOLEAN
C5E1 B7          0 9880 or a
C5E2 CA 50 C6    0 9881 jp z, __LABEL598
C5E5 DD 36 FD 00 0 9882 ld (ix-3), 0
C5E9 C3 40 C6    0 9883 jp __LABEL599
C5EC             0 9884 __LABEL602:
C5EC DD 7E FD    0 9885 ld a, (ix-3)
C5EF 26 08       0 9886 ld h, 8
C5F1 CD C2 D3    0 9887 call __MUL8_FAST
C5F4 3C          0 9888 inc a
C5F5 6F          0 9889 ld l, a
C5F6 26 00       0 9890 ld h, 0
C5F8 2B          0 9891 dec hl
C5F9 E5          0 9892 push hl
C5FA DD 6E F4    0 9893 ld l, (ix-12)
C5FD DD 66 F5    0 9894 ld h, (ix-11)
C600 2B          0 9895 dec hl
C601 E5          0 9896 push hl
C602 21 E8 FA    0 9897 ld hl, _screens
C605 CD B4 CC    0 9898 call __ARRAY
C608 7E          0 9899 ld a, (hl)
C609 DD 77 FA    0 9900 ld (ix-6), a
C60C F5          0 9901 push af
C60D 26 03       0 9902 ld h, 3
C60F F1          0 9903 pop af
C610 A4          0 9904 and h
C611 D6 01       0 9905 sub 1
C613 9F          0 9906 sbc a, a
C614 CD 65 D5    0 9907 call __NORMALIZE_BOOLEAN
C617 B7          0 9908 or a
C618 CA 3D C6    0 9909 jp z, __LABEL605
C61B DD 7E FD    0 9910 ld a, (ix-3)
C61E 3C          0 9911 inc a
C61F 6F          0 9912 ld l, a
C620 26 00       0 9913 ld h, 0
C622 2B          0 9914 dec hl
C623 E5          0 9915 push hl
C624 21 1F 00    0 9916 ld hl, 31
C627 E5          0 9917 push hl
C628 21 9F F8    0 9918 ld hl, _solidMap
C62B CD B4 CC    0 9919 call __ARRAY
C62E 36 00       0 9920 ld (hl), 0
C630 DD 36 F9 03 0 9921 ld (ix-7), 3
C634 DD 36 F8 20 0 9922 ld (ix-8), 32
C638 3E 03       0 9923 ld a, 3
C63A 32 1D D6    0 9924 ld (_currentMapExit), a
C63D             0 9925 __LABEL605:
C63D             0 9926 __LABEL603:
C63D DD 34 FD    0 9927 inc (ix-3)
C640             0 9928 __LABEL599:
C640 DD 7E FD    0 9929 ld a, (ix-3)
C643 F5          0 9930 push af
C644 3E 0B       0 9931 ld a, 11
C646 E1          0 9932 pop hl
C647 BC          0 9933 cp h
C648 9F          0 9934 sbc a, a
C649 CD 65 D5    0 9935 call __NORMALIZE_BOOLEAN
C64C B7          0 9936 or a
C64D CA EC C5    0 9937 jp z, __LABEL602
C650             0 9938 __LABEL601:
C650             0 9939 __LABEL598:
C650 DD 7E FB    0 9940 ld a, (ix-5)
C653 D6 03       0 9941 sub 3
C655 CD 65 D5    0 9942 call __NORMALIZE_BOOLEAN
C658 F5          0 9943 push af
C659 DD 7E F9    0 9944 ld a, (ix-7)
C65C D6 01       0 9945 sub 1
C65E 9F          0 9946 sbc a, a
C65F CD 65 D5    0 9947 call __NORMALIZE_BOOLEAN
C662 67          0 9948 ld h, a
C663 F1          0 9949 pop af
C664 B7          0 9950 or a
C665 28 01       0 9951 jr z, __LABEL724
C667 7C          0 9952 ld a, h
C668             0 9953 __LABEL724:
C668 CD 65 D5    0 9954 call __NORMALIZE_BOOLEAN
C66B B7          0 9955 or a
C66C CA DB C6    0 9956 jp z, __LABEL607
C66F DD 36 FD 00 0 9957 ld (ix-3), 0
C673 C3 CB C6    0 9958 jp __LABEL608
C676             0 9959 __LABEL611:
C676 DD 7E FD    0 9960 ld a, (ix-3)
C679 26 08       0 9961 ld h, 8
C67B CD C2 D3    0 9962 call __MUL8_FAST
C67E C6 08       0 9963 add a, 8
C680 6F          0 9964 ld l, a
C681 26 00       0 9965 ld h, 0
C683 2B          0 9966 dec hl
C684 E5          0 9967 push hl
C685 DD 6E F4    0 9968 ld l, (ix-12)
C688 DD 66 F5    0 9969 ld h, (ix-11)
C68B 2B          0 9970 dec hl
C68C E5          0 9971 push hl
C68D 21 E8 FA    0 9972 ld hl, _screens
C690 CD B4 CC    0 9973 call __ARRAY
C693 7E          0 9974 ld a, (hl)
C694 DD 77 FA    0 9975 ld (ix-6), a
C697 F5          0 9976 push af
C698 26 C0       0 9977 ld h, 192
C69A F1          0 9978 pop af
C69B A4          0 9979 and h
C69C D6 01       0 9980 sub 1
C69E 9F          0 9981 sbc a, a
C69F CD 65 D5    0 9982 call __NORMALIZE_BOOLEAN
C6A2 B7          0 9983 or a
C6A3 CA C8 C6    0 9984 jp z, __LABEL614
C6A6 DD 7E FD    0 9985 ld a, (ix-3)
C6A9 3C          0 9986 inc a
C6AA 6F          0 9987 ld l, a
C6AB 26 00       0 9988 ld h, 0
C6AD 2B          0 9989 dec hl
C6AE E5          0 9990 push hl
C6AF 21 00 00    0 9991 ld hl, 0
C6B2 E5          0 9992 push hl
C6B3 21 9F F8    0 9993 ld hl, _solidMap
C6B6 CD B4 CC    0 9994 call __ARRAY
C6B9 36 00       0 9995 ld (hl), 0
C6BB DD 36 F9 04 0 9996 ld (ix-7), 4
C6BF DD 36 F8 01 0 9997 ld (ix-8), 1
C6C3 3E 02       0 9998 ld a, 2
C6C5 32 1D D6    0 9999 ld (_currentMapExit), a
C6C8             0 10000 __LABEL614:
C6C8             0 10001 __LABEL612:
C6C8 DD 34 FD    0 10002 inc (ix-3)
C6CB             0 10003 __LABEL608:
C6CB DD 7E FD    0 10004 ld a, (ix-3)
C6CE F5          0 10005 push af
C6CF 3E 0B       0 10006 ld a, 11
C6D1 E1          0 10007 pop hl
C6D2 BC          0 10008 cp h
C6D3 9F          0 10009 sbc a, a
C6D4 CD 65 D5    0 10010 call __NORMALIZE_BOOLEAN
C6D7 B7          0 10011 or a
C6D8 CA 76 C6    0 10012 jp z, __LABEL611
C6DB             0 10013 __LABEL610:
C6DB             0 10014 __LABEL607:
C6DB DD 36 FD 01 0 10015 ld (ix-3), 1
C6DF C3 BC C7    0 10016 jp __LABEL615
C6E2             0 10017 __LABEL618:
C6E2 DD 36 FE 01 0 10018 ld (ix-2), 1
C6E6 C3 A9 C7    0 10019 jp __LABEL620
C6E9             0 10020 __LABEL623:
C6E9 DD 7E FD    0 10021 ld a, (ix-3)
C6EC 6F          0 10022 ld l, a
C6ED 26 00       0 10023 ld h, 0
C6EF 2B          0 10024 dec hl
C6F0 E5          0 10025 push hl
C6F1 DD 7E FE    0 10026 ld a, (ix-2)
C6F4 6F          0 10027 ld l, a
C6F5 26 00       0 10028 ld h, 0
C6F7 2B          0 10029 dec hl
C6F8 E5          0 10030 push hl
C6F9 21 9F F8    0 10031 ld hl, _solidMap
C6FC CD B4 CC    0 10032 call __ARRAY
C6FF 7E          0 10033 ld a, (hl)
C700 3D          0 10034 dec a
C701 D6 01       0 10035 sub 1
C703 9F          0 10036 sbc a, a
C704 CD 65 D5    0 10037 call __NORMALIZE_BOOLEAN
C707 B7          0 10038 or a
C708 CA A6 C7    0 10039 jp z, __LABEL626
C70B DD 7E FD    0 10040 ld a, (ix-3)
C70E D6 0C       0 10041 sub 12
C710 D6 01       0 10042 sub 1
C712 9F          0 10043 sbc a, a
C713 CD 65 D5    0 10044 call __NORMALIZE_BOOLEAN
C716 F5          0 10045 push af
C717 DD 7E FD    0 10046 ld a, (ix-3)
C71A 3D          0 10047 dec a
C71B D6 01       0 10048 sub 1
C71D 9F          0 10049 sbc a, a
C71E CD 65 D5    0 10050 call __NORMALIZE_BOOLEAN
C721 F5          0 10051 push af
C722 3A 1D D6    0 10052 ld a, (_currentMapExit)
C725 D6 01       0 10053 sub 1
C727 9F          0 10054 sbc a, a
C728 CD 65 D5    0 10055 call __NORMALIZE_BOOLEAN
C72B 67          0 10056 ld h, a
C72C F1          0 10057 pop af
C72D B7          0 10058 or a
C72E 28 01       0 10059 jr z, __LABEL725
C730 7C          0 10060 ld a, h
C731             0 10061 __LABEL725:
C731 CD 65 D5    0 10062 call __NORMALIZE_BOOLEAN
C734 D1          0 10063 pop de
C735 B2          0 10064 or d
C736 CD 65 D5    0 10065 call __NORMALIZE_BOOLEAN
C739 F5          0 10066 push af
C73A DD 7E FE    0 10067 ld a, (ix-2)
C73D 3D          0 10068 dec a
C73E D6 01       0 10069 sub 1
C740 9F          0 10070 sbc a, a
C741 CD 65 D5    0 10071 call __NORMALIZE_BOOLEAN
C744 F5          0 10072 push af
C745 3A 1D D6    0 10073 ld a, (_currentMapExit)
C748 D6 02       0 10074 sub 2
C74A D6 01       0 10075 sub 1
C74C 9F          0 10076 sbc a, a
C74D CD 65 D5    0 10077 call __NORMALIZE_BOOLEAN
C750 67          0 10078 ld h, a
C751 F1          0 10079 pop af
C752 B7          0 10080 or a
C753 28 01       0 10081 jr z, __LABEL726
C755 7C          0 10082 ld a, h
C756             0 10083 __LABEL726:
C756 CD 65 D5    0 10084 call __NORMALIZE_BOOLEAN
C759 D1          0 10085 pop de
C75A B2          0 10086 or d
C75B CD 65 D5    0 10087 call __NORMALIZE_BOOLEAN
C75E F5          0 10088 push af
C75F DD 7E FE    0 10089 ld a, (ix-2)
C762 D6 20       0 10090 sub 32
C764 D6 01       0 10091 sub 1
C766 9F          0 10092 sbc a, a
C767 CD 65 D5    0 10093 call __NORMALIZE_BOOLEAN
C76A F5          0 10094 push af
C76B 3A 1D D6    0 10095 ld a, (_currentMapExit)
C76E D6 03       0 10096 sub 3
C770 D6 01       0 10097 sub 1
C772 9F          0 10098 sbc a, a
C773 CD 65 D5    0 10099 call __NORMALIZE_BOOLEAN
C776 67          0 10100 ld h, a
C777 F1          0 10101 pop af
C778 B7          0 10102 or a
C779 28 01       0 10103 jr z, __LABEL727
C77B 7C          0 10104 ld a, h
C77C             0 10105 __LABEL727:
C77C CD 65 D5    0 10106 call __NORMALIZE_BOOLEAN
C77F D1          0 10107 pop de
C780 B2          0 10108 or d
C781 CD 65 D5    0 10109 call __NORMALIZE_BOOLEAN
C784 B7          0 10110 or a
C785 CA A6 C7    0 10111 jp z, __LABEL628
C788 DD 7E FC    0 10112 ld a, (ix-4)
C78B 6F          0 10113 ld l, a
C78C 26 00       0 10114 ld h, 0
C78E E5          0 10115 push hl
C78F DD 7E FE    0 10116 ld a, (ix-2)
C792 3D          0 10117 dec a
C793 6F          0 10118 ld l, a
C794 26 00       0 10119 ld h, 0
C796 E5          0 10120 push hl
C797 DD 7E FD    0 10121 ld a, (ix-3)
C79A C6 05       0 10122 add a, 5
C79C 6F          0 10123 ld l, a
C79D 26 00       0 10124 ld h, 0
C79F E5          0 10125 push hl
C7A0 21 67 F8    0 10126 ld hl, _outWall.__DATA__
C7A3 CD 16 8B    0 10127 call _printColorChar
C7A6             0 10128 __LABEL628:
C7A6             0 10129 __LABEL626:
C7A6             0 10130 __LABEL624:
C7A6 DD 34 FE    0 10131 inc (ix-2)
C7A9             0 10132 __LABEL620:
C7A9 DD 7E FE    0 10133 ld a, (ix-2)
C7AC F5          0 10134 push af
C7AD 3E 20       0 10135 ld a, 32
C7AF E1          0 10136 pop hl
C7B0 BC          0 10137 cp h
C7B1 9F          0 10138 sbc a, a
C7B2 CD 65 D5    0 10139 call __NORMALIZE_BOOLEAN
C7B5 B7          0 10140 or a
C7B6 CA E9 C6    0 10141 jp z, __LABEL623
C7B9             0 10142 __LABEL622:
C7B9             0 10143 __LABEL619:
C7B9 DD 34 FD    0 10144 inc (ix-3)
C7BC             0 10145 __LABEL615:
C7BC DD 7E FD    0 10146 ld a, (ix-3)
C7BF F5          0 10147 push af
C7C0 3E 0C       0 10148 ld a, 12
C7C2 E1          0 10149 pop hl
C7C3 BC          0 10150 cp h
C7C4 9F          0 10151 sbc a, a
C7C5 CD 65 D5    0 10152 call __NORMALIZE_BOOLEAN
C7C8 B7          0 10153 or a
C7C9 CA E2 C6    0 10154 jp z, __LABEL618
C7CC             0 10155 __LABEL617:
C7CC 3A 25 D6    0 10156 ld a, (_playerX)
C7CF D6 01       0 10157 sub 1
C7D1 9F          0 10158 sbc a, a
C7D2 CD 65 D5    0 10159 call __NORMALIZE_BOOLEAN
C7D5 F5          0 10160 push af
C7D6 3A 26 D6    0 10161 ld a, (_playerY)
C7D9 D6 01       0 10162 sub 1
C7DB 9F          0 10163 sbc a, a
C7DC CD 65 D5    0 10164 call __NORMALIZE_BOOLEAN
C7DF 67          0 10165 ld h, a
C7E0 F1          0 10166 pop af
C7E1 B7          0 10167 or a
C7E2 28 01       0 10168 jr z, __LABEL728
C7E4 7C          0 10169 ld a, h
C7E5             0 10170 __LABEL728:
C7E5 CD 65 D5    0 10171 call __NORMALIZE_BOOLEAN
C7E8 B7          0 10172 or a
C7E9 CA 2F C8    0 10173 jp z, __LABEL630
C7EC 3E 78       0 10174 ld a, 120
C7EE 32 26 D6    0 10175 ld (_playerY), a
C7F1 DD 7E F8    0 10176 ld a, (ix-8)
C7F4 F5          0 10177 push af
C7F5 3E 10       0 10178 ld a, 16
C7F7 E1          0 10179 pop hl
C7F8 BC          0 10180 cp h
C7F9 9F          0 10181 sbc a, a
C7FA CD 65 D5    0 10182 call __NORMALIZE_BOOLEAN
C7FD B7          0 10183 or a
C7FE CA 1A C8    0 10184 jp z, __LABEL631
C801 3E 08       0 10185 ld a, 8
C803 32 25 D6    0 10186 ld (_playerX), a
C806 21 A4 F7    0 10187 ld hl, _head1r.__DATA__
C809 22 2B D6    0 10188 ld (_lastHead), hl
C80C 21 C2 F7    0 10189 ld hl, _body1r.__DATA__
C80F 22 2D D6    0 10190 ld (_lastBody), hl
C812 3E 01       0 10191 ld a, 1
C814 32 29 D6    0 10192 ld (_playerDir), a
C817 C3 2F C8    0 10193 jp __LABEL632
C81A             0 10194 __LABEL631:
C81A 3E F0       0 10195 ld a, 240
C81C 32 25 D6    0 10196 ld (_playerX), a
C81F 21 E0 F7    0 10197 ld hl, _head1l.__DATA__
C822 22 2B D6    0 10198 ld (_lastHead), hl
C825 21 FE F7    0 10199 ld hl, _body1l.__DATA__
C828 22 2D D6    0 10200 ld (_lastBody), hl
C82B AF          0 10201 xor a
C82C 32 29 D6    0 10202 ld (_playerDir), a
C82F             0 10203 __LABEL632:
C82F             0 10204 __LABEL630:
C82F DD 7E FF    0 10205 ld a, (ix-1)
C832 F5          0 10206 push af
C833 3E 0C       0 10207 ld a, 12
C835 F5          0 10208 push af
C836 3E 0A       0 10209 ld a, 10
C838 F5          0 10210 push af
C839 2A 1A D6    0 10211 ld hl, (_currentMapIndex)
C83C 11 00 00    0 10212 ld de, 0
C83F CD E3 D5    0 10213 call __U32TOFREG
C842 CD CF D4    0 10214 call __STR_FAST
C845 EB          0 10215 ex de, hl
C846 21 CE CB    0 10216 ld hl, __LABEL633
C849 D5          0 10217 push de
C84A CD 10 D5    0 10218 call __ADDSTR
C84D E3          0 10219 ex (sp), hl
C84E CD 3D CD    0 10220 call __MEM_FREE
C851 E1          0 10221 pop hl
C852 E5          0 10222 push hl
C853 CD 10 89    0 10223 call _printZXString
C856             0 10224 _entrance__leave:
C856 08          0 10225 ex af, af'
C857 D9          0 10226 exx
C858 DD 6E F2    0 10227 ld l, (ix-14)
C85B DD 66 F3    0 10228 ld h, (ix-13)
C85E CD 3D CD    0 10229 call __MEM_FREE
C861 08          0 10230 ex af, af'
C862 D9          0 10231 exx
C863 DD F9       0 10232 ld sp, ix
C865 DD E1       0 10233 pop ix
C867 C9          0 10234 ret
C868             0 10235 _checkFire:
C868 DD E5       0 10236 push ix
C86A DD 21 00 00 0 10237 ld ix, 0
C86E DD 39       0 10238 add ix, sp
C870 3A 42 D6    0 10239 ld a, (_shotX)
C873 32 40 D6    0 10240 ld (_prevShotX), a
C876 3A 43 D6    0 10241 ld a, (_shotY)
C879 32 41 D6    0 10242 ld (_prevShotY), a
C87C 3A E4 FA    0 10243 ld a, (_keyStates.__DATA__ + 4)
C87F F5          0 10244 push af
C880 3A 1F D6    0 10245 ld a, (_frameCounter)
C883 E6 01       0 10246 and 1
C885 67          0 10247 ld h, a
C886 F1          0 10248 pop af
C887 B7          0 10249 or a
C888 28 01       0 10250 jr z, __LABEL729
C88A 7C          0 10251 ld a, h
C88B             0 10252 __LABEL729:
C88B CD 65 D5    0 10253 call __NORMALIZE_BOOLEAN
C88E B7          0 10254 or a
C88F CA A6 C9    0 10255 jp z, __LABEL634
C892 3A 29 D6    0 10256 ld a, (_playerDir)
C895 3D          0 10257 dec a
C896 D6 01       0 10258 sub 1
C898 9F          0 10259 sbc a, a
C899 CD 65 D5    0 10260 call __NORMALIZE_BOOLEAN
C89C B7          0 10261 or a
C89D CA B8 C8    0 10262 jp z, __LABEL636
C8A0 3A 25 D6    0 10263 ld a, (_playerX)
C8A3 FE F8       0 10264 cp 248
C8A5 9F          0 10265 sbc a, a
C8A6 CD 65 D5    0 10266 call __NORMALIZE_BOOLEAN
C8A9 B7          0 10267 or a
C8AA CA B5 C8    0 10268 jp z, __LABEL639
C8AD 3A 25 D6    0 10269 ld a, (_playerX)
C8B0 C6 08       0 10270 add a, 8
C8B2 32 42 D6    0 10271 ld (_shotX), a
C8B5             0 10272 __LABEL639:
C8B5 C3 CE C8    0 10273 jp __LABEL637
C8B8             0 10274 __LABEL636:
C8B8 3E 08       0 10275 ld a, 8
C8BA 2A 24 D6    0 10276 ld hl, (_playerX - 1)
C8BD BC          0 10277 cp h
C8BE 9F          0 10278 sbc a, a
C8BF CD 65 D5    0 10279 call __NORMALIZE_BOOLEAN
C8C2 B7          0 10280 or a
C8C3 CA CE C8    0 10281 jp z, __LABEL641
C8C6 3A 25 D6    0 10282 ld a, (_playerX)
C8C9 D6 08       0 10283 sub 8
C8CB 32 42 D6    0 10284 ld (_shotX), a
C8CE             0 10285 __LABEL641:
C8CE             0 10286 __LABEL637:
C8CE 3A 26 D6    0 10287 ld a, (_playerY)
C8D1 C6 04       0 10288 add a, 4
C8D3 32 43 D6    0 10289 ld (_shotY), a
C8D6 C6 05       0 10290 add a, 5
C8D8 32 3D D6    0 10291 ld (_tmpZ), a
C8DB 3E 01       0 10292 ld a, 1
C8DD 32 3F D6    0 10293 ld (_tmpResult), a
C8E0 C3 8F C9    0 10294 jp __LABEL642
C8E3             0 10295 __LABEL645:
C8E3 21 00 00    0 10296 ld hl, 0
C8E6 E5          0 10297 push hl
C8E7 3A 3F D6    0 10298 ld a, (_tmpResult)
C8EA 6F          0 10299 ld l, a
C8EB 26 00       0 10300 ld h, 0
C8ED 2B          0 10301 dec hl
C8EE E5          0 10302 push hl
C8EF 21 91 FA    0 10303 ld hl, _enemyStates
C8F2 CD B4 CC    0 10304 call __ARRAY
C8F5 7E          0 10305 ld a, (hl)
C8F6 CD 65 D5    0 10306 call __NORMALIZE_BOOLEAN
C8F9 B7          0 10307 or a
C8FA CA 8B C9    0 10308 jp z, __LABEL648
C8FD 21 01 00    0 10309 ld hl, 1
C900 E5          0 10310 push hl
C901 3A 3F D6    0 10311 ld a, (_tmpResult)
C904 6F          0 10312 ld l, a
C905 26 00       0 10313 ld h, 0
C907 2B          0 10314 dec hl
C908 E5          0 10315 push hl
C909 21 91 FA    0 10316 ld hl, _enemyStates
C90C CD B4 CC    0 10317 call __ARRAY
C90F 7E          0 10318 ld a, (hl)
C910 32 3B D6    0 10319 ld (_tmpX), a
C913 21 02 00    0 10320 ld hl, 2
C916 E5          0 10321 push hl
C917 3A 3F D6    0 10322 ld a, (_tmpResult)
C91A 6F          0 10323 ld l, a
C91B 26 00       0 10324 ld h, 0
C91D 2B          0 10325 dec hl
C91E E5          0 10326 push hl
C91F 21 91 FA    0 10327 ld hl, _enemyStates
C922 CD B4 CC    0 10328 call __ARRAY
C925 7E          0 10329 ld a, (hl)
C926 32 3C D6    0 10330 ld (_tmpY), a
C929 3A 42 D6    0 10331 ld a, (_shotX)
C92C C6 08       0 10332 add a, 8
C92E 67          0 10333 ld h, a
C92F 3A 3B D6    0 10334 ld a, (_tmpX)
C932 BC          0 10335 cp h
C933 9F          0 10336 sbc a, a
C934 CD 65 D5    0 10337 call __NORMALIZE_BOOLEAN
C937 F5          0 10338 push af
C938 3A 3B D6    0 10339 ld a, (_tmpX)
C93B C6 08       0 10340 add a, 8
C93D F5          0 10341 push af
C93E 3A 42 D6    0 10342 ld a, (_shotX)
C941 E1          0 10343 pop hl
C942 BC          0 10344 cp h
C943 9F          0 10345 sbc a, a
C944 CD 65 D5    0 10346 call __NORMALIZE_BOOLEAN
C947 67          0 10347 ld h, a
C948 F1          0 10348 pop af
C949 B7          0 10349 or a
C94A 28 01       0 10350 jr z, __LABEL730
C94C 7C          0 10351 ld a, h
C94D             0 10352 __LABEL730:
C94D CD 65 D5    0 10353 call __NORMALIZE_BOOLEAN
C950 F5          0 10354 push af
C951 2A 3C D6    0 10355 ld hl, (_tmpZ - 1)
C954 3A 3C D6    0 10356 ld a, (_tmpY)
C957 BC          0 10357 cp h
C958 9F          0 10358 sbc a, a
C959 CD 65 D5    0 10359 call __NORMALIZE_BOOLEAN
C95C 67          0 10360 ld h, a
C95D F1          0 10361 pop af
C95E B7          0 10362 or a
C95F 28 01       0 10363 jr z, __LABEL731
C961 7C          0 10364 ld a, h
C962             0 10365 __LABEL731:
C962 CD 65 D5    0 10366 call __NORMALIZE_BOOLEAN
C965 F5          0 10367 push af
C966 3A 3C D6    0 10368 ld a, (_tmpY)
C969 C6 08       0 10369 add a, 8
C96B F5          0 10370 push af
C96C 3A 3D D6    0 10371 ld a, (_tmpZ)
C96F E1          0 10372 pop hl
C970 BC          0 10373 cp h
C971 9F          0 10374 sbc a, a
C972 CD 65 D5    0 10375 call __NORMALIZE_BOOLEAN
C975 67          0 10376 ld h, a
C976 F1          0 10377 pop af
C977 B7          0 10378 or a
C978 28 01       0 10379 jr z, __LABEL732
C97A 7C          0 10380 ld a, h
C97B             0 10381 __LABEL732:
C97B CD 65 D5    0 10382 call __NORMALIZE_BOOLEAN
C97E B7          0 10383 or a
C97F CA 8B C9    0 10384 jp z, __LABEL650
C982 3A 3F D6    0 10385 ld a, (_tmpResult)
C985 32 44 D6    0 10386 ld (_deadEnemy), a
C988 C3 9E C9    0 10387 jp __LABEL644
C98B             0 10388 __LABEL650:
C98B             0 10389 __LABEL648:
C98B             0 10390 __LABEL646:
C98B 21 3F D6    0 10391 ld hl, _tmpResult
C98E 34          0 10392 inc (hl)
C98F             0 10393 __LABEL642:
C98F 3A 1E D6    0 10394 ld a, (_enemyCount)
C992 2A 3E D6    0 10395 ld hl, (_tmpResult - 1)
C995 BC          0 10396 cp h
C996 9F          0 10397 sbc a, a
C997 CD 65 D5    0 10398 call __NORMALIZE_BOOLEAN
C99A B7          0 10399 or a
C99B CA E3 C8    0 10400 jp z, __LABEL645
C99E             0 10401 __LABEL644:
C99E 3E 03       0 10402 ld a, 3
C9A0 CD 7C C0    0 10403 call _playAudio
C9A3 C3 AE C9    0 10404 jp __LABEL635
C9A6             0 10405 __LABEL634:
C9A6 AF          0 10406 xor a
C9A7 32 42 D6    0 10407 ld (_shotX), a
C9AA AF          0 10408 xor a
C9AB 32 43 D6    0 10409 ld (_shotY), a
C9AE             0 10410 __LABEL635:
C9AE             0 10411 _checkFire__leave:
C9AE DD F9       0 10412 ld sp, ix
C9B0 DD E1       0 10413 pop ix
C9B2 C9          0 10414 ret
C9B3             0 10415 _personSaved:
C9B3 DD E5       0 10416 push ix
C9B5 DD 21 00 00 0 10417 ld ix, 0
C9B9 DD 39       0 10418 add ix, sp
C9BB 3E 07       0 10419 ld a, 7
C9BD F5          0 10420 push af
C9BE 3E 0A       0 10421 ld a, 10
C9C0 F5          0 10422 push af
C9C1 3E 0A       0 10423 ld a, 10
C9C3 F5          0 10424 push af
C9C4 21 B6 CB    0 10425 ld hl, __LABEL469
C9C7 CD 89 D3    0 10426 call __LOADSTR
C9CA E5          0 10427 push hl
C9CB CD 10 89    0 10428 call _printZXString
C9CE 3E 07       0 10429 ld a, 7
C9D0 F5          0 10430 push af
C9D1 3E 0A       0 10431 ld a, 10
C9D3 F5          0 10432 push af
C9D4 3E 0B       0 10433 ld a, 11
C9D6 F5          0 10434 push af
C9D7 21 D6 CB    0 10435 ld hl, __LABEL651
C9DA CD 89 D3    0 10436 call __LOADSTR
C9DD E5          0 10437 push hl
C9DE CD 10 89    0 10438 call _printZXString
C9E1 3E 07       0 10439 ld a, 7
C9E3 F5          0 10440 push af
C9E4 3E 0A       0 10441 ld a, 10
C9E6 F5          0 10442 push af
C9E7 3E 0C       0 10443 ld a, 12
C9E9 F5          0 10444 push af
C9EA 21 B6 CB    0 10445 ld hl, __LABEL469
C9ED CD 89 D3    0 10446 call __LOADSTR
C9F0 E5          0 10447 push hl
C9F1 CD 10 89    0 10448 call _printZXString
C9F4 CD 0D 90    0 10449 call _dumpScreenCenter
C9F7 3E 05       0 10450 ld a, 5
C9F9 CD 7C C0    0 10451 call _playAudio
C9FC CD 44 B9    0 10452 call _longPause
C9FF CD 44 B9    0 10453 call _longPause
CA02             0 10454 _personSaved__leave:
CA02 DD F9       0 10455 ld sp, ix
CA04 DD E1       0 10456 pop ix
CA06 C9          0 10457 ret
CA07             0 10458 _updateScore:
CA07 DD E5       0 10459 push ix
CA09 DD 21 00 00 0 10460 ld ix, 0
CA0D DD 39       0 10461 add ix, sp
CA0F 21 00 00    0 10462 ld hl, 0
CA12 E5          0 10463 push hl
CA13 DD 6E 04    0 10464 ld l, (ix+4)
CA16 DD 66 05    0 10465 ld h, (ix+5)
CA19 EB          0 10466 ex de, hl
CA1A 2A 49 D6    0 10467 ld hl, (_score)
CA1D 19          0 10468 add hl, de
CA1E 22 49 D6    0 10469 ld (_score), hl
CA21 11 00 00    0 10470 ld de, 0
CA24 CD E3 D5    0 10471 call __U32TOFREG
CA27 CD CF D4    0 10472 call __STR_FAST
CA2A 54          0 10473 ld d, h
CA2B 5D          0 10474 ld e, l
CA2C 01 FE FF    0 10475 ld bc, -2
CA2F CD AC D4    0 10476 call __PSTORE_STR2
CA32 3E 15       0 10477 ld a, 21
CA34 F5          0 10478 push af
CA35 DD 6E FE    0 10479 ld l, (ix-2)
CA38 DD 66 FF    0 10480 ld h, (ix-1)
CA3B CD 08 D5    0 10481 call __STRLEN
CA3E EB          0 10482 ex de, hl
CA3F 21 05 00    0 10483 ld hl, 5
CA42 B7          0 10484 or a
CA43 ED 52       0 10485 sbc hl, de
CA45 11 11 00    0 10486 ld de, 17
CA48 19          0 10487 add hl, de
CA49 7D          0 10488 ld a, l
CA4A CD 67 D1    0 10489 call PRINT_AT
CA4D 3E 07       0 10490 ld a, 7
CA4F CD 82 CE    0 10491 call INK_TMP
CA52 AF          0 10492 xor a
CA53 CD A6 CE    0 10493 call PAPER_TMP
CA56 DD 6E FE    0 10494 ld l, (ix-2)
CA59 DD 66 FF    0 10495 ld h, (ix-1)
CA5C AF          0 10496 xor a
CA5D CD D6 D3    0 10497 call __PRINTSTR
CA60 CD D0 D3    0 10498 call PRINT_EOL_ATTR
CA63             0 10499 _updateScore__leave:
CA63 08          0 10500 ex af, af'
CA64 D9          0 10501 exx
CA65 DD 6E FE    0 10502 ld l, (ix-2)
CA68 DD 66 FF    0 10503 ld h, (ix-1)
CA6B CD 3D CD    0 10504 call __MEM_FREE
CA6E 08          0 10505 ex af, af'
CA6F D9          0 10506 exx
CA70 DD F9       0 10507 ld sp, ix
CA72 DD E1       0 10508 pop ix
CA74 D9          0 10509 exx
CA75 E1          0 10510 pop hl
CA76 E3          0 10511 ex (sp), hl
CA77 D9          0 10512 exx
CA78 C9          0 10513 ret
CA79             0 10514 _presentEnd:
CA79 DD E5       0 10515 push ix
CA7B DD 21 00 00 0 10516 ld ix, 0
CA7F DD 39       0 10517 add ix, sp
CA81 3E 07       0 10518 ld a, 7
CA83 CD 05 8A    0 10519 call _clearScreen
CA86 3E 07       0 10520 ld a, 7
CA88 F5          0 10521 push af
CA89 3E 03       0 10522 ld a, 3
CA8B F5          0 10523 push af
CA8C 3E 05       0 10524 ld a, 5
CA8E F5          0 10525 push af
CA8F 21 E2 CB    0 10526 ld hl, __LABEL652
CA92 CD 89 D3    0 10527 call __LOADSTR
CA95 E5          0 10528 push hl
CA96 CD 10 89    0 10529 call _printZXString
CA99 3E 07       0 10530 ld a, 7
CA9B F5          0 10531 push af
CA9C 3E 08       0 10532 ld a, 8
CA9E F5          0 10533 push af
CA9F 3E 07       0 10534 ld a, 7
CAA1 F5          0 10535 push af
CAA2 21 FE CB    0 10536 ld hl, __LABEL653
CAA5 CD 89 D3    0 10537 call __LOADSTR
CAA8 E5          0 10538 push hl
CAA9 CD 10 89    0 10539 call _printZXString
CAAC 3E 07       0 10540 ld a, 7
CAAE F5          0 10541 push af
CAAF 3E 08       0 10542 ld a, 8
CAB1 F5          0 10543 push af
CAB2 3E 09       0 10544 ld a, 9
CAB4 F5          0 10545 push af
CAB5 2A 49 D6    0 10546 ld hl, (_score)
CAB8 11 00 00    0 10547 ld de, 0
CABB CD E3 D5    0 10548 call __U32TOFREG
CABE CD CF D4    0 10549 call __STR_FAST
CAC1 EB          0 10550 ex de, hl
CAC2 21 10 CC    0 10551 ld hl, __LABEL654
CAC5 D5          0 10552 push de
CAC6 CD 10 D5    0 10553 call __ADDSTR
CAC9 E3          0 10554 ex (sp), hl
CACA CD 3D CD    0 10555 call __MEM_FREE
CACD E1          0 10556 pop hl
CACE E5          0 10557 push hl
CACF CD 10 89    0 10558 call _printZXString
CAD2 F3          0 10560 di
CAD3 CD A1 8D    0 10562 call _dumpScreen
CAD6 3E 50       0 10563 ld a, 80
CAD8 32 55 D6    0 10564 ld (_tmpColor), a
CADB             0 10565 __LABEL655:
CADB 3A E4 FA    0 10566 ld a, (_keyStates.__DATA__ + 4)
CADE D6 01       0 10567 sub 1
CAE0 9F          0 10568 sbc a, a
CAE1 CD 65 D5    0 10569 call __NORMALIZE_BOOLEAN
CAE4 B7          0 10570 or a
CAE5 CA 56 CB    0 10571 jp z, __LABEL656
CAE8 AF          0 10572 xor a
CAE9 32 3C D6    0 10573 ld (_tmpY), a
CAEC C3 3C CB    0 10574 jp __LABEL657
CAEF             0 10575 __LABEL660:
CAEF AF          0 10576 xor a
CAF0 32 3B D6    0 10577 ld (_tmpX), a
CAF3 C3 11 CB    0 10578 jp __LABEL662
CAF6             0 10579 __LABEL665:
CAF6 3A 55 D6    0 10580 ld a, (_tmpColor)
CAF9 6F          0 10581 ld l, a
CAFA 26 00       0 10582 ld h, 0
CAFC E5          0 10583 push hl
CAFD 3A 3B D6    0 10584 ld a, (_tmpX)
CB00 6F          0 10585 ld l, a
CB01 26 00       0 10586 ld h, 0
CB03 E5          0 10587 push hl
CB04 3A 3C D6    0 10588 ld a, (_tmpY)
CB07 6F          0 10589 ld l, a
CB08 26 00       0 10590 ld h, 0
CB0A CD F1 89    0 10591 call _setAttrib
CB0D             0 10592 __LABEL666:
CB0D 21 3B D6    0 10593 ld hl, _tmpX
CB10 34          0 10594 inc (hl)
CB11             0 10595 __LABEL662:
CB11 3E 1F       0 10596 ld a, 31
CB13 2A 3A D6    0 10597 ld hl, (_tmpX - 1)
CB16 BC          0 10598 cp h
CB17 9F          0 10599 sbc a, a
CB18 CD 65 D5    0 10600 call __NORMALIZE_BOOLEAN
CB1B B7          0 10601 or a
CB1C CA F6 CA    0 10602 jp z, __LABEL665
CB1F             0 10603 __LABEL664:
CB1F 3A 55 D6    0 10604 ld a, (_tmpColor)
CB22 C6 08       0 10605 add a, 8
CB24 32 55 D6    0 10606 ld (_tmpColor), a
CB27 D6 78       0 10607 sub 120
CB29 D6 01       0 10608 sub 1
CB2B 9F          0 10609 sbc a, a
CB2C CD 65 D5    0 10610 call __NORMALIZE_BOOLEAN
CB2F B7          0 10611 or a
CB30 CA 38 CB    0 10612 jp z, __LABEL668
CB33 3E 50       0 10613 ld a, 80
CB35 32 55 D6    0 10614 ld (_tmpColor), a
CB38             0 10615 __LABEL668:
CB38             0 10616 __LABEL661:
CB38 21 3C D6    0 10617 ld hl, _tmpY
CB3B 34          0 10618 inc (hl)
CB3C             0 10619 __LABEL657:
CB3C 3E 17       0 10620 ld a, 23
CB3E 2A 3B D6    0 10621 ld hl, (_tmpY - 1)
CB41 BC          0 10622 cp h
CB42 9F          0 10623 sbc a, a
CB43 CD 65 D5    0 10624 call __NORMALIZE_BOOLEAN
CB46 B7          0 10625 or a
CB47 CA EF CA    0 10626 jp z, __LABEL660
CB4A             0 10627 __LABEL659:
CB4A FB          0 10629 ei
CB4B 76          0 10630 halt
CB4C F3          0 10631 di
CB4D CD E5 90    0 10633 call _dumpAttribs
CB50 CD DC B8    0 10634 call _keybScan
CB53 C3 DB CA    0 10635 jp __LABEL655
CB56             0 10636 __LABEL656:
CB56             0 10637 _presentEnd__leave:
CB56 DD F9       0 10638 ld sp, ix
CB58 DD E1       0 10639 pop ix
CB5A C9          0 10640 ret
CB5B             0 10641 __LABEL0:
CB5B 00 00       0 10642 DEFW 0000h
CB5D             0 10643 __LABEL79:
CB5D 01 00       0 10644 DEFW 0001h
CB5F 08          0 10645 DEFB 08h
CB60             0 10646 __LABEL87:
CB60 01 00       0 10647 DEFW 0001h
CB62 20          0 10648 DEFB 20h
CB63             0 10649 __LABEL105:
CB63 0D 00       0 10650 DEFW 000Dh
CB65 52          0 10651 DEFB 52h
CB66 20          0 10652 DEFB 20h
CB67 45          0 10653 DEFB 45h
CB68 20          0 10654 DEFB 20h
CB69 54          0 10655 DEFB 54h
CB6A 20          0 10656 DEFB 20h
CB6B 55          0 10657 DEFB 55h
CB6C 20          0 10658 DEFB 20h
CB6D 52          0 10659 DEFB 52h
CB6E 20          0 10660 DEFB 20h
CB6F 4E          0 10661 DEFB 4Eh
CB70 20          0 10662 DEFB 20h
CB71 53          0 10663 DEFB 53h
CB72             0 10664 __LABEL106:
CB72 05 00       0 10665 DEFW 0005h
CB74 50          0 10666 DEFB 50h
CB75 4F          0 10667 DEFB 4Fh
CB76 57          0 10668 DEFB 57h
CB77 45          0 10669 DEFB 45h
CB78 52          0 10670 DEFB 52h
CB79             0 10671 __LABEL107:
CB79 04 00       0 10672 DEFW 0004h
CB7B 4C          0 10673 DEFB 4Ch
CB7C 49          0 10674 DEFB 49h
CB7D 46          0 10675 DEFB 46h
CB7E 45          0 10676 DEFB 45h
CB7F             0 10677 __LABEL108:
CB7F 04 00       0 10678 DEFW 0004h
CB81 42          0 10679 DEFB 42h
CB82 4F          0 10680 DEFB 4Fh
CB83 4D          0 10681 DEFB 4Dh
CB84 42          0 10682 DEFB 42h
CB85             0 10683 __LABEL109:
CB85 12 00       0 10684 DEFW 0012h
CB87 28          0 10685 DEFB 28h
CB88 43          0 10686 DEFB 43h
CB89 29          0 10687 DEFB 29h
CB8A 47          0 10688 DEFB 47h
CB8B 75          0 10689 DEFB 75h
CB8C 73          0 10690 DEFB 73h
CB8D 69          0 10691 DEFB 69h
CB8E 76          0 10692 DEFB 76h
CB8F 69          0 10693 DEFB 69h
CB90 73          0 10694 DEFB 73h
CB91 69          0 10695 DEFB 69h
CB92 6F          0 10696 DEFB 6Fh
CB93 6E          0 10697 DEFB 6Eh
CB94 20          0 10698 DEFB 20h
CB95 32          0 10699 DEFB 32h
CB96 30          0 10700 DEFB 30h
CB97 32          0 10701 DEFB 32h
CB98 30          0 10702 DEFB 30h
CB99             0 10703 __LABEL110:
CB99 0C 00       0 10704 DEFW 000Ch
CB9B 53          0 10705 DEFB 53h
CB9C 43          0 10706 DEFB 43h
CB9D 4F          0 10707 DEFB 4Fh
CB9E 52          0 10708 DEFB 52h
CB9F 45          0 10709 DEFB 45h
CBA0 3A          0 10710 DEFB 3Ah
CBA1 20          0 10711 DEFB 20h
CBA2 30          0 10712 DEFB 30h
CBA3 30          0 10713 DEFB 30h
CBA4 30          0 10714 DEFB 30h
CBA5 30          0 10715 DEFB 30h
CBA6 30          0 10716 DEFB 30h
CBA7             0 10717 __LABEL111:
CBA7 0D 00       0 10718 DEFW 000Dh
CBA9 46          0 10719 DEFB 46h
CBAA 49          0 10720 DEFB 49h
CBAB 52          0 10721 DEFB 52h
CBAC 45          0 10722 DEFB 45h
CBAD 20          0 10723 DEFB 20h
CBAE 54          0 10724 DEFB 54h
CBAF 4F          0 10725 DEFB 4Fh
CBB0 20          0 10726 DEFB 20h
CBB1 53          0 10727 DEFB 53h
CBB2 54          0 10728 DEFB 54h
CBB3 41          0 10729 DEFB 41h
CBB4 52          0 10730 DEFB 52h
CBB5 54          0 10731 DEFB 54h
CBB6             0 10732 __LABEL469:
CBB6 0A 00       0 10733 DEFW 000Ah
CBB8 20          0 10734 DEFB 20h
CBB9 20          0 10735 DEFB 20h
CBBA 20          0 10736 DEFB 20h
CBBB 20          0 10737 DEFB 20h
CBBC 20          0 10738 DEFB 20h
CBBD 20          0 10739 DEFB 20h
CBBE 20          0 10740 DEFB 20h
CBBF 20          0 10741 DEFB 20h
CBC0 20          0 10742 DEFB 20h
CBC1 20          0 10743 DEFB 20h
CBC2             0 10744 __LABEL470:
CBC2 0A 00       0 10745 DEFW 000Ah
CBC4 20          0 10746 DEFB 20h
CBC5 59          0 10747 DEFB 59h
CBC6 4F          0 10748 DEFB 4Fh
CBC7 55          0 10749 DEFB 55h
CBC8 20          0 10750 DEFB 20h
CBC9 44          0 10751 DEFB 44h
CBCA 49          0 10752 DEFB 49h
CBCB 45          0 10753 DEFB 45h
CBCC 44          0 10754 DEFB 44h
CBCD 20          0 10755 DEFB 20h
CBCE             0 10756 __LABEL633:
CBCE 06 00       0 10757 DEFW 0006h
CBD0 4C          0 10758 DEFB 4Ch
CBD1 45          0 10759 DEFB 45h
CBD2 56          0 10760 DEFB 56h
CBD3 45          0 10761 DEFB 45h
CBD4 4C          0 10762 DEFB 4Ch
CBD5 20          0 10763 DEFB 20h
CBD6             0 10764 __LABEL651:
CBD6 0A 00       0 10765 DEFW 000Ah
CBD8 20          0 10766 DEFB 20h
CBD9 4D          0 10767 DEFB 4Dh
CBDA 59          0 10768 DEFB 59h
CBDB 20          0 10769 DEFB 20h
CBDC 48          0 10770 DEFB 48h
CBDD 45          0 10771 DEFB 45h
CBDE 52          0 10772 DEFB 52h
CBDF 4F          0 10773 DEFB 4Fh
CBE0 21          0 10774 DEFB 21h
CBE1 20          0 10775 DEFB 20h
CBE2             0 10776 __LABEL652:
CBE2 1A 00       0 10777 DEFW 001Ah
CBE4 59          0 10778 DEFB 59h
CBE5 6F          0 10779 DEFB 6Fh
CBE6 75          0 10780 DEFB 75h
CBE7 20          0 10781 DEFB 20h
CBE8 68          0 10782 DEFB 68h
CBE9 61          0 10783 DEFB 61h
CBEA 76          0 10784 DEFB 76h
CBEB 65          0 10785 DEFB 65h
CBEC 20          0 10786 DEFB 20h
CBED 72          0 10787 DEFB 72h
CBEE 65          0 10788 DEFB 65h
CBEF 73          0 10789 DEFB 73h
CBF0 63          0 10790 DEFB 63h
CBF1 75          0 10791 DEFB 75h
CBF2 65          0 10792 DEFB 65h
CBF3 64          0 10793 DEFB 64h
CBF4 20          0 10794 DEFB 20h
CBF5 65          0 10795 DEFB 65h
CBF6 76          0 10796 DEFB 76h
CBF7 65          0 10797 DEFB 65h
CBF8 72          0 10798 DEFB 72h
CBF9 79          0 10799 DEFB 79h
CBFA 62          0 10800 DEFB 62h
CBFB 6F          0 10801 DEFB 6Fh
CBFC 64          0 10802 DEFB 64h
CBFD 79          0 10803 DEFB 79h
CBFE             0 10804 __LABEL653:
CBFE 10 00       0 10805 DEFW 0010h
CC00 59          0 10806 DEFB 59h
CC01 4F          0 10807 DEFB 4Fh
CC02 55          0 10808 DEFB 55h
CC03 20          0 10809 DEFB 20h
CC04 41          0 10810 DEFB 41h
CC05 52          0 10811 DEFB 52h
CC06 45          0 10812 DEFB 45h
CC07 20          0 10813 DEFB 20h
CC08 54          0 10814 DEFB 54h
CC09 48          0 10815 DEFB 48h
CC0A 45          0 10816 DEFB 45h
CC0B 20          0 10817 DEFB 20h
CC0C 48          0 10818 DEFB 48h
CC0D 45          0 10819 DEFB 45h
CC0E 52          0 10820 DEFB 52h
CC0F 4F          0 10821 DEFB 4Fh
CC10             0 10822 __LABEL654:
CC10 0C 00       0 10823 DEFW 000Ch
CC12 59          0 10824 DEFB 59h
CC13 6F          0 10825 DEFB 6Fh
CC14 75          0 10826 DEFB 75h
CC15 72          0 10827 DEFB 72h
CC16 20          0 10828 DEFB 20h
CC17 73          0 10829 DEFB 73h
CC18 63          0 10830 DEFB 63h
CC19 6F          0 10831 DEFB 6Fh
CC1A 72          0 10832 DEFB 72h
CC1B 65          0 10833 DEFB 65h
CC1C 3A          0 10834 DEFB 3Ah
CC1D 20          0 10835 DEFB 20h
CC1E             0 10838 ; vim: ts=4:et:sw=4:
CC1E             0 10839 ; Copyleft (K) by Jose M. Rodriguez de la Rosa
CC1E             0 10840 ;  (a.k.a. Boriel)
CC1E             0 10841 ;  http://www.boriel.com
CC1E             0 10842 ;
CC1E             0 10843 ; This ASM library is licensed under the MIT license
CC1E             0 10844 ; you can use it for any purpose (even for commercial
CC1E             0 10845 ; closed source programs).
CC1E             0 10846 ;
CC1E             0 10847 ; Please read the MIT license on the internet
CC1E             0 10849 ; ----- IMPLEMENTATION NOTES ------
CC1E             0 10850 ; The heap is implemented as a linked list of free blocks.
CC1E             0 10852 ; Each free block contains this info:
CC1E             0 10853 ;
CC1E             0 10854 ; +----------------+ <-- HEAP START
CC1E             0 10855 ; | Size (2 bytes) |
CC1E             0 10856 ; |        0       | <-- Size = 0 => DUMMY HEADER BLOCK
CC1E             0 10857 ; +----------------+
CC1E             0 10858 ; | Next (2 bytes) |---+
CC1E             0 10859 ; +----------------+ <-+
CC1E             0 10860 ; | Size (2 bytes) |
CC1E             0 10861 ; +----------------+
CC1E             0 10862 ; | Next (2 bytes) |---+
CC1E             0 10863 ; +----------------+   |
CC1E             0 10864 ; | <free bytes...>|   | <-- If Size > 4, then this contains (size - 4) bytes
CC1E             0 10865 ; | (0 if Size = 4)|   |
CC1E             0 10866 ; +----------------+ <-+
CC1E             0 10867 ; | Size (2 bytes) |
CC1E             0 10868 ; +----------------+
CC1E             0 10869 ; | Next (2 bytes) |---+
CC1E             0 10870 ; +----------------+   |
CC1E             0 10871 ; | <free bytes...>|   |
CC1E             0 10872 ; | (0 if Size = 4)|   |
CC1E             0 10873 ; +----------------+   |
CC1E             0 10874 ;   <Allocated>        | <-- This zone is in use (Already allocated)
CC1E             0 10875 ; +----------------+ <-+
CC1E             0 10876 ; | Size (2 bytes) |
CC1E             0 10877 ; +----------------+
CC1E             0 10878 ; | Next (2 bytes) |---+
CC1E             0 10879 ; +----------------+   |
CC1E             0 10880 ; | <free bytes...>|   |
CC1E             0 10881 ; | (0 if Size = 4)|   |
CC1E             0 10882 ; +----------------+ <-+
CC1E             0 10883 ; | Next (2 bytes) |--> NULL => END OF LIST
CC1E             0 10884 ; |    0 = NULL    |
CC1E             0 10885 ; +----------------+
CC1E             0 10886 ; | <free bytes...>|
CC1E             0 10887 ; | (0 if Size = 4)|
CC1E             0 10888 ; +----------------+
CC1E             0 10891 ; When a block is FREED, the previous and next pointers are examined to see
CC1E             0 10892 ; if we can defragment the heap. If the block to be freed is just next to the
CC1E             0 10893 ; previous, or to the next (or both) they will be converted into a single
CC1E             0 10894 ; block (so defragmented).
CC1E             0 10897 ;   MEMORY MANAGER
CC1E             0 10898 ;
CC1E             0 10899 ; This library must be initialized calling __MEM_INIT with
CC1E             0 10900 ; HL = BLOCK Start & DE = Length.
CC1E             0 10902 ; An init directive is useful for initialization routines.
CC1E             0 10903 ; They will be added automatically if needed.
CC1E             0 10907 ; Simple error control routines
CC1E             0 10908 ; vim:ts=4:et:
CC1E             0 10910 ERR_NR    EQU    23610    ; Error code system variable
CC1E             0 10913 ; Error code definitions (as in ZX spectrum manual)
CC1E             0 10915 ; Set error code with:
CC1E             0 10916 ;    ld a, ERROR_CODE
CC1E             0 10917 ;    ld (ERR_NR), a
CC1E             0 10920 ERROR_Ok                EQU    -1
CC1E             0 10921 ERROR_SubscriptWrong    EQU     2
CC1E             0 10922 ERROR_OutOfMemory       EQU     3
CC1E             0 10923 ERROR_OutOfScreen       EQU     4
CC1E             0 10924 ERROR_NumberTooBig      EQU     5
CC1E             0 10925 ERROR_InvalidArg        EQU     9
CC1E             0 10926 ERROR_IntOutOfRange     EQU    10
CC1E             0 10927 ERROR_NonsenseInBasic   EQU    11
CC1E             0 10928 ERROR_InvalidFileName   EQU    14
CC1E             0 10929 ERROR_InvalidColour     EQU    19
CC1E             0 10930 ERROR_BreakIntoProgram  EQU    20
CC1E             0 10931 ERROR_TapeLoadingErr    EQU    26
CC1E             0 10934 ; Raises error using RST #8
CC1E             0 10935 __ERROR:
CC1E 32 22 CC    0 10936 ld (__ERROR_CODE), a
CC21 CF          0 10937 rst 8
CC22             0 10938 __ERROR_CODE:
CC22 00          0 10939 nop
CC23 C9          0 10940 ret
CC24             0 10942 ; Sets the error system variable, but keeps running.
CC24             0 10943 ; Usually this instruction if followed by the END intermediate instruction.
CC24             0 10944 __STOP:
CC24 32 3A 5C    0 10945 ld (ERR_NR), a
CC27 C9          0 10946 ret
CC28             0 10950 ; vim: ts=4:et:sw=4:
CC28             0 10951 ; Copyleft (K) by Jose M. Rodriguez de la Rosa
CC28             0 10952 ;  (a.k.a. Boriel)
CC28             0 10953 ;  http://www.boriel.com
CC28             0 10954 ;
CC28             0 10955 ; This ASM library is licensed under the BSD license
CC28             0 10956 ; you can use it for any purpose (even for commercial
CC28             0 10957 ; closed source programs).
CC28             0 10958 ;
CC28             0 10959 ; Please read the BSD license on the internet
CC28             0 10961 ; ----- IMPLEMENTATION NOTES ------
CC28             0 10962 ; The heap is implemented as a linked list of free blocks.
CC28             0 10964 ; Each free block contains this info:
CC28             0 10965 ;
CC28             0 10966 ; +----------------+ <-- HEAP START
CC28             0 10967 ; | Size (2 bytes) |
CC28             0 10968 ; |        0       | <-- Size = 0 => DUMMY HEADER BLOCK
CC28             0 10969 ; +----------------+
CC28             0 10970 ; | Next (2 bytes) |---+
CC28             0 10971 ; +----------------+ <-+
CC28             0 10972 ; | Size (2 bytes) |
CC28             0 10973 ; +----------------+
CC28             0 10974 ; | Next (2 bytes) |---+
CC28             0 10975 ; +----------------+   |
CC28             0 10976 ; | <free bytes...>|   | <-- If Size > 4, then this contains (size - 4) bytes
CC28             0 10977 ; | (0 if Size = 4)|   |
CC28             0 10978 ; +----------------+ <-+
CC28             0 10979 ; | Size (2 bytes) |
CC28             0 10980 ; +----------------+
CC28             0 10981 ; | Next (2 bytes) |---+
CC28             0 10982 ; +----------------+   |
CC28             0 10983 ; | <free bytes...>|   |
CC28             0 10984 ; | (0 if Size = 4)|   |
CC28             0 10985 ; +----------------+   |
CC28             0 10986 ;   <Allocated>        | <-- This zone is in use (Already allocated)
CC28             0 10987 ; +----------------+ <-+
CC28             0 10988 ; | Size (2 bytes) |
CC28             0 10989 ; +----------------+
CC28             0 10990 ; | Next (2 bytes) |---+
CC28             0 10991 ; +----------------+   |
CC28             0 10992 ; | <free bytes...>|   |
CC28             0 10993 ; | (0 if Size = 4)|   |
CC28             0 10994 ; +----------------+ <-+
CC28             0 10995 ; | Next (2 bytes) |--> NULL => END OF LIST
CC28             0 10996 ; |    0 = NULL    |
CC28             0 10997 ; +----------------+
CC28             0 10998 ; | <free bytes...>|
CC28             0 10999 ; | (0 if Size = 4)|
CC28             0 11000 ; +----------------+
CC28             0 11003 ; When a block is FREED, the previous and next pointers are examined to see
CC28             0 11004 ; if we can defragment the heap. If the block to be breed is just next to the
CC28             0 11005 ; previous, or to the next (or both) they will be converted into a single
CC28             0 11006 ; block (so defragmented).
CC28             0 11009 ;   MEMORY MANAGER
CC28             0 11010 ;
CC28             0 11011 ; This library must be initialized calling __MEM_INIT with
CC28             0 11012 ; HL = BLOCK Start & DE = Length.
CC28             0 11014 ; An init directive is useful for initialization routines.
CC28             0 11015 ; They will be added automatically if needed.
CC28             0 11020 ; ---------------------------------------------------------------------
CC28             0 11021 ;  __MEM_INIT must be called to initalize this library with the
CC28             0 11022 ; standard parameters
CC28             0 11023 ; ---------------------------------------------------------------------
CC28             0 11024 __MEM_INIT: ; Initializes the library using (RAMTOP) as start, and
CC28 21 FC FA    0 11025 ld hl, ZXBASIC_MEM_HEAP  ; Change this with other address of heap start
CC2B 11 80 00    0 11026 ld de, ZXBASIC_HEAP_SIZE ; Change this with your size
CC2E             0 11028 ; ---------------------------------------------------------------------
CC2E             0 11029 ;  __MEM_INIT2 initalizes this library
CC2E             0 11030 ; Parameters:
CC2E             0 11031 ;   HL : Memory address of 1st byte of the memory heap
CC2E             0 11032 ;   DE : Length in bytes of the Memory Heap
CC2E             0 11033 ; ---------------------------------------------------------------------
CC2E             0 11034 __MEM_INIT2:
CC2E             0 11035 ; HL as TOP
CC2E 1B          0 11038 dec de
CC2F 1B          0 11039 dec de
CC30 1B          0 11040 dec de
CC31 1B          0 11041 dec de        ; DE = length - 4; HL = start
CC32             0 11042 ; This is done, because we require 4 bytes for the empty dummy-header block
CC32 AF          0 11044 xor a
CC33 77          0 11045 ld (hl), a
CC34 23          0 11046 inc hl
CC35 77          0 11047 ld (hl), a ; First "free" block is a header: size=0, Pointer=&(Block) + 4
CC36 23          0 11048 inc hl
CC37 44          0 11050 ld b, h
CC38 4D          0 11051 ld c, l
CC39 03          0 11052 inc bc
CC3A 03          0 11053 inc bc      ; BC = starts of next block
CC3B 71          0 11055 ld (hl), c
CC3C 23          0 11056 inc hl
CC3D 70          0 11057 ld (hl), b
CC3E 23          0 11058 inc hl      ; Pointer to next block
CC3F 73          0 11060 ld (hl), e
CC40 23          0 11061 inc hl
CC41 72          0 11062 ld (hl), d
CC42 23          0 11063 inc hl      ; Block size (should be length - 4 at start); This block contains all the available memory
CC43 77          0 11065 ld (hl), a ; NULL (0000h) ; No more blocks (a list with a single block)
CC44 23          0 11066 inc hl
CC45 77          0 11067 ld (hl), a
CC46 3E C9       0 11069 ld a, 201
CC48 32 28 CC    0 11070 ld (__MEM_INIT), a; "Pokes" with a RET so ensure this routine is not called again
CC4B C9          0 11071 ret
CC4C             0 11078 ; ---------------------------------------------------------------------
CC4C             0 11079 ; MEM_ALLOC
CC4C             0 11080 ;  Allocates a block of memory in the heap.
CC4C             0 11081 ;
CC4C             0 11082 ; Parameters
CC4C             0 11083 ;  BC = Length of requested memory block
CC4C             0 11084 ;
CC4C             0 11085 ; Returns:
CC4C             0 11086 ;  HL = Pointer to the allocated block in memory. Returns 0 (NULL)
CC4C             0 11087 ;       if the block could not be allocated (out of memory)
CC4C             0 11088 ; ---------------------------------------------------------------------
CC4C             0 11090 MEM_ALLOC:
CC4C             0 11091 __MEM_ALLOC: ; Returns the 1st free block found of the given length (in BC)
CC4C             0 11100 TEMP EQU TEMP0 + 1
CC4C 21 00 00    0 11102 ld hl, 0
CC4F 22 88 CC    0 11103 ld (TEMP), hl
CC52             0 11105 __MEM_START:
CC52 21 FC FA    0 11106 ld hl, ZXBASIC_MEM_HEAP  ; This label point to the heap start
CC55 03          0 11107 inc bc
CC56 03          0 11108 inc bc  ; BC = BC + 2 ; block size needs 2 extra bytes for hidden pointer
CC57             0 11110 __MEM_LOOP:  ; Loads lengh at (HL, HL+). If Lenght >= BC, jump to __MEM_DONE
CC57 7C          0 11111 ld a, h ;  HL = NULL (No memory available?)
CC58 B5          0 11112 or l
CC59 C8          0 11114 ret z ; NULL
CC5A             0 11116 ; HL = Pointer to Free block
CC5A 5E          0 11117 ld e, (hl)
CC5B 23          0 11118 inc hl
CC5C 56          0 11119 ld d, (hl)
CC5D 23          0 11120 inc hl          ; DE = Block Length
CC5E E5          0 11122 push hl         ; HL = *pointer to -> next block
CC5F EB          0 11123 ex de, hl
CC60 B7          0 11124 or a            ; CF = 0
CC61 ED 42       0 11125 sbc hl, bc      ; FREE >= BC (Length)  (HL = BlockLength - Length)
CC63 D2 72 CC    0 11126 jp nc, __MEM_DONE
CC66 E1          0 11127 pop hl
CC67 22 88 CC    0 11128 ld (TEMP), hl
CC6A EB          0 11130 ex de, hl
CC6B 5E          0 11131 ld e, (hl)
CC6C 23          0 11132 inc hl
CC6D 56          0 11133 ld d, (hl)
CC6E EB          0 11134 ex de, hl
CC6F C3 57 CC    0 11135 jp __MEM_LOOP
CC72             0 11137 __MEM_DONE:  ; A free block has been found.
CC72             0 11138 ; Check if at least 4 bytes remains free (HL >= 4)
CC72 E5          0 11139 push hl
CC73 D9          0 11140 exx  ; exx to preserve bc
CC74 E1          0 11141 pop hl
CC75 01 04 00    0 11142 ld bc, 4
CC78 B7          0 11143 or a
CC79 ED 42       0 11144 sbc hl, bc
CC7B D9          0 11145 exx
CC7C D2 8F CC    0 11146 jp nc, __MEM_SUBTRACT
CC7F             0 11147 ; At this point...
CC7F             0 11148 ; less than 4 bytes remains free. So we return this block entirely
CC7F             0 11149 ; We must link the previous block with the next to this one
CC7F             0 11150 ; (DE) => Pointer to next block
CC7F             0 11151 ; (TEMP) => &(previous->next)
CC7F E1          0 11152 pop hl     ; Discard current block pointer
CC80 D5          0 11153 push de
CC81 EB          0 11154 ex de, hl  ; DE = Previous block pointer; (HL) = Next block pointer
CC82 7E          0 11155 ld a, (hl)
CC83 23          0 11156 inc hl
CC84 66          0 11157 ld h, (hl)
CC85 6F          0 11158 ld l, a    ; HL = (HL)
CC86 EB          0 11159 ex de, hl  ; HL = Previous block pointer; DE = Next block pointer
CC87             0 11160 TEMP0:
CC87 21 00 00    0 11161 ld hl, 0   ; Pre-previous block pointer
CC8A 73          0 11163 ld (hl), e
CC8B 23          0 11164 inc hl
CC8C 72          0 11165 ld (hl), d ; LINKED
CC8D E1          0 11166 pop hl ; Returning block.
CC8E C9          0 11168 ret
CC8F             0 11170 __MEM_SUBTRACT:
CC8F             0 11171 ; At this point we have to store HL value (Length - BC) into (DE - 2)
CC8F EB          0 11172 ex de, hl
CC90 2B          0 11173 dec hl
CC91 72          0 11174 ld (hl), d
CC92 2B          0 11175 dec hl
CC93 73          0 11176 ld (hl), e ; Store new block length
CC94 19          0 11178 add hl, de ; New length + DE => free-block start
CC95 D1          0 11179 pop de     ; Remove previous HL off the stack
CC96 71          0 11181 ld (hl), c ; Store length on its 1st word
CC97 23          0 11182 inc hl
CC98 70          0 11183 ld (hl), b
CC99 23          0 11184 inc hl     ; Return hl
CC9A C9          0 11185 ret
CC9B             0 11192 ; vim: ts=4:et:sw=4:
CC9B             0 11193 ; Copyleft (K) by Jose M. Rodriguez de la Rosa
CC9B             0 11194 ;  (a.k.a. Boriel)
CC9B             0 11195 ;  http://www.boriel.com
CC9B             0 11196 ; -------------------------------------------------------------------
CC9B             0 11197 ; Simple array Index routine
CC9B             0 11198 ; Number of total indexes dimensions - 1 at beginning of memory
CC9B             0 11199 ; HL = Start of array memory (First two bytes contains N-1 dimensions)
CC9B             0 11200 ; Dimension values on the stack, (top of the stack, highest dimension)
CC9B             0 11201 ; E.g. A(2, 4) -> PUSH <4>; PUSH <2>
CC9B             0 11203 ; For any array of N dimension A(aN-1, ..., a1, a0)
CC9B             0 11204 ; and dimensions D[bN-1, ..., b1, b0], the offset is calculated as
CC9B             0 11205 ; O = [a0 + b0 * (a1 + b1 * (a2 + ... bN-2(aN-1)))]
CC9B             0 11206 ; What I will do here is to calculate the following sequence:
CC9B             0 11207 ; ((aN-1 * bN-2) + aN-2) * bN-3 + ...
CC9B             0 11212 __MUL16:	; Mutiplies HL with the last value stored into de stack
CC9B             0 11213 ; Works for both signed and unsigned
CC9B EB          0 11220 ex de, hl
CC9C E1          0 11221 pop hl		; Return address
CC9D E3          0 11222 ex (sp), hl ; CALLEE caller convention
CC9E             0 11224 __MUL16_FAST:
CC9E 06 10       0 11225 ld b, 16
CCA0 7C          0 11226 ld a, h
CCA1 4D          0 11227 ld c, l
CCA2 21 00 00    0 11228 ld hl, 0
CCA5             0 11230 __MUL16LOOP:
CCA5 29          0 11231 add hl, hl  ; hl << 1
CCA6 CB 21       0 11232 sla c
CCA8 17          0 11233 rla         ; a,c << 1
CCA9 D2 AD CC    0 11234 jp nc, __MUL16NOADD
CCAC 19          0 11235 add hl, de
CCAD             0 11237 __MUL16NOADD:
CCAD 10 F6       0 11238 djnz __MUL16LOOP
CCAF C9          0 11240 ret	; Result in hl (16 lower bits)
CCB0             0 11248 __ARRAY_PTR:   ;; computes an array offset from a pointer
CCB0 4E          0 11249 ld c, (hl)
CCB1 23          0 11250 inc hl
CCB2 66          0 11251 ld h, (hl)
CCB3 69          0 11252 ld l, c
CCB4             0 11254 __ARRAY:
CCB4 5E          0 11262 ld e, (hl)
CCB5 23          0 11263 inc hl
CCB6 56          0 11264 ld d, (hl)
CCB7 23          0 11265 inc hl
CCB8 22 07 CD    0 11266 ld (TMP_ARR_PTR), hl
CCBB EB          0 11267 ex de, hl
CCBC E3          0 11268 ex (sp), hl	; Return address in HL, array address in the stack
CCBD 22 F3 CC    0 11269 ld (RET_ADDRESS + 1), hl ; Stores it for later
CCC0 D9          0 11271 exx
CCC1 E1          0 11272 pop hl		; Will use H'L' as the pointer
CCC2 4E          0 11273 ld c, (hl)	; Loads Number of dimensions from (hl)
CCC3 23          0 11274 inc hl
CCC4 46          0 11275 ld b, (hl)
CCC5 23          0 11276 inc hl		; Ready
CCC6 D9          0 11277 exx
CCC7 21 00 00    0 11279 ld hl, 0	; HL = Offset "accumulator"
CCCA             0 11281 LOOP:
CCCA C1          0 11283 pop bc		; Get next index (Ai) from the stack
CCCB 09          0 11287 add hl, bc	; Adds current index
CCCC D9          0 11289 exx			; Checks if B'C' = 0
CCCD 78          0 11290 ld a, b		; Which means we must exit (last element is not multiplied by anything)
CCCE B1          0 11291 or c
CCCF 28 0E       0 11292 jr z, ARRAY_END		; if B'Ci == 0 we are done
CCD1 5E          0 11294 ld e, (hl)			; Loads next dimension into D'E'
CCD2 23          0 11295 inc hl
CCD3 56          0 11296 ld d, (hl)
CCD4 23          0 11297 inc hl
CCD5 D5          0 11298 push de
CCD6 0B          0 11299 dec bc				; Decrements loop counter
CCD7 D9          0 11300 exx
CCD8 D1          0 11301 pop de				; DE = Max bound Number (i-th dimension)
CCD9 CD F5 CC    0 11303 call __FNMUL
CCDC C3 CA CC    0 11304 jp LOOP
CCDF             0 11306 ARRAY_END:
CCDF 7E          0 11307 ld a, (hl)
CCE0 D9          0 11308 exx
CCE1 EB          0 11313 ex de, hl
CCE2 21 00 00    0 11314 ld hl, 0
CCE5 47          0 11315 ld b, a
CCE6             0 11316 ARRAY_SIZE_LOOP:
CCE6 19          0 11317 add hl, de
CCE7 10 FD       0 11318 djnz ARRAY_SIZE_LOOP
CCE9 EB          0 11322 ex de, hl
CCEA 2A 07 CD    0 11323 ld hl, (TMP_ARR_PTR)
CCED 7E          0 11324 ld a, (hl)
CCEE 23          0 11325 inc hl
CCEF 66          0 11326 ld h, (hl)
CCF0 6F          0 11327 ld l, a
CCF1 19          0 11328 add hl, de  ; Adds element start
CCF2             0 11330 RET_ADDRESS:
CCF2 C3 00 00    0 11331 jp 0
CCF5             0 11333 ;; Performs a faster multiply for little 16bit numbs
CCF5             0 11336 __FNMUL:
CCF5 AF          0 11337 xor a
CCF6 B4          0 11338 or h
CCF7 C2 9E CC    0 11339 jp nz, __MUL16_FAST
CCFA B5          0 11340 or l
CCFB C8          0 11341 ret z
CCFC FE 21       0 11343 cp 33
CCFE D2 9E CC    0 11344 jp nc, __MUL16_FAST
CD01 45          0 11346 ld b, l
CD02 6C          0 11347 ld l, h  ; HL = 0
CD03             0 11349 __FNMUL2:
CD03 19          0 11350 add hl, de
CD04 10 FD       0 11351 djnz __FNMUL2
CD06 C9          0 11352 ret
CD07             0 11354 TMP_ARR_PTR:
CD07 00 00       0 11355 DW 0  ; temporary storage for pointer to tables
CD09             0 11365 ; vim: ts=4:et:sw=4:
CD09             0 11366 ; Copyleft (K) by Jose M. Rodriguez de la Rosa
CD09             0 11367 ;  (a.k.a. Boriel)
CD09             0 11368 ;  http://www.boriel.com
CD09             0 11369 ;
CD09             0 11370 ; This ASM library is licensed under the MIT license
CD09             0 11371 ; you can use it for any purpose (even for commercial
CD09             0 11372 ; closed source programs).
CD09             0 11373 ;
CD09             0 11374 ; Please read the MIT license on the internet
CD09             0 11379 ; ---------------------------------------------------------------------
CD09             0 11380 ; MEM_CALLOC
CD09             0 11381 ;  Allocates a block of memory in the heap, and clears it filling it
CD09             0 11382 ;  with 0 bytes
CD09             0 11383 ;
CD09             0 11384 ; Parameters
CD09             0 11385 ;  BC = Length of requested memory block
CD09             0 11386 ;
CD09             0 11387 ; Returns:
CD09             0 11388 ;  HL = Pointer to the allocated block in memory. Returns 0 (NULL)
CD09             0 11389 ;       if the block could not be allocated (out of memory)
CD09             0 11390 ; ---------------------------------------------------------------------
CD09             0 11391 __MEM_CALLOC:
CD09 C5          0 11392 push bc
CD0A CD 4C CC    0 11393 call __MEM_ALLOC
CD0D C1          0 11394 pop bc
CD0E 7C          0 11395 ld a, h
CD0F B5          0 11396 or l
CD10 C8          0 11397 ret z  ; No memory
CD11 36 00       0 11398 ld (hl), 0
CD13 0B          0 11399 dec bc
CD14 78          0 11400 ld a, b
CD15 B1          0 11401 or c
CD16 C8          0 11402 ret z  ; Already filled (1 byte-length block)
CD17 54          0 11403 ld d, h
CD18 5D          0 11404 ld e, l
CD19 13          0 11405 inc de
CD1A E5          0 11406 push hl
CD1B ED B0       0 11407 ldir
CD1D E1          0 11408 pop hl
CD1E C9          0 11409 ret
CD1F             0 11413 ; ---------------------------------------------------------------------
CD1F             0 11414 ; __ALLOC_LOCAL_ARRAY
CD1F             0 11415 ;  Allocates an array element area in the heap, and clears it filling it
CD1F             0 11416 ;  with 0 bytes
CD1F             0 11417 ;
CD1F             0 11418 ; Parameters
CD1F             0 11419 ;  HL = Offset to be added to IX => HL = IX + HL
CD1F             0 11420 ;  BC = Length of the element area = n.elements * size(element)
CD1F             0 11421 ;  DE = PTR to the index table
CD1F             0 11422 ;
CD1F             0 11423 ; Returns:
CD1F             0 11424 ;  HL = (IX + HL) + 4
CD1F             0 11425 ; ---------------------------------------------------------------------
CD1F             0 11427 __ALLOC_LOCAL_ARRAY:
CD1F D5          0 11428 push de
CD20 DD E5       0 11429 push ix
CD22 D1          0 11430 pop de
CD23 19          0 11431 add hl, de  ; hl = ix + hl
CD24 D1          0 11432 pop de
CD25 73          0 11433 ld (hl), e
CD26 23          0 11434 inc hl
CD27 72          0 11435 ld (hl), d
CD28 23          0 11436 inc hl
CD29 E5          0 11437 push hl
CD2A CD 09 CD    0 11438 call __MEM_CALLOC
CD2D D1          0 11439 pop de
CD2E EB          0 11440 ex de, hl
CD2F 73          0 11441 ld (hl), e
CD30 23          0 11442 inc hl
CD31 72          0 11443 ld (hl), d
CD32 C9          0 11444 ret
CD33             0 11447 ; ---------------------------------------------------------------------
CD33             0 11448 ; __ALLOC_INITIALIZED_LOCAL_ARRAY
CD33             0 11449 ;  Allocates an array element area in the heap, and clears it filling it
CD33             0 11450 ;  with 0 bytes
CD33             0 11451 ;
CD33             0 11452 ; Parameters
CD33             0 11453 ;  HL = Offset to be added to IX => HL = IX + HL
CD33             0 11454 ;  BC = Length of the element area = n.elements * size(element)
CD33             0 11455 ;  DE = PTR to the index table
CD33             0 11456 ;  TOP of the stack = PTR to the element area
CD33             0 11457 ; Returns:
CD33             0 11458 ;  Nothing
CD33             0 11459 ; ---------------------------------------------------------------------
CD33             0 11461 __ALLOC_INITIALIZED_LOCAL_ARRAY:
CD33 C5          0 11462 push bc
CD34 CD 1F CD    0 11463 call __ALLOC_LOCAL_ARRAY
CD37 C1          0 11464 pop bc
CD38 E1          0 11465 pop hl
CD39 E3          0 11466 ex (sp), hl
CD3A             0 11467 ; HL = data table
CD3A             0 11468 ; BC = length
CD3A             0 11469 ; DE = new data area
CD3A ED B0       0 11470 ldir
CD3C C9          0 11471 ret
CD3D             0 11475 ; Returns the ascii code for the given str
CD3D             0 11478 ; vim: ts=4:et:sw=4:
CD3D             0 11479 ; Copyleft (K) by Jose M. Rodriguez de la Rosa
CD3D             0 11480 ;  (a.k.a. Boriel)
CD3D             0 11481 ;  http://www.boriel.com
CD3D             0 11482 ;
CD3D             0 11483 ; This ASM library is licensed under the BSD license
CD3D             0 11484 ; you can use it for any purpose (even for commercial
CD3D             0 11485 ; closed source programs).
CD3D             0 11486 ;
CD3D             0 11487 ; Please read the BSD license on the internet
CD3D             0 11489 ; ----- IMPLEMENTATION NOTES ------
CD3D             0 11490 ; The heap is implemented as a linked list of free blocks.
CD3D             0 11492 ; Each free block contains this info:
CD3D             0 11493 ;
CD3D             0 11494 ; +----------------+ <-- HEAP START
CD3D             0 11495 ; | Size (2 bytes) |
CD3D             0 11496 ; |        0       | <-- Size = 0 => DUMMY HEADER BLOCK
CD3D             0 11497 ; +----------------+
CD3D             0 11498 ; | Next (2 bytes) |---+
CD3D             0 11499 ; +----------------+ <-+
CD3D             0 11500 ; | Size (2 bytes) |
CD3D             0 11501 ; +----------------+
CD3D             0 11502 ; | Next (2 bytes) |---+
CD3D             0 11503 ; +----------------+   |
CD3D             0 11504 ; | <free bytes...>|   | <-- If Size > 4, then this contains (size - 4) bytes
CD3D             0 11505 ; | (0 if Size = 4)|   |
CD3D             0 11506 ; +----------------+ <-+
CD3D             0 11507 ; | Size (2 bytes) |
CD3D             0 11508 ; +----------------+
CD3D             0 11509 ; | Next (2 bytes) |---+
CD3D             0 11510 ; +----------------+   |
CD3D             0 11511 ; | <free bytes...>|   |
CD3D             0 11512 ; | (0 if Size = 4)|   |
CD3D             0 11513 ; +----------------+   |
CD3D             0 11514 ;   <Allocated>        | <-- This zone is in use (Already allocated)
CD3D             0 11515 ; +----------------+ <-+
CD3D             0 11516 ; | Size (2 bytes) |
CD3D             0 11517 ; +----------------+
CD3D             0 11518 ; | Next (2 bytes) |---+
CD3D             0 11519 ; +----------------+   |
CD3D             0 11520 ; | <free bytes...>|   |
CD3D             0 11521 ; | (0 if Size = 4)|   |
CD3D             0 11522 ; +----------------+ <-+
CD3D             0 11523 ; | Next (2 bytes) |--> NULL => END OF LIST
CD3D             0 11524 ; |    0 = NULL    |
CD3D             0 11525 ; +----------------+
CD3D             0 11526 ; | <free bytes...>|
CD3D             0 11527 ; | (0 if Size = 4)|
CD3D             0 11528 ; +----------------+
CD3D             0 11531 ; When a block is FREED, the previous and next pointers are examined to see
CD3D             0 11532 ; if we can defragment the heap. If the block to be breed is just next to the
CD3D             0 11533 ; previous, or to the next (or both) they will be converted into a single
CD3D             0 11534 ; block (so defragmented).
CD3D             0 11537 ;   MEMORY MANAGER
CD3D             0 11538 ;
CD3D             0 11539 ; This library must be initialized calling __MEM_INIT with
CD3D             0 11540 ; HL = BLOCK Start & DE = Length.
CD3D             0 11542 ; An init directive is useful for initialization routines.
CD3D             0 11543 ; They will be added automatically if needed.
CD3D             0 11547 ; ---------------------------------------------------------------------
CD3D             0 11548 ; MEM_FREE
CD3D             0 11549 ;  Frees a block of memory
CD3D             0 11550 ;
CD3D             0 11551 ; Parameters:
CD3D             0 11552 ;  HL = Pointer to the block to be freed. If HL is NULL (0) nothing
CD3D             0 11553 ;  is done
CD3D             0 11554 ; ---------------------------------------------------------------------
CD3D             0 11556 MEM_FREE:
CD3D             0 11557 __MEM_FREE: ; Frees the block pointed by HL
CD3D             0 11558 ; HL DE BC & AF modified
CD3D 7C          0 11566 ld a, h
CD3E B5          0 11567 or l
CD3F C8          0 11568 ret z       ; Return if NULL pointer
CD40 2B          0 11570 dec hl
CD41 2B          0 11571 dec hl
CD42 44          0 11572 ld b, h
CD43 4D          0 11573 ld c, l    ; BC = Block pointer
CD44 21 FC FA    0 11575 ld hl, ZXBASIC_MEM_HEAP  ; This label point to the heap start
CD47             0 11577 __MEM_LOOP2:
CD47 23          0 11578 inc hl
CD48 23          0 11579 inc hl     ; Next block ptr
CD49 5E          0 11581 ld e, (hl)
CD4A 23          0 11582 inc hl
CD4B 56          0 11583 ld d, (hl) ; Block next ptr
CD4C EB          0 11584 ex de, hl  ; DE = &(block->next); HL = block->next
CD4D 7C          0 11586 ld a, h    ; HL == NULL?
CD4E B5          0 11587 or l
CD4F CA 59 CD    0 11588 jp z, __MEM_LINK_PREV; if so, link with previous
CD52 B7          0 11590 or a       ; Clear carry flag
CD53 ED 42       0 11591 sbc hl, bc ; Carry if BC > HL => This block if before
CD55 09          0 11592 add hl, bc ; Restores HL, preserving Carry flag
CD56 DA 47 CD    0 11593 jp c, __MEM_LOOP2 ; This block is before. Keep searching PASS the block
CD59             0 11595 ;------ At this point current HL is PAST BC, so we must link (DE) with BC, and HL in BC->next
CD59             0 11597 __MEM_LINK_PREV:    ; Link (DE) with BC, and BC->next with HL
CD59 EB          0 11598 ex de, hl
CD5A E5          0 11599 push hl
CD5B 2B          0 11600 dec hl
CD5C 71          0 11602 ld (hl), c
CD5D 23          0 11603 inc hl
CD5E 70          0 11604 ld (hl), b ; (DE) <- BC
CD5F 60          0 11606 ld h, b    ; HL <- BC (Free block ptr)
CD60 69          0 11607 ld l, c
CD61 23          0 11608 inc hl     ; Skip block length (2 bytes)
CD62 23          0 11609 inc hl
CD63 73          0 11610 ld (hl), e ; Block->next = DE
CD64 23          0 11611 inc hl
CD65 72          0 11612 ld (hl), d
CD66             0 11613 ; --- LINKED ; HL = &(BC->next) + 2
CD66 CD 6A CD    0 11615 call __MEM_JOIN_TEST
CD69 E1          0 11616 pop hl
CD6A             0 11618 __MEM_JOIN_TEST:   ; Checks for fragmented contiguous blocks and joins them
CD6A             0 11619 ; hl = Ptr to current block + 2
CD6A 56          0 11620 ld d, (hl)
CD6B 2B          0 11621 dec hl
CD6C 5E          0 11622 ld e, (hl)
CD6D 2B          0 11623 dec hl
CD6E 46          0 11624 ld b, (hl) ; Loads block length into BC
CD6F 2B          0 11625 dec hl
CD70 4E          0 11626 ld c, (hl) ;
CD71 E5          0 11628 push hl    ; Saves it for later
CD72 09          0 11629 add hl, bc ; Adds its length. If HL == DE now, it must be joined
CD73 B7          0 11630 or a
CD74 ED 52       0 11631 sbc hl, de ; If Z, then HL == DE => We must join
CD76 E1          0 11632 pop hl
CD77 C0          0 11633 ret nz
CD78             0 11635 __MEM_BLOCK_JOIN:  ; Joins current block (pointed by HL) with next one (pointed by DE). HL->length already in BC
CD78 E5          0 11636 push hl    ; Saves it for later
CD79 EB          0 11637 ex de, hl
CD7A 5E          0 11639 ld e, (hl) ; DE -> block->next->length
CD7B 23          0 11640 inc hl
CD7C 56          0 11641 ld d, (hl)
CD7D 23          0 11642 inc hl
CD7E EB          0 11644 ex de, hl  ; DE = &(block->next)
CD7F 09          0 11645 add hl, bc ; HL = Total Length
CD80 44          0 11647 ld b, h
CD81 4D          0 11648 ld c, l    ; BC = Total Length
CD82 EB          0 11650 ex de, hl
CD83 5E          0 11651 ld e, (hl)
CD84 23          0 11652 inc hl
CD85 56          0 11653 ld d, (hl) ; DE = block->next
CD86 E1          0 11655 pop hl     ; Recovers Pointer to block
CD87 71          0 11656 ld (hl), c
CD88 23          0 11657 inc hl
CD89 70          0 11658 ld (hl), b ; Length Saved
CD8A 23          0 11659 inc hl
CD8B 73          0 11660 ld (hl), e
CD8C 23          0 11661 inc hl
CD8D 72          0 11662 ld (hl), d ; Next saved
CD8E C9          0 11663 ret
CD8F             0 11669 __ASC:
CD8F 08          0 11673 ex af, af'	; Saves free_mem flag
CD90 7C          0 11675 ld a, h
CD91 B5          0 11676 or l
CD92 C8          0 11677 ret z		; NULL? return
CD93 4E          0 11679 ld c, (hl)
CD94 23          0 11680 inc hl
CD95 46          0 11681 ld b, (hl)
CD96 78          0 11683 ld a, b
CD97 B1          0 11684 or c
CD98 28 03       0 11685 jr z, __ASC_END		; No length? return
CD9A 23          0 11687 inc hl
CD9B 7E          0 11688 ld a, (hl)
CD9C 2B          0 11689 dec hl
CD9D             0 11691 __ASC_END:
CD9D 2B          0 11692 dec hl
CD9E 08          0 11693 ex af, af'
CD9F B7          0 11694 or a
CDA0 C4 3D CD    0 11695 call nz, __MEM_FREE	; Free memory if needed
CDA3 08          0 11697 ex af, af'	; Recover result
CDA4 C9          0 11699 ret
CDA5             0 11704 ; Attribute routines
CDA5             0 11705 ; vim:ts=4:et:sw:
CDA5             0 11709 ; Printing positioning library.
CDA5             0 11713 __LOAD_S_POSN:		; Loads into DE current ROW, COL print position from S_POSN mem var.
CDA5 ED 5B 88 5C 0 11714 ld de, (S_POSN)
CDA9 2A 82 5C    0 11715 ld hl, (MAXX)
CDAC B7          0 11716 or a
CDAD ED 52       0 11717 sbc hl, de
CDAF EB          0 11718 ex de, hl
CDB0 C9          0 11719 ret
CDB1             0 11722 __SAVE_S_POSN:		; Saves ROW, COL from DE into S_POSN mem var.
CDB1 2A 82 5C    0 11723 ld hl, (MAXX)
CDB4 B7          0 11724 or a
CDB5 ED 52       0 11725 sbc hl, de
CDB7 22 88 5C    0 11726 ld (S_POSN), hl ; saves it again
CDBA C9          0 11727 ret
CDBB             0 11730 ECHO_E	EQU 23682
CDBB             0 11731 MAXX	EQU ECHO_E   ; Max X position + 1
CDBB             0 11732 MAXY	EQU MAXX + 1 ; Max Y position + 1
CDBB             0 11734 S_POSN	EQU 23688
CDBB             0 11735 POSX	EQU S_POSN		; Current POS X
CDBB             0 11736 POSY	EQU S_POSN + 1	; Current POS Y
CDBB             0 11747 __IN_SCREEN:
CDBB             0 11748 ; Returns NO carry if current coords (D, E)
CDBB             0 11749 ; are OUT of the screen limits (MAXX, MAXY)
CDBB 21 82 5C    0 11754 ld hl, MAXX
CDBE 7B          0 11755 ld a, e
CDBF BE          0 11756 cp (hl)
CDC0 30 04       0 11757 jr nc, __IN_SCREEN_ERR	; Do nothing and return if out of range
CDC2 7A          0 11759 ld a, d
CDC3 23          0 11760 inc hl
CDC4 BE          0 11761 cp (hl)
CDC5             0 11762 ;; jr nc, __IN_SCREEN_ERR	; Do nothing and return if out of range
CDC5             0 11763 ;; ret
CDC5 D8          0 11764 ret c                       ; Return if carry (OK)
CDC6             0 11766 __IN_SCREEN_ERR:
CDC6             0 11767 __OUT_OF_SCREEN_ERR:
CDC6             0 11768 ; Jumps here if out of screen
CDC6 3E 04       0 11769 ld a, ERROR_OutOfScreen
CDC8 C3 24 CC    0 11770 jp __STOP   ; Saves error code and exits
CDCB             0 11776 ; Global constants
CDCB             0 11778 P_FLAG	EQU 23697
CDCB             0 11779 FLAGS2	EQU 23681
CDCB             0 11780 ATTR_P	EQU 23693	; permanet ATTRIBUTES
CDCB             0 11781 ATTR_T	EQU 23695	; temporary ATTRIBUTES
CDCB             0 11782 CHARS	EQU 23606 ; Pointer to ROM/RAM Charset
CDCB             0 11783 UDG	EQU 23675 ; Pointer to UDG Charset
CDCB             0 11784 MEM0	EQU 5C92h ; Temporary memory buffer used by ROM chars
CDCB             0 11789 ; JUMPS directly to spectrum CLS
CDCB             0 11790 ; This routine does not clear lower screen
CDCB             0 11792 ;CLS	EQU	0DAFh
CDCB             0 11794 ; Our faster implementation
CDCB             0 11798 CLS:
CDCB 21 00 00    0 11806 ld hl, 0
CDCE 22 7D 5C    0 11807 ld (COORDS), hl
CDD1 21 21 18    0 11808 ld hl, 1821h
CDD4 22 88 5C    0 11809 ld (S_POSN), hl
CDD7             0 11810 __CLS_SCR:
CDD7 21 00 40    0 11811 ld hl, SCREEN
CDDA 36 00       0 11812 ld (hl), 0
CDDC 54          0 11813 ld d, h
CDDD 5D          0 11814 ld e, l
CDDE 13          0 11815 inc de
CDDF 01 00 18    0 11816 ld bc, 6144
CDE2 ED B0       0 11817 ldir
CDE4             0 11819 ; Now clear attributes
CDE4 3A 8D 5C    0 11821 ld a, (ATTR_P)
CDE7 77          0 11822 ld (hl), a
CDE8 01 FF 02    0 11823 ld bc, 767
CDEB ED B0       0 11824 ldir
CDED C9          0 11825 ret
CDEE             0 11827 COORDS	EQU	23677
CDEE             0 11828 SCREEN	EQU 16384 ; Default start of the screen (can be changed)
CDEE             0 11829 ATTR_P	EQU 23693
CDEE             0 11830 ;you can poke (SCREEN_SCRADDR) to change CLS, DRAW & PRINTing address
CDEE             0 11832 SCREEN_ADDR EQU (__CLS_SCR + 1) ; Address used by print and other screen routines
CDEE             0 11833 ; to get the start of the screen
CDEE             0 11838 __ATTR_ADDR:
CDEE             0 11839 ; calc start address in DE (as (32 * d) + e)
CDEE             0 11840 ; Contributed by Santiago Romero at http://www.speccy.org
CDEE 26 00       0 11841 ld h, 0                     ;  7 T-States
CDF0 7A          0 11842 ld a, d                     ;  4 T-States
CDF1 87          0 11843 add a, a     ; a * 2        ;  4 T-States
CDF2 87          0 11844 add a, a     ; a * 4        ;  4 T-States
CDF3 6F          0 11845 ld l, a      ; HL = A * 4   ;  4 T-States
CDF4 29          0 11847 add hl, hl   ; HL = A * 8   ; 15 T-States
CDF5 29          0 11848 add hl, hl   ; HL = A * 16  ; 15 T-States
CDF6 29          0 11849 add hl, hl   ; HL = A * 32  ; 15 T-States
CDF7 16 18       0 11851 ld d, 18h ; DE = 6144 + E. Note: 6144 is the screen size (before attr zone)
CDF9 19          0 11852 add hl, de
CDFA ED 5B D8 CD 0 11854 ld de, (SCREEN_ADDR)    ; Adds the screen address
CDFE 19          0 11855 add hl, de
CDFF             0 11857 ; Return current screen address in HL
CDFF C9          0 11858 ret
CE00             0 11861 ; Sets the attribute at a given screen coordinate (D, E).
CE00             0 11862 ; The attribute is taken from the ATTR_T memory variable
CE00             0 11863 ; Used by PRINT routines
CE00             0 11864 SET_ATTR:
CE00             0 11866 ; Checks for valid coords
CE00 CD BB CD    0 11867 call __IN_SCREEN
CE03 D0          0 11868 ret nc
CE04             0 11870 __SET_ATTR:
CE04             0 11871 ; Internal __FASTCALL__ Entry used by printing routines
CE04 CD EE CD    0 11874 call __ATTR_ADDR
CE07             0 11876 __SET_ATTR2:  ; Sets attr from ATTR_T to (HL) which points to the scr address
CE07 ED 5B 8F 5C 0 11877 ld de, (ATTR_T)    ; E = ATTR_T, D = MASK_T
CE0B 7A          0 11879 ld a, d
CE0C A6          0 11880 and (hl)
CE0D 4F          0 11881 ld c, a    ; C = current screen color, masked
CE0E 7A          0 11883 ld a, d
CE0F 2F          0 11884 cpl        ; Negate mask
CE10 A3          0 11885 and e    ; Mask current attributes
CE11 B1          0 11886 or c    ; Mix them
CE12 77          0 11887 ld (hl), a ; Store result in screen
CE13 C9          0 11889 ret
CE14             0 11894 ; Sets the attribute at a given screen pixel address in hl
CE14             0 11895 ; HL contains the address in RAM for a given pixel (not a coordinate)
CE14             0 11896 SET_PIXEL_ADDR_ATTR:
CE14             0 11897 ;; gets ATTR position with offset given in SCREEN_ADDR
CE14 7C          0 11898 ld a, h
CE15 0F          0 11899 rrca
CE16 0F          0 11900 rrca
CE17 0F          0 11901 rrca
CE18 E6 03       0 11902 and 3
CE1A F6 18       0 11903 or 18h
CE1C 67          0 11904 ld h, a
CE1D ED 5B D8 CD 0 11905 ld de, (SCREEN_ADDR)
CE21 19          0 11906 add hl, de  ;; Final screen addr
CE22 C3 07 CE    0 11907 jp __SET_ATTR2
CE25             0 11911 ; vim:ts=4:et:
CE25             0 11912 ; FASTCALL bitwise and16 version.
CE25             0 11913 ; result in hl
CE25             0 11914 ; __FASTCALL__ version (operands: A, H)
CE25             0 11915 ; Performs 16bit or 16bit and returns the boolean
CE25             0 11916 ; Input: HL, DE
CE25             0 11917 ; Output: HL <- HL AND DE
CE25             0 11919 __BAND16:
CE25 7C          0 11920 ld a, h
CE26 A2          0 11921 and d
CE27 67          0 11922 ld h, a
CE28 7D          0 11924 ld a, l
CE29 A3          0 11925 and e
CE2A 6F          0 11926 ld l, a
CE2B C9          0 11928 ret
CE2C             0 11933 ; __FASTCALL__ Routine to change de border
CE2C             0 11934 ; Parameter (color) specified in A register
CE2C             0 11936 BORDER EQU 229Bh
CE2C             0 11938 ; Nothing to do! (Directly from the ZX Spectrum ROM)
CE2C             0 11944 ; CHR$(x, y, x) returns the string CHR$(x) + CHR$(y) + CHR$(z)
CE2C             0 11945 ;
CE2C             0 11949 CHR:	; Returns HL = Pointer to STRING (NULL if no memory)
CE2C             0 11950 ; Requires alloc.asm for dynamic memory heap.
CE2C             0 11951 ; Parameters: HL = Number of bytes to insert (already push onto the stack)
CE2C             0 11952 ; STACK => parameters (16 bit, only the High byte is considered)
CE2C             0 11953 ; Used registers A, A', BC, DE, HL, H'L'
CE2C             0 11960 TMP		EQU 23629 ; (DEST System variable)
CE2C 7C          0 11962 ld a, h
CE2D B5          0 11963 or l
CE2E C8          0 11964 ret z	; If Number of parameters is ZERO, return NULL STRING
CE2F 44          0 11966 ld b, h
CE30 4D          0 11967 ld c, l
CE31 E1          0 11969 pop hl	; Return address
CE32 22 4D 5C    0 11970 ld (TMP), hl
CE35 C5          0 11972 push bc
CE36 03          0 11973 inc bc
CE37 03          0 11974 inc bc	; BC = BC + 2 => (2 bytes for the length number)
CE38 CD 4C CC    0 11975 call __MEM_ALLOC
CE3B C1          0 11976 pop bc
CE3C 54          0 11978 ld d, h
CE3D 5D          0 11979 ld e, l			; Saves HL in DE
CE3E 7C          0 11981 ld a, h
CE3F B5          0 11982 or l
CE40 28 04       0 11983 jr z, __POPOUT	; No Memory, return
CE42 71          0 11985 ld (hl), c
CE43 23          0 11986 inc hl
CE44 70          0 11987 ld (hl), b
CE45 23          0 11988 inc hl
CE46             0 11990 __POPOUT:	; Removes out of the stack every byte and return
CE46             0 11991 ; If Zero Flag is set, don't store bytes in memory
CE46 08          0 11992 ex af, af' ; Save Zero Flag
CE47 78          0 11994 ld a, b
CE48 B1          0 11995 or c
CE49 28 0C       0 11996 jr z, __CHR_END
CE4B 0B          0 11998 dec bc
CE4C F1          0 11999 pop af 	   ; Next byte
CE4D 08          0 12001 ex af, af' ; Recovers Zero flag
CE4E 28 F6       0 12002 jr z, __POPOUT
CE50 08          0 12004 ex af, af' ; Saves Zero flag
CE51 77          0 12005 ld (hl), a
CE52 23          0 12006 inc hl
CE53 08          0 12007 ex af, af' ; Recovers Zero Flag
CE54 C3 46 CE    0 12009 jp __POPOUT
CE57             0 12011 __CHR_END:
CE57 2A 4D 5C    0 12012 ld hl, (TMP)
CE5A E5          0 12013 push hl		; Restores return addr
CE5B EB          0 12014 ex de, hl	; Recovers original HL ptr
CE5C C9          0 12015 ret
CE5D             0 12025 ; vim:ts=4:sw=4:et:
CE5D             0 12026 ; PRINT command routine
CE5D             0 12027 ; Does not print attribute. Use PRINT_STR or PRINT_NUM for that
CE5D             0 12035 JUMP_HL_PLUS_2A: ; Does JP (HL + A*2) Modifies DE. Modifies A
CE5D 87          0 12036 add a, a
CE5E             0 12038 JUMP_HL_PLUS_A:	 ; Does JP (HL + A) Modifies DE
CE5E 5F          0 12039 ld e, a
CE5F 16 00       0 12040 ld d, 0
CE61             0 12042 JUMP_HL_PLUS_DE: ; Does JP (HL + DE)
CE61 19          0 12043 add hl, de
CE62 5E          0 12044 ld e, (hl)
CE63 23          0 12045 inc hl
CE64 56          0 12046 ld d, (hl)
CE65 EB          0 12047 ex de, hl
CE66             0 12048 CALL_HL:
CE66 E9          0 12049 jp (hl)
CE67             0 12054 ; Sets ink color in ATTR_P permanently
CE67             0 12055 ; Parameter: Paper color in A register
CE67             0 12059 INK:
CE67 11 8D 5C    0 12064 ld de, ATTR_P
CE6A             0 12066 __SET_INK:
CE6A FE 08       0 12067 cp 8
CE6C 20 06       0 12068 jr nz, __SET_INK2
CE6E 13          0 12070 inc de ; Points DE to MASK_T or MASK_P
CE6F 1A          0 12071 ld a, (de)
CE70 F6 07       0 12072 or 7 ; Set bits 0,1,2 to enable transparency
CE72 12          0 12073 ld (de), a
CE73 C9          0 12074 ret
CE74             0 12076 __SET_INK2:
CE74             0 12077 ; Another entry. This will set the ink color at location pointer by DE
CE74 E6 07       0 12078 and 7	; # Gets color mod 8
CE76 47          0 12079 ld b, a	; Saves the color
CE77 1A          0 12080 ld a, (de)
CE78 E6 F8       0 12081 and 0F8h ; Clears previous value
CE7A B0          0 12082 or b
CE7B 12          0 12083 ld (de), a
CE7C 13          0 12084 inc de ; Points DE to MASK_T or MASK_P
CE7D 1A          0 12085 ld a, (de)
CE7E E6 F8       0 12086 and 0F8h ; Reset bits 0,1,2 sign to disable transparency
CE80 12          0 12087 ld (de), a ; Store new attr
CE81 C9          0 12088 ret
CE82             0 12090 ; Sets the INK color passed in A register in the ATTR_T variable
CE82             0 12091 INK_TMP:
CE82 11 8F 5C    0 12092 ld de, ATTR_T
CE85 C3 6A CE    0 12093 jp __SET_INK
CE88             0 12100 ; Sets paper color in ATTR_P permanently
CE88             0 12101 ; Parameter: Paper color in A register
CE88             0 12105 PAPER:
CE88 11 8D 5C    0 12110 ld de, ATTR_P
CE8B             0 12112 __SET_PAPER:
CE8B FE 08       0 12113 cp 8
CE8D 20 06       0 12114 jr nz, __SET_PAPER2
CE8F 13          0 12115 inc de
CE90 1A          0 12116 ld a, (de)
CE91 F6 38       0 12117 or 038h
CE93 12          0 12118 ld (de), a
CE94 C9          0 12119 ret
CE95             0 12121 ; Another entry. This will set the paper color at location pointer by DE
CE95             0 12122 __SET_PAPER2:
CE95 E6 07       0 12123 and 7	; # Remove
CE97 07          0 12124 rlca
CE98 07          0 12125 rlca
CE99 07          0 12126 rlca		; a *= 8
CE9A 47          0 12128 ld b, a	; Saves the color
CE9B 1A          0 12129 ld a, (de)
CE9C E6 C7       0 12130 and 0C7h ; Clears previous value
CE9E B0          0 12131 or b
CE9F 12          0 12132 ld (de), a
CEA0 13          0 12133 inc de ; Points to MASK_T or MASK_P accordingly
CEA1 1A          0 12134 ld a, (de)
CEA2 E6 C7       0 12135 and 0C7h  ; Resets bits 3,4,5
CEA4 12          0 12136 ld (de), a
CEA5 C9          0 12137 ret
CEA6             0 12140 ; Sets the PAPER color passed in A register in the ATTR_T variable
CEA6             0 12141 PAPER_TMP:
CEA6 11 8F 5C    0 12142 ld de, ATTR_T
CEA9 C3 8B CE    0 12143 jp __SET_PAPER
CEAC             0 12149 ; Sets flash flag in ATTR_P permanently
CEAC             0 12150 ; Parameter: Paper color in A register
CEAC             0 12154 FLASH:
CEAC 21 8D 5C    0 12155 ld hl, ATTR_P
CEAF             0 12161 __SET_FLASH:
CEAF             0 12162 ; Another entry. This will set the flash flag at location pointer by DE
CEAF FE 08       0 12163 cp 8
CEB1 28 0F       0 12164 jr z, IS_TR
CEB3             0 12166 ; # Convert to 0/1
CEB3 B7          0 12167 or a
CEB4 28 02       0 12168 jr z, IS_ZERO
CEB6 3E 80       0 12169 ld a, 0x80
CEB8             0 12171 IS_ZERO:
CEB8 47          0 12172 ld b, a	; Saves the color
CEB9 7E          0 12173 ld a, (hl)
CEBA E6 7F       0 12174 and 07Fh ; Clears previous value
CEBC B0          0 12175 or b
CEBD 77          0 12176 ld (hl), a
CEBE 23          0 12177 inc hl
CEBF CB BE       0 12178 res 7, (hl)  ;Reset bit 7 to disable transparency
CEC1 C9          0 12179 ret
CEC2             0 12181 IS_TR:  ; transparent
CEC2 23          0 12182 inc hl ; Points DE to MASK_T or MASK_P
CEC3 CB FE       0 12183 set 7, (hl)  ;Set bit 7 to enable transparency
CEC5 C9          0 12184 ret
CEC6             0 12186 ; Sets the FLASH flag passed in A register in the ATTR_T variable
CEC6             0 12187 FLASH_TMP:
CEC6 21 8F 5C    0 12188 ld hl, ATTR_T
CEC9 18 E4       0 12189 jr __SET_FLASH
CECB             0 12195 ; Sets bright flag in ATTR_P permanently
CECB             0 12196 ; Parameter: Paper color in A register
CECB             0 12200 BRIGHT:
CECB 21 8D 5C    0 12201 ld hl, ATTR_P
CECE             0 12207 __SET_BRIGHT:
CECE             0 12208 ; Another entry. This will set the bright flag at location pointer by DE
CECE FE 08       0 12209 cp 8
CED0 28 0F       0 12210 jr z, IS_TR
CED2             0 12212 ; # Convert to 0/1
CED2 B7          0 12213 or a
CED3 28 02       0 12214 jr z, IS_ZERO
CED5 3E 40       0 12215 ld a, 0x40
CED7             0 12217 IS_ZERO:
CED7 47          0 12218 ld b, a	; Saves the color
CED8 7E          0 12219 ld a, (hl)
CED9 E6 BF       0 12220 and 0BFh ; Clears previous value
CEDB B0          0 12221 or b
CEDC 77          0 12222 ld (hl), a
CEDD 23          0 12223 inc hl
CEDE CB B6       0 12224 res 6, (hl)  ;Reset bit 6 to disable transparency
CEE0 C9          0 12225 ret
CEE1             0 12227 IS_TR:  ; transparent
CEE1 23          0 12228 inc hl ; Points DE to MASK_T or MASK_P
CEE2 CB F6       0 12229 set 6, (hl)  ;Set bit 6 to enable transparency
CEE4 C9          0 12230 ret
CEE5             0 12232 ; Sets the BRIGHT flag passed in A register in the ATTR_T variable
CEE5             0 12233 BRIGHT_TMP:
CEE5 21 8F 5C    0 12234 ld hl, ATTR_T
CEE8 18 E4       0 12235 jr __SET_BRIGHT
CEEA             0 12240 ; Sets OVER flag in P_FLAG permanently
CEEA             0 12241 ; Parameter: OVER flag in bit 0 of A register
CEEA             0 12245 OVER:
CEEA 4F          0 12248 ld c, a ; saves it for later
CEEB E6 02       0 12249 and 2
CEED 21 81 5C    0 12250 ld hl, FLAGS2
CEF0 CB 8E       0 12251 res 1, (HL)
CEF2 B6          0 12252 or (hl)
CEF3 77          0 12253 ld (hl), a
CEF4 79          0 12255 ld a, c	; Recovers previous value
CEF5 E6 01       0 12256 and 1	; # Convert to 0/1
CEF7 87          0 12257 add a, a; # Shift left 1 bit for permanent
CEF8 21 91 5C    0 12259 ld hl, P_FLAG
CEFB CB 8E       0 12260 res 1, (hl)
CEFD B6          0 12261 or (hl)
CEFE 77          0 12262 ld (hl), a
CEFF C9          0 12263 ret
CF00             0 12265 ; Sets OVER flag in P_FLAG temporarily
CF00             0 12266 OVER_TMP:
CF00 4F          0 12267 ld c, a ; saves it for later
CF01 E6 02       0 12268 and 2	; gets bit 1; clears carry
CF03 1F          0 12269 rra
CF04 21 81 5C    0 12270 ld hl, FLAGS2
CF07 CB 86       0 12271 res 0, (hl)
CF09 B6          0 12272 or (hl)
CF0A 77          0 12273 ld (hl), a
CF0B 79          0 12275 ld a, c	; Recovers previous value
CF0C E6 01       0 12276 and 1
CF0E 21 91 5C    0 12277 ld hl, P_FLAG
CF11 CB 86       0 12278 res 0, (hl)
CF13 B6          0 12279 or (hl)
CF14 77          0 12280 ld (hl), a
CF15 C3 B9 D1    0 12281 jp __SET_ATTR_MODE
CF18             0 12288 ; Sets INVERSE flag in P_FLAG permanently
CF18             0 12289 ; Parameter: INVERSE flag in bit 0 of A register
CF18             0 12293 INVERSE:
CF18 E6 01       0 12296 and 1	; # Convert to 0/1
CF1A 87          0 12297 add a, a; # Shift left 3 bits for permanent
CF1B 87          0 12298 add a, a
CF1C 87          0 12299 add a, a
CF1D 21 91 5C    0 12300 ld hl, P_FLAG
CF20 CB 9E       0 12301 res 3, (hl)
CF22 B6          0 12302 or (hl)
CF23 77          0 12303 ld (hl), a
CF24 C9          0 12304 ret
CF25             0 12306 ; Sets INVERSE flag in P_FLAG temporarily
CF25             0 12307 INVERSE_TMP:
CF25 E6 01       0 12308 and 1
CF27 87          0 12309 add a, a
CF28 87          0 12310 add a, a; # Shift left 2 bits for temporary
CF29 21 91 5C    0 12311 ld hl, P_FLAG
CF2C CB 96       0 12312 res 2, (hl)
CF2E B6          0 12313 or (hl)
CF2F 77          0 12314 ld (hl), a
CF30 C3 B9 D1    0 12315 jp __SET_ATTR_MODE
CF33             0 12322 ; Sets BOLD flag in P_FLAG permanently
CF33             0 12323 ; Parameter: BOLD flag in bit 0 of A register
CF33             0 12326 BOLD:
CF33 E6 01       0 12329 and 1
CF35 07          0 12330 rlca
CF36 07          0 12331 rlca
CF37 07          0 12332 rlca
CF38 21 81 5C    0 12333 ld hl, FLAGS2
CF3B CB 9E       0 12334 res 3, (HL)
CF3D B6          0 12335 or (hl)
CF3E 77          0 12336 ld (hl), a
CF3F C9          0 12337 ret
CF40             0 12339 ; Sets BOLD flag in P_FLAG temporarily
CF40             0 12340 BOLD_TMP:
CF40 E6 01       0 12341 and 1
CF42 07          0 12342 rlca
CF43 07          0 12343 rlca
CF44 21 81 5C    0 12344 ld hl, FLAGS2
CF47 CB 96       0 12345 res 2, (hl)
CF49 B6          0 12346 or (hl)
CF4A 77          0 12347 ld (hl), a
CF4B C9          0 12348 ret
CF4C             0 12355 ; Sets ITALIC flag in P_FLAG permanently
CF4C             0 12356 ; Parameter: ITALIC flag in bit 0 of A register
CF4C             0 12359 ITALIC:
CF4C E6 01       0 12362 and 1
CF4E 0F          0 12363 rrca
CF4F 0F          0 12364 rrca
CF50 0F          0 12365 rrca
CF51 21 81 5C    0 12366 ld hl, FLAGS2
CF54 CB AE       0 12367 res 5, (HL)
CF56 B6          0 12368 or (hl)
CF57 77          0 12369 ld (hl), a
CF58 C9          0 12370 ret
CF59             0 12372 ; Sets ITALIC flag in P_FLAG temporarily
CF59             0 12373 ITALIC_TMP:
CF59 E6 01       0 12374 and 1
CF5B 0F          0 12375 rrca
CF5C 0F          0 12376 rrca
CF5D 0F          0 12377 rrca
CF5E 0F          0 12378 rrca
CF5F 21 81 5C    0 12379 ld hl, FLAGS2
CF62 CB A6       0 12380 res 4, (hl)
CF64 B6          0 12381 or (hl)
CF65 77          0 12382 ld (hl), a
CF66 C9          0 12383 ret
CF67             0 12391 ; Putting a comment starting with @INIT <address>
CF67             0 12392 ; will make the compiler to add a CALL to <address>
CF67             0 12393 ; It is useful for initialization routines.
CF67             0 12396 __PRINT_INIT: ; To be called before program starts (initializes library)
CF67 21 8A CF    0 12399 ld hl, __PRINT_START
CF6A 22 79 CF    0 12400 ld (PRINT_JUMP_STATE), hl
CF6D 21 21 18    0 12402 ld hl, 1821h
CF70 22 82 5C    0 12403 ld (MAXX), hl  ; Sets current maxX and maxY
CF73 AF          0 12405 xor a
CF74 32 81 5C    0 12406 ld (FLAGS2), a
CF77 C9          0 12408 ret
CF78             0 12411 __PRINTCHAR: ; Print character store in accumulator (A register)
CF78             0 12412 ; Modifies H'L', B'C', A'F', D'E', A
CF78             0 12427 __ROM_SCROLL_SCR EQU 0DFEh
CF78             0 12428 __TVFLAGS EQU 5C3Ch
CF78             0 12430 PRINT_JUMP_STATE EQU __PRINT_JUMP + 1
CF78             0 12432 __PRINT_JUMP:
CF78 C3 8A CF    0 12433 jp __PRINT_START    ; Where to jump. If we print 22 (AT), next two calls jumps to AT1 and AT2 respectively
CF7B             0 12437 __SCROLL:  ; Scroll?
CF7B 21 3C 5C    0 12438 ld hl, __TVFLAGS
CF7E CB 4E       0 12439 bit 1, (hl)
CF80 C8          0 12440 ret z
CF81 CD FE 0D    0 12441 call __ROM_SCROLL_SCR
CF84 21 3C 5C    0 12442 ld hl, __TVFLAGS
CF87 CB 8E       0 12443 res 1, (hl)
CF89 C9          0 12444 ret
CF8A             0 12447 __PRINT_START:
CF8A FE 20       0 12448 cp ' '
CF8C DA 09 D0    0 12449 jp c, __PRINT_SPECIAL    ; Characters below ' ' are special ones
CF8F D9          0 12451 exx               ; Switch to alternative registers
CF90 08          0 12452 ex af, af'        ; Saves a value (char to print) for later
CF91 CD 7B CF    0 12455 call __SCROLL
CF94 CD A5 CD    0 12457 call __LOAD_S_POSN
CF97             0 12459 ; At this point we have the new coord
CF97 2A D8 CD    0 12460 ld hl, (SCREEN_ADDR)
CF9A 7A          0 12462 ld a, d
CF9B 4F          0 12463 ld c, a     ; Saves it for later
CF9C E6 F8       0 12465 and 0F8h    ; Masks 3 lower bit ; zy
CF9E 57          0 12466 ld d, a
CF9F 79          0 12468 ld a, c     ; Recovers it
CFA0 E6 07       0 12469 and 07h     ; MOD 7 ; y1
CFA2 0F          0 12470 rrca
CFA3 0F          0 12471 rrca
CFA4 0F          0 12472 rrca
CFA5 B3          0 12474 or e
CFA6 5F          0 12475 ld e, a
CFA7 19          0 12476 add hl, de    ; HL = Screen address + DE
CFA8 EB          0 12477 ex de, hl     ; DE = Screen address
CFA9 08          0 12479 ex af, af'
CFAA FE 80       0 12481 cp 80h    ; Is it an UDG or a ?
CFAC DA C7 CF    0 12482 jp c, __SRCADDR
CFAF FE 90       0 12484 cp 90h
CFB1 D2 BE CF    0 12485 jp nc, __PRINT_UDG
CFB4             0 12487 ; Print a 8 bit pattern (80h to 8Fh)
CFB4 47          0 12489 ld b, a
CFB5 CD 38 0B    0 12490 call PO_GR_1 ; This ROM routine will generate the bit pattern at MEM0
CFB8 21 92 5C    0 12491 ld hl, MEM0
CFBB C3 D2 CF    0 12492 jp __PRGRAPH
CFBE             0 12494 PO_GR_1 EQU 0B38h
CFBE             0 12496 __PRINT_UDG:
CFBE D6 90       0 12497 sub 90h ; Sub ASC code
CFC0 ED 4B 7B 5C 0 12498 ld bc, (UDG)
CFC4 C3 CB CF    0 12499 jp __PRGRAPH0
CFC7             0 12501 __SOURCEADDR EQU (__SRCADDR + 1)    ; Address of the pointer to chars source
CFC7             0 12502 __SRCADDR:
CFC7 ED 4B 36 5C 0 12503 ld bc, (CHARS)
CFCB             0 12505 __PRGRAPH0:
CFCB 87          0 12506 add a, a   ; A = a * 2 (since a < 80h) ; Thanks to Metalbrain at http://foro.speccy.org
CFCC 6F          0 12507 ld l, a
CFCD 26 00       0 12508 ld h, 0    ; HL = a * 2 (accumulator)
CFCF 29          0 12509 add hl, hl
CFD0 29          0 12510 add hl, hl ; HL = a * 8
CFD1 09          0 12511 add hl, bc ; HL = CHARS address
CFD2             0 12513 __PRGRAPH:
CFD2 EB          0 12514 ex de, hl  ; HL = Write Address, DE = CHARS address
CFD3 FD CB 47 56 0 12515 bit 2, (iy + $47)
CFD7 C4 0B D1    0 12516 call nz, __BOLD
CFDA FD CB 47 66 0 12517 bit 4, (iy + $47)
CFDE C4 1F D1    0 12518 call nz, __ITALIC
CFE1 06 08       0 12519 ld b, 8 ; 8 bytes per char
CFE3             0 12520 __PRCHAR:
CFE3 1A          0 12521 ld a, (de) ; DE *must* be ALWAYS source, and HL destiny
CFE4             0 12523 PRINT_MODE:     ; Which operation is used to write on the screen
CFE4             0 12524 ; Set it with:
CFE4             0 12525 ; LD A, <OPERATION>
CFE4             0 12526 ; LD (PRINT_MODE), A
CFE4             0 12527 ;
CFE4             0 12528 ; Available opertions:
CFE4             0 12529 ; NORMAL : 0h  --> NOP         ; OVER 0
CFE4             0 12530 ; XOR    : AEh --> XOR (HL)    ; OVER 1
CFE4             0 12531 ; OR     : B6h --> OR (HL)     ; PUTSPRITE
CFE4             0 12532 ; AND    : A6h --> AND (HL)    ; PUTMASK
CFE4 00          0 12533 nop     ;
CFE5             0 12535 INVERSE_MODE:   ; 00 -> NOP -> INVERSE 0
CFE5 00          0 12536 nop     ; 2F -> CPL -> INVERSE 1
CFE6 77          0 12538 ld (hl), a
CFE7 13          0 12540 inc de
CFE8 24          0 12541 inc h     ; Next line
CFE9 10 F8       0 12542 djnz __PRCHAR
CFEB CD A5 CD    0 12544 call __LOAD_S_POSN
CFEE D5          0 12545 push de
CFEF CD 04 CE    0 12546 call __SET_ATTR
CFF2 D1          0 12547 pop de
CFF3 1C          0 12548 inc e            ; COL = COL + 1
CFF4 2A 82 5C    0 12549 ld hl, (MAXX)
CFF7 7B          0 12550 ld a, e
CFF8 2D          0 12551 dec l            ; l = MAXX
CFF9 BD          0 12552 cp l            ; Lower than max?
CFFA DA 04 D0    0 12553 jp c, __PRINT_CONT; Nothing to do
CFFD CD 17 D0    0 12554 call __PRINT_EOL1
D000 D9          0 12555 exx            ; counteracts __PRINT_EOL1 exx
D001 C3 07 D0    0 12556 jp __PRINT_CONT2
D004             0 12558 __PRINT_CONT:
D004 CD B1 CD    0 12559 call __SAVE_S_POSN
D007             0 12561 __PRINT_CONT2:
D007 D9          0 12562 exx
D008 C9          0 12563 ret
D009             0 12565 ; ------------- SPECIAL CHARS (< 32) -----------------
D009             0 12567 __PRINT_SPECIAL:    ; Jumps here if it is a special char
D009 D9          0 12568 exx
D00A 21 77 D1    0 12569 ld hl, __PRINT_TABLE
D00D C3 5D CE    0 12570 jp JUMP_HL_PLUS_2A
D010             0 12573 PRINT_EOL:        ; Called WHENEVER there is no ";" at end of PRINT sentence
D010 D9          0 12574 exx
D011             0 12576 __PRINT_0Dh:        ; Called WHEN printing CHR$(13)
D011 CD 7B CF    0 12578 call __SCROLL
D014 CD A5 CD    0 12580 call __LOAD_S_POSN
D017             0 12582 __PRINT_EOL1:        ; Another entry called from PRINT when next line required
D017 1E 00       0 12583 ld e, 0
D019             0 12585 __PRINT_EOL2:
D019 7A          0 12586 ld a, d
D01A 3C          0 12587 inc a
D01B             0 12589 __PRINT_AT1_END:
D01B 2A 83 5C    0 12590 ld hl, (MAXY)
D01E BD          0 12591 cp l
D01F 38 06       0 12592 jr c, __PRINT_EOL_END    ; Carry if (MAXY) < d
D021 21 3C 5C    0 12593 ld hl, __TVFLAGS
D024 CB CE       0 12594 set 1, (hl)
D026 7A          0 12595 ld a, d
D027             0 12597 __PRINT_EOL_END:
D027 57          0 12598 ld d, a
D028             0 12600 __PRINT_AT2_END:
D028 CD B1 CD    0 12601 call __SAVE_S_POSN
D02B D9          0 12602 exx
D02C C9          0 12603 ret
D02D             0 12605 __PRINT_COM:
D02D D9          0 12606 exx
D02E E5          0 12607 push hl
D02F D5          0 12608 push de
D030 C5          0 12609 push bc
D031 CD 44 D1    0 12610 call PRINT_COMMA
D034 C1          0 12611 pop bc
D035 D1          0 12612 pop de
D036 E1          0 12613 pop hl
D037 C9          0 12614 ret
D038             0 12616 __PRINT_TAB:
D038 21 3E D0    0 12617 ld hl, __PRINT_TAB1
D03B C3 64 D0    0 12618 jp __PRINT_SET_STATE
D03E             0 12620 __PRINT_TAB1:
D03E 32 92 5C    0 12621 ld (MEM0), a
D041 21 48 D0    0 12622 ld hl, __PRINT_TAB2
D044 22 79 CF    0 12623 ld (PRINT_JUMP_STATE), hl
D047 C9          0 12624 ret
D048             0 12626 __PRINT_TAB2:
D048 3A 92 5C    0 12627 ld a, (MEM0)        ; Load tab code (ignore the current one)
D04B E5          0 12628 push hl
D04C D5          0 12629 push de
D04D C5          0 12630 push bc
D04E 21 8A CF    0 12631 ld hl, __PRINT_START
D051 22 79 CF    0 12632 ld (PRINT_JUMP_STATE), hl
D054 CD 4C D1    0 12633 call PRINT_TAB
D057 C1          0 12634 pop bc
D058 D1          0 12635 pop de
D059 E1          0 12636 pop hl
D05A C9          0 12637 ret
D05B             0 12639 __PRINT_NOP:
D05B             0 12640 __PRINT_RESTART:
D05B 21 8A CF    0 12641 ld hl, __PRINT_START
D05E C3 64 D0    0 12642 jp __PRINT_SET_STATE
D061             0 12644 __PRINT_AT:
D061 21 69 D0    0 12645 ld hl, __PRINT_AT1
D064             0 12647 __PRINT_SET_STATE:
D064 22 79 CF    0 12648 ld (PRINT_JUMP_STATE), hl    ; Saves next entry call
D067 D9          0 12649 exx
D068 C9          0 12650 ret
D069             0 12652 __PRINT_AT1:    ; Jumps here if waiting for 1st parameter
D069 D9          0 12653 exx
D06A 21 76 D0    0 12654 ld hl, __PRINT_AT2
D06D 22 79 CF    0 12655 ld (PRINT_JUMP_STATE), hl    ; Saves next entry call
D070 CD A5 CD    0 12656 call __LOAD_S_POSN
D073 C3 1B D0    0 12657 jp __PRINT_AT1_END
D076             0 12659 __PRINT_AT2:
D076 D9          0 12660 exx
D077 21 8A CF    0 12661 ld hl, __PRINT_START
D07A 22 79 CF    0 12662 ld (PRINT_JUMP_STATE), hl    ; Saves next entry call
D07D CD A5 CD    0 12663 call __LOAD_S_POSN
D080 5F          0 12664 ld e, a
D081 2A 82 5C    0 12665 ld hl, (MAXX)
D084 BE          0 12666 cp (hl)
D085 38 A1       0 12667 jr c, __PRINT_AT2_END
D087 18 8E       0 12668 jr __PRINT_EOL1
D089             0 12670 __PRINT_DEL:
D089 CD A5 CD    0 12671 call __LOAD_S_POSN        ; Gets current screen position
D08C 1D          0 12672 dec e
D08D 3E FF       0 12673 ld a, -1
D08F BB          0 12674 cp e
D090 C2 28 D0    0 12675 jp nz, __PRINT_AT2_END
D093 2A 82 5C    0 12676 ld hl, (MAXX)
D096 5D          0 12677 ld e, l
D097 1D          0 12678 dec e
D098 1D          0 12679 dec e
D099 15          0 12680 dec d
D09A BA          0 12681 cp d
D09B C2 28 D0    0 12682 jp nz, __PRINT_AT2_END
D09E 54          0 12683 ld d, h
D09F 15          0 12684 dec d
D0A0 C3 28 D0    0 12685 jp __PRINT_AT2_END
D0A3             0 12687 __PRINT_INK:
D0A3 21 A9 D0    0 12688 ld hl, __PRINT_INK2
D0A6 C3 64 D0    0 12689 jp __PRINT_SET_STATE
D0A9             0 12691 __PRINT_INK2:
D0A9 D9          0 12692 exx
D0AA CD 82 CE    0 12693 call INK_TMP
D0AD C3 5B D0    0 12694 jp __PRINT_RESTART
D0B0             0 12696 __PRINT_PAP:
D0B0 21 B6 D0    0 12697 ld hl, __PRINT_PAP2
D0B3 C3 64 D0    0 12698 jp __PRINT_SET_STATE
D0B6             0 12700 __PRINT_PAP2:
D0B6 D9          0 12701 exx
D0B7 CD A6 CE    0 12702 call PAPER_TMP
D0BA C3 5B D0    0 12703 jp __PRINT_RESTART
D0BD             0 12705 __PRINT_FLA:
D0BD 21 C3 D0    0 12706 ld hl, __PRINT_FLA2
D0C0 C3 64 D0    0 12707 jp __PRINT_SET_STATE
D0C3             0 12709 __PRINT_FLA2:
D0C3 D9          0 12710 exx
D0C4 CD C6 CE    0 12711 call FLASH_TMP
D0C7 C3 5B D0    0 12712 jp __PRINT_RESTART
D0CA             0 12714 __PRINT_BRI:
D0CA 21 D0 D0    0 12715 ld hl, __PRINT_BRI2
D0CD C3 64 D0    0 12716 jp __PRINT_SET_STATE
D0D0             0 12718 __PRINT_BRI2:
D0D0 D9          0 12719 exx
D0D1 CD E5 CE    0 12720 call BRIGHT_TMP
D0D4 C3 5B D0    0 12721 jp __PRINT_RESTART
D0D7             0 12723 __PRINT_INV:
D0D7 21 DD D0    0 12724 ld hl, __PRINT_INV2
D0DA C3 64 D0    0 12725 jp __PRINT_SET_STATE
D0DD             0 12727 __PRINT_INV2:
D0DD D9          0 12728 exx
D0DE CD 25 CF    0 12729 call INVERSE_TMP
D0E1 C3 5B D0    0 12730 jp __PRINT_RESTART
D0E4             0 12732 __PRINT_OVR:
D0E4 21 EA D0    0 12733 ld hl, __PRINT_OVR2
D0E7 C3 64 D0    0 12734 jp __PRINT_SET_STATE
D0EA             0 12736 __PRINT_OVR2:
D0EA D9          0 12737 exx
D0EB CD 00 CF    0 12738 call OVER_TMP
D0EE C3 5B D0    0 12739 jp __PRINT_RESTART
D0F1             0 12741 __PRINT_BOLD:
D0F1 21 F7 D0    0 12742 ld hl, __PRINT_BOLD2
D0F4 C3 64 D0    0 12743 jp __PRINT_SET_STATE
D0F7             0 12745 __PRINT_BOLD2:
D0F7 D9          0 12746 exx
D0F8 CD 40 CF    0 12747 call BOLD_TMP
D0FB C3 5B D0    0 12748 jp __PRINT_RESTART
D0FE             0 12750 __PRINT_ITA:
D0FE 21 04 D1    0 12751 ld hl, __PRINT_ITA2
D101 C3 64 D0    0 12752 jp __PRINT_SET_STATE
D104             0 12754 __PRINT_ITA2:
D104 D9          0 12755 exx
D105 CD 59 CF    0 12756 call ITALIC_TMP
D108 C3 5B D0    0 12757 jp __PRINT_RESTART
D10B             0 12760 __BOLD:
D10B E5          0 12761 push hl
D10C 21 92 5C    0 12762 ld hl, MEM0
D10F 06 08       0 12763 ld b, 8
D111             0 12764 __BOLD_LOOP:
D111 1A          0 12765 ld a, (de)
D112 4F          0 12766 ld c, a
D113 07          0 12767 rlca
D114 B1          0 12768 or c
D115 77          0 12769 ld (hl), a
D116 23          0 12770 inc hl
D117 13          0 12771 inc de
D118 10 F7       0 12772 djnz __BOLD_LOOP
D11A E1          0 12773 pop hl
D11B 11 92 5C    0 12774 ld de, MEM0
D11E C9          0 12775 ret
D11F             0 12778 __ITALIC:
D11F E5          0 12779 push hl
D120 21 92 5C    0 12780 ld hl, MEM0
D123 EB          0 12781 ex de, hl
D124 01 08 00    0 12782 ld bc, 8
D127 ED B0       0 12783 ldir
D129 21 92 5C    0 12784 ld hl, MEM0
D12C CB 3E       0 12785 srl (hl)
D12E 23          0 12786 inc hl
D12F CB 3E       0 12787 srl (hl)
D131 23          0 12788 inc hl
D132 CB 3E       0 12789 srl (hl)
D134 23          0 12790 inc hl
D135 23          0 12791 inc hl
D136 23          0 12792 inc hl
D137 CB 26       0 12793 sla (hl)
D139 23          0 12794 inc hl
D13A CB 26       0 12795 sla (hl)
D13C 23          0 12796 inc hl
D13D CB 26       0 12797 sla (hl)
D13F E1          0 12798 pop hl
D140 11 92 5C    0 12799 ld de, MEM0
D143 C9          0 12800 ret
D144             0 12802 PRINT_COMMA:
D144 CD A5 CD    0 12803 call __LOAD_S_POSN
D147 7B          0 12804 ld a, e
D148 E6 10       0 12805 and 16
D14A C6 10       0 12806 add a, 16
D14C             0 12808 PRINT_TAB:
D14C 3C          0 12812 inc a
D14D CD A5 CD    0 12813 call __LOAD_S_POSN ; e = current row
D150 57          0 12814 ld d, a
D151 7B          0 12815 ld a, e
D152 FE 21       0 12816 cp 21h
D154 20 02       0 12817 jr nz, CONTINUE
D156 1E FF       0 12818 ld e, -1
D158             0 12819 CONTINUE:
D158 7A          0 12820 ld a, d
D159 1C          0 12821 inc e
D15A 93          0 12822 sub e  ; A = A - E
D15B E6 1F       0 12823 and 31 ;
D15D C8          0 12824 ret z  ; Already at position E
D15E 47          0 12825 ld b, a
D15F             0 12826 LOOP:
D15F 3E 20       0 12827 ld a, ' '
D161 CD 78 CF    0 12828 call __PRINTCHAR
D164 10 F9       0 12829 djnz LOOP
D166 C9          0 12830 ret
D167             0 12833 PRINT_AT: ; Changes cursor to ROW, COL
D167             0 12834 ; COL in A register
D167             0 12835 ; ROW in stack
D167 E1          0 12837 pop hl    ; Ret address
D168 E3          0 12838 ex (sp), hl ; callee H = ROW
D169 6F          0 12839 ld l, a
D16A EB          0 12840 ex de, hl
D16B CD BB CD    0 12842 call __IN_SCREEN
D16E D0          0 12843 ret nc    ; Return if out of screen
D16F 21 3C 5C    0 12844 ld hl, __TVFLAGS
D172 CB 8E       0 12845 res 1, (hl)
D174 C3 B1 CD    0 12846 jp __SAVE_S_POSN
D177             0 12867 __PRINT_TABLE:    ; Jump table for 0 .. 22 codes
D177 5B D0       0 12869 DW __PRINT_NOP    ;  0
D179 5B D0       0 12870 DW __PRINT_NOP    ;  1
D17B 5B D0       0 12871 DW __PRINT_NOP    ;  2
D17D 5B D0       0 12872 DW __PRINT_NOP    ;  3
D17F 5B D0       0 12873 DW __PRINT_NOP    ;  4
D181 5B D0       0 12874 DW __PRINT_NOP    ;  5
D183 2D D0       0 12875 DW __PRINT_COM    ;  6 COMMA
D185 5B D0       0 12876 DW __PRINT_NOP    ;  7
D187 89 D0       0 12877 DW __PRINT_DEL    ;  8 DEL
D189 5B D0       0 12878 DW __PRINT_NOP    ;  9
D18B 5B D0       0 12879 DW __PRINT_NOP    ; 10
D18D 5B D0       0 12880 DW __PRINT_NOP    ; 11
D18F 5B D0       0 12881 DW __PRINT_NOP    ; 12
D191 11 D0       0 12882 DW __PRINT_0Dh    ; 13
D193 F1 D0       0 12883 DW __PRINT_BOLD   ; 14
D195 FE D0       0 12884 DW __PRINT_ITA    ; 15
D197 A3 D0       0 12885 DW __PRINT_INK    ; 16
D199 B0 D0       0 12886 DW __PRINT_PAP    ; 17
D19B BD D0       0 12887 DW __PRINT_FLA    ; 18
D19D CA D0       0 12888 DW __PRINT_BRI    ; 19
D19F D7 D0       0 12889 DW __PRINT_INV    ; 20
D1A1 E4 D0       0 12890 DW __PRINT_OVR    ; 21
D1A3 61 D0       0 12891 DW __PRINT_AT     ; 22 AT
D1A5 38 D0       0 12892 DW __PRINT_TAB    ; 23 TAB
D1A7             0 12902 COPY_ATTR:
D1A7             0 12903 ; Just copies current permanent attribs to temporal attribs
D1A7             0 12904 ; and sets print mode
D1A7             0 12910 INVERSE1 EQU 02Fh
D1A7 2A 8D 5C    0 12912 ld hl, (ATTR_P)
D1AA 22 8F 5C    0 12913 ld (ATTR_T), hl
D1AD 21 81 5C    0 12915 ld hl, FLAGS2
D1B0 CD DD D1    0 12916 call __REFRESH_TMP
D1B3 21 91 5C    0 12918 ld hl, P_FLAG
D1B6 CD DD D1    0 12919 call __REFRESH_TMP
D1B9             0 12922 __SET_ATTR_MODE:		; Another entry to set print modes. A contains (P_FLAG)
D1B9 1F          0 12928 rra					; Over bit to carry
D1BA 3A 81 5C    0 12929 ld a, (FLAGS2)
D1BD 17          0 12930 rla					; Over bit in bit 1, Over2 bit in bit 2
D1BE E6 03       0 12931 and 3				; Only bit 0 and 1 (OVER flag)
D1C0 4F          0 12933 ld c, a
D1C1 06 00       0 12934 ld b, 0
D1C3 21 D9 D1    0 12936 ld hl, TABLE
D1C6 09          0 12937 add hl, bc
D1C7 7E          0 12938 ld a, (hl)
D1C8 32 E4 CF    0 12939 ld (PRINT_MODE), a
D1CB 2A 91 5C    0 12941 ld hl, (P_FLAG)
D1CE AF          0 12942 xor a			; NOP -> INVERSE0
D1CF CB 55       0 12943 bit 2, l
D1D1 28 02       0 12944 jr z, CONT2
D1D3 3E 2F       0 12945 ld a, INVERSE1 	; CPL -> INVERSE1
D1D5             0 12947 CONT2:
D1D5 32 E5 CF    0 12948 ld (INVERSE_MODE), a
D1D8 C9          0 12949 ret
D1D9             0 12951 TABLE:
D1D9 00          0 12952 nop				; NORMAL MODE
D1DA AE          0 12953 xor (hl)		; OVER 1 MODE
D1DB A6          0 12954 and (hl)		; OVER 2 MODE
D1DC B6          0 12955 or  (hl)		; OVER 3 MODE
D1DD             0 12959 __REFRESH_TMP:
D1DD 7E          0 12960 ld a, (hl)
D1DE E6 AA       0 12961 and 10101010b
D1E0 4F          0 12962 ld c, a
D1E1 1F          0 12963 rra
D1E2 B1          0 12964 or c
D1E3 77          0 12965 ld (hl), a
D1E4 C9          0 12966 ret
D1E5             0 12973 ; 16 bit division and modulo functions
D1E5             0 12974 ; for both signed and unsigned values
D1E5             0 12978 ; Negates HL value (16 bit)
D1E5             0 12979 __ABS16:
D1E5 CB 7C       0 12980 bit 7, h
D1E7 C8          0 12981 ret z
D1E8             0 12983 __NEGHL:
D1E8 7D          0 12984 ld a, l			; HL = -HL
D1E9 2F          0 12985 cpl
D1EA 6F          0 12986 ld l, a
D1EB 7C          0 12987 ld a, h
D1EC 2F          0 12988 cpl
D1ED 67          0 12989 ld h, a
D1EE 23          0 12990 inc hl
D1EF C9          0 12991 ret
D1F0             0 12995 __DIVU16:    ; 16 bit unsigned division
D1F0             0 12996 ; HL = Dividend, Stack Top = Divisor
D1F0             0 12998 ;   -- OBSOLETE ; Now uses FASTCALL convention
D1F0             0 12999 ;   ex de, hl
D1F0             0 13000 ;	pop hl      ; Return address
D1F0             0 13001 ;	ex (sp), hl ; CALLEE Convention
D1F0             0 13003 __DIVU16_FAST:
D1F0 7C          0 13004 ld a, h
D1F1 4D          0 13005 ld c, l
D1F2 21 00 00    0 13006 ld hl, 0
D1F5 06 10       0 13007 ld b, 16
D1F7             0 13009 __DIV16LOOP:
D1F7 CB 31       0 13010 sll c
D1F9 17          0 13011 rla
D1FA ED 6A       0 13012 adc hl,hl
D1FC ED 52       0 13013 sbc hl,de
D1FE 30 02       0 13014 jr  nc, __DIV16NOADD
D200 19          0 13015 add hl,de
D201 0D          0 13016 dec c
D202             0 13018 __DIV16NOADD:
D202 10 F3       0 13019 djnz __DIV16LOOP
D204 EB          0 13021 ex de, hl
D205 67          0 13022 ld h, a
D206 69          0 13023 ld l, c
D207 C9          0 13025 ret     ; HL = quotient, DE = Mudulus
D208             0 13029 __MODU16:    ; 16 bit modulus
D208             0 13030 ; HL = Dividend, Stack Top = Divisor
D208             0 13032 ;ex de, hl
D208             0 13033 ;pop hl
D208             0 13034 ;ex (sp), hl ; CALLEE Convention
D208 CD F0 D1    0 13036 call __DIVU16_FAST
D20B EB          0 13037 ex de, hl	; hl = reminder (modulus)
D20C             0 13038 ; de = quotient
D20C C9          0 13040 ret
D20D             0 13043 __DIVI16:	; 16 bit signed division
D20D             0 13044 ;	--- The following is OBSOLETE ---
D20D             0 13045 ;	ex de, hl
D20D             0 13046 ;	pop hl
D20D             0 13047 ;	ex (sp), hl 	; CALLEE Convention
D20D             0 13049 __DIVI16_FAST:
D20D 7A          0 13050 ld a, d
D20E AC          0 13051 xor h
D20F 08          0 13052 ex af, af'		; BIT 7 of a contains result
D210 CB 7A       0 13054 bit 7, d		; DE is negative?
D212 28 07       0 13055 jr z, __DIVI16A
D214 7B          0 13057 ld a, e			; DE = -DE
D215 2F          0 13058 cpl
D216 5F          0 13059 ld e, a
D217 7A          0 13060 ld a, d
D218 2F          0 13061 cpl
D219 57          0 13062 ld d, a
D21A 13          0 13063 inc de
D21B             0 13065 __DIVI16A:
D21B CB 7C       0 13066 bit 7, h		; HL is negative?
D21D C4 E8 D1    0 13067 call nz, __NEGHL
D220             0 13069 __DIVI16B:
D220 CD F0 D1    0 13070 call __DIVU16_FAST
D223 08          0 13071 ex af, af'
D224 B7          0 13073 or a
D225 F0          0 13074 ret p	; return if positive
D226 C3 E8 D1    0 13075 jp __NEGHL
D229             0 13078 __MODI16:    ; 16 bit modulus
D229             0 13079 ; HL = Dividend, Stack Top = Divisor
D229             0 13081 ;ex de, hl
D229             0 13082 ;pop hl
D229             0 13083 ;ex (sp), hl ; CALLEE Convention
D229 CD 0D D2    0 13085 call __DIVI16_FAST
D22C EB          0 13086 ex de, hl	; hl = reminder (modulus)
D22D             0 13087 ; de = quotient
D22D C9          0 13089 ret
D22E             0 13094 ; --------------------------------
D22E             0 13095 __DIVU8:	; 8 bit unsigned integer division
D22E             0 13096 ; Divides (Top of stack, High Byte) / A
D22E E1          0 13097 pop hl	; --------------------------------
D22F E3          0 13098 ex (sp), hl	; CALLEE
D230             0 13100 __DIVU8_FAST:	; Does A / H
D230 6C          0 13101 ld l, h
D231 67          0 13102 ld h, a		; At this point do H / L
D232 06 08       0 13104 ld b, 8
D234 AF          0 13105 xor a		; A = 0, Carry Flag = 0
D235             0 13107 __DIV8LOOP:
D235 CB 24       0 13108 sla	h
D237 17          0 13109 rla
D238 BD          0 13110 cp	l
D239 38 02       0 13111 jr	c, __DIV8NOSUB
D23B 95          0 13112 sub	l
D23C 24          0 13113 inc	h
D23D             0 13115 __DIV8NOSUB:
D23D 10 F6       0 13116 djnz __DIV8LOOP
D23F 6F          0 13118 ld	l, a		; save remainder
D240 7C          0 13119 ld	a, h		;
D241 C9          0 13121 ret			; a = Quotient,
D242             0 13124 ; --------------------------------
D242             0 13125 __DIVI8:		; 8 bit signed integer division Divides (Top of stack) / A
D242 E1          0 13126 pop hl		; --------------------------------
D243 E3          0 13127 ex (sp), hl
D244             0 13129 __DIVI8_FAST:
D244 5F          0 13130 ld e, a		; store operands for later
D245 4C          0 13131 ld c, h
D246 B7          0 13133 or a		; negative?
D247 F2 4C D2    0 13134 jp p, __DIV8A
D24A ED 44       0 13135 neg			; Make it positive
D24C             0 13137 __DIV8A:
D24C 08          0 13138 ex af, af'
D24D 7C          0 13139 ld a, h
D24E B7          0 13140 or a
D24F F2 55 D2    0 13141 jp p, __DIV8B
D252 ED 44       0 13142 neg
D254 67          0 13143 ld h, a		; make it positive
D255             0 13145 __DIV8B:
D255 08          0 13146 ex af, af'
D256 CD 30 D2    0 13148 call __DIVU8_FAST
D259 79          0 13150 ld a, c
D25A AD          0 13151 xor l		; bit 7 of A = 1 if result is negative
D25B 7C          0 13153 ld a, h		; Quotient
D25C F0          0 13154 ret p		; return if positive
D25D ED 44       0 13156 neg
D25F C9          0 13157 ret
D260             0 13160 __MODU8:		; 8 bit module. REturns A mod (Top of stack) (unsigned operands)
D260 E1          0 13161 pop hl
D261 E3          0 13162 ex (sp), hl	; CALLEE
D262             0 13164 __MODU8_FAST:	; __FASTCALL__ entry
D262 CD 30 D2    0 13165 call __DIVU8_FAST
D265 7D          0 13166 ld a, l		; Remainder
D266 C9          0 13168 ret		; a = Modulus
D267             0 13171 __MODI8:		; 8 bit module. REturns A mod (Top of stack) (For singed operands)
D267 E1          0 13172 pop hl
D268 E3          0 13173 ex (sp), hl	; CALLEE
D269             0 13175 __MODI8_FAST:	; __FASTCALL__ entry
D269 CD 44 D2    0 13176 call __DIVI8_FAST
D26C 7D          0 13177 ld a, l		; remainder
D26D C9          0 13179 ret		; a = Modulus
D26E             0 13184 __EQ16:	; Test if 16bit values HL == DE
D26E             0 13185 ; Returns result in A: 0 = False, FF = True
D26E AF          0 13186 xor a	; Reset carry flag
D26F ED 52       0 13187 sbc hl, de
D271 C0          0 13188 ret nz
D272 3C          0 13189 inc a
D273 C9          0 13190 ret
D274             0 13203 LOAD_CODE:
D274             0 13204 ; This function will implement the LOAD CODE Routine
D274             0 13205 ; Parameters in the stack are HL => String with LOAD name
D274             0 13206 ; (only first 12 chars will be taken into account)
D274             0 13207 ; DE = START address of CODE to save
D274             0 13208 ; BC = Length of data in bytes
D274             0 13209 ; A = 1 => LOAD 0 => Verify
D274             0 13224 HEAD1 EQU MEM0 + 8 ; Uses CALC Mem for temporary storage
D274             0 13225 ; Must skip first 8 bytes used by
D274             0 13226 ; PRINT routine
D274             0 13227 TMP_HEADER EQU HEAD1 + 17 ; Temporary HEADER2 pointer storage
D274             0 13229 LD_BYTES EQU 0556h ; ROM Routine LD-BYTES
D274             0 13230 TMP_FLAG EQU 23655 ; Uses BREG as a Temporary FLAG
D274 E1          0 13232 pop hl         ; Return address
D275 F1          0 13233 pop af         ; A = 1 => LOAD; A = 0 => VERIFY
D276 C1          0 13234 pop bc         ; data length in bytes
D277 D1          0 13235 pop de         ; address start
D278 E3          0 13236 ex (sp), hl    ; CALLE => now hl = String
D279             0 13238 __LOAD_CODE: ; INLINE version
D279 DD E5       0 13239 push ix ; saves IX
D27B 32 67 5C    0 13240 ld (TMP_FLAG), a ; Stores verify/load flag
D27E             0 13242 ; Prepares temporary 1st header descriptor
D27E DD 21 9A 5C 0 13243 ld ix, HEAD1
D282 DD 36 00 03 0 13244 ld (ix + 0), 3     ; ZXBASIC ALWAYS uses CODE
D286 DD 36 01 FF 0 13245 ld (ix + 1), 0FFh  ; Wildcard for empty string
D28A DD 71 0B    0 13247 ld (ix + 11), c
D28D DD 70 0C    0 13248 ld (ix + 12), b ; Store length in bytes
D290 DD 73 0D    0 13249 ld (ix + 13), e
D293 DD 72 0E    0 13250 ld (ix + 14), d ; Store address in bytes
D296 7C          0 13252 ld a, h
D297 B5          0 13253 or l
D298 44          0 13254 ld b, h
D299 4D          0 13255 ld c, l
D29A 28 19       0 13256 jr z, LOAD_HEADER ; NULL STRING => LOAD ""
D29C 4E          0 13258 ld c, (hl)
D29D 23          0 13259 inc hl
D29E 46          0 13260 ld b, (hl)
D29F 23          0 13261 inc hl
D2A0 78          0 13263 ld a, b
D2A1 B1          0 13264 or c
D2A2 28 23       0 13265 jr z, LOAD_CONT2 ; NULL STRING => LOAD ""
D2A4             0 13267 ; Fill with blanks
D2A4 E5          0 13268 push hl
D2A5 C5          0 13269 push bc
D2A6 21 9C 5C    0 13270 ld hl, HEAD1 + 2
D2A9 11 9D 5C    0 13271 ld de, HEAD1 + 3
D2AC 01 08 00    0 13272 ld bc, 8
D2AF 36 20       0 13273 ld (hl), ' '
D2B1 ED B0       0 13274 ldir
D2B3 C1          0 13275 pop bc
D2B4 E1          0 13276 pop hl
D2B5             0 13278 LOAD_HEADER:
D2B5 EB          0 13279 ex de, hl  ; Saves HL in DE
D2B6 21 0A 00    0 13280 ld hl, 10
D2B9 B7          0 13281 or a
D2BA ED 42       0 13282 sbc hl, bc ; Test BC > 10?
D2BC EB          0 13283 ex de, hl  ; Retrieve HL
D2BD 30 03       0 13284 jr nc, LOAD_CONT ; Ok BC <= 10
D2BF 01 0A 00    0 13285 ld bc, 10 ; BC at most 10 chars
D2C2             0 13287 LOAD_CONT:
D2C2 11 9B 5C    0 13288 ld de, HEAD1 + 1
D2C5 ED B0       0 13289 ldir     ; Copy String block NAME in header
D2C7             0 13291 LOAD_CONT2:
D2C7 01 11 00    0 13292 ld bc, 17; 2nd Header
D2CA CD 4C CC    0 13293 call __MEM_ALLOC
D2CD 7C          0 13295 ld a, h
D2CE B5          0 13296 or l
D2CF 20 05       0 13297 jr nz, LOAD_CONT3; there's memory
D2D1 3E 03       0 13299 ld a, ERROR_OutOfMemory
D2D3 C3 1E CC    0 13300 jp __ERROR
D2D6             0 13302 LOAD_CONT3:
D2D6 22 AB 5C    0 13303 ld (TMP_HEADER), hl
D2D9 E5          0 13304 push hl
D2DA DD E1       0 13305 pop ix
D2DC             0 13307 ;; LD-LOOK-H --- RIPPED FROM ROM at 0x767
D2DC             0 13308 LD_LOOK_H:
D2DC DD E5       0 13309 push ix                 ; save IX
D2DE 11 11 00    0 13310 ld de, 17               ; seventeen bytes
D2E1 AF          0 13311 xor a                   ; reset zero flag
D2E2 37          0 13312 scf                     ; set carry flag
D2E3 CD 56 05    0 13314 call LD_BYTES           ; routine LD-BYTES loads a header from tape
D2E6             0 13315 ; to second descriptor.
D2E6 DD E1       0 13316 pop ix                  ; restore IX
D2E8 30 F2       0 13317 jr nc, LD_LOOK_H        ; loop back to LD-LOOK-H until header found.
D2EA 0E 80       0 13319 ld c, 80h               ; C has bit 7 set to indicate header type mismatch as
D2EC             0 13320 ; a default startpoint.
D2EC DD 7E 00    0 13322 ld a, (ix + 0)          ; compare loaded type
D2EF FE 03       0 13323 cp 3		            ; with expected bytes header
D2F1 20 02       0 13324 jr nz, LD_TYPE          ; forward to LD-TYPE with mis-match.
D2F3 0E F6       0 13326 ld c, -10               ; set C to minus ten - will count characters
D2F5             0 13327 ; up to zero.
D2F5             0 13328 LD_TYPE:
D2F5 FE 04       0 13329 cp 4                    ; check if type in acceptable range 0 - 3.
D2F7 30 E3       0 13330 jr nc, LD_LOOK_H        ; back to LD-LOOK-H with 4 and over.
D2F9             0 13331 ; else A indicates type 0-3.
D2F9 CD 67 D3    0 13332 call PRINT_TAPE_MESSAGES; Print tape msg
D2FC 21 9B 5C    0 13333 ld hl, HEAD1 + 1        ; point HL to 1st descriptor.
D2FF ED 5B AB 5C 0 13334 ld de, (TMP_HEADER)     ; point DE to 2nd descriptor.
D303 06 0A       0 13335 ld b, 10                ; the count will be ten characters for the
D305             0 13336 ; filename.
D305 7E          0 13338 ld a, (hl)              ; fetch first character and test for
D306 3C          0 13339 inc a                   ; value 255.
D307 20 03       0 13340 jr nz, LD_NAME          ; forward to LD-NAME if not the wildcard.
D309             0 13342 ;   but if it is the wildcard, then add ten to C which is minus ten for a type
D309             0 13343 ;   match or -128 for a type mismatch. Although characters have to be counted
D309             0 13344 ;   bit 7 of C will not alter from state set here.
D309 79          0 13346 ld a, c                 ; transfer $F6 or $80 to A
D30A 80          0 13347 add a, b                ; add 10
D30B 4F          0 13348 ld c, a                 ; place result, zero or -118, in C.
D30C             0 13350 ;   At this point we have either a type mismatch, a wildcard match or ten
D30C             0 13351 ;   characters to be counted. The characters must be shown on the screen.
D30C             0 13353 ;; LD-NAME
D30C             0 13354 LD_NAME:
D30C 13          0 13355 inc de                  ; address next input character
D30D 1A          0 13356 ld a, (de)              ; fetch character
D30E BE          0 13357 cp (hl)                 ; compare to expected
D30F 23          0 13358 inc hl                  ; address next expected character
D310 20 01       0 13359 jr nz, LD_CH_PR         ; forward to LD-CH-PR with mismatch
D312 0C          0 13361 inc c                   ; increment matched character count
D313             0 13363 ;; LD-CH-PR
D313             0 13364 LD_CH_PR:
D313 CD 78 CF    0 13365 call __PRINTCHAR        ; PRINT-A prints character
D316 10 F4       0 13366 djnz LD_NAME            ; loop back to LD-NAME for ten characters.
D318 CB 79       0 13368 bit 7, c                ; test if all matched
D31A 20 C0       0 13369 jr nz, LD_LOOK_H        ; back to LD-LOOK-H if not
D31C             0 13371 ;   else print a terminal carriage return.
D31C 3E 0D       0 13373 ld a, 0Dh               ; prepare carriage return.
D31E CD 78 CF    0 13374 call __PRINTCHAR        ; PRINT-A outputs it.
D321 3A 9A 5C    0 13376 ld a, (HEAD1)
D324 FE 03       0 13377 cp 03                   ; Only "bytes:" header is used un ZX BASIC
D326 20 B4       0 13378 jr nz, LD_LOOK_H
D328             0 13380 ; Ok, ready to check for bytes start and end
D328             0 13382 VR_CONTROL:
D328 DD 5E 0B    0 13383 ld e, (ix + 11)         ; fetch length of new data
D32B DD 56 0C    0 13384 ld d, (ix + 12)         ; to DE.
D32E 21 A5 5C    0 13386 ld hl, HEAD1 + 11
D331 7E          0 13387 ld a, (hl)              ; fetch length of old data (orig. header)
D332 23          0 13388 inc hl
D333 66          0 13389 ld h, (hl)              ; to HL
D334 6F          0 13390 ld l, a
D335 B4          0 13391 or h                    ; check length of old for zero. (Carry reset)
D336 28 04       0 13392 jr z, VR_CONT_1         ; forward to VR-CONT-1 if length unspecified
D338             0 13393 ; e.g. LOAD "x" CODE
D338 ED 52       0 13394 sbc hl, de
D33A 20 1E       0 13395 jr nz, LOAD_ERROR       ; Lenghts don't match
D33C             0 13397 VR_CONT_1:
D33C 21 A7 5C    0 13398 ld hl, HEAD1 + 13       ; fetch start of old data (orig. header)
D33F 7E          0 13399 ld a, (hl)
D340 23          0 13400 inc hl
D341 66          0 13401 ld h, (hl)
D342 6F          0 13402 ld l, a
D343 B4          0 13403 or h                    ; check start for zero (unespecified)
D344 20 06       0 13404 jr nz, VR_CONT_2        ; Jump if there was a start
D346 DD 6E 0D    0 13406 ld l, (ix + 13)         ; otherwise use destination in header
D349 DD 66 0E    0 13407 ld h, (ix + 14)         ; and load code at addr. saved from
D34C             0 13409 VR_CONT_2:
D34C E5          0 13410 push hl
D34D DD E1       0 13411 pop ix                  ; Transfer load addr to IX
D34F 3A 67 5C    0 13413 ld a, (TMP_FLAG)        ; load verify/load flag
D352 CB 2F       0 13414 sra a                   ; shift bit 0 to Carry (1 => Load, 0 = Verify), A = 0
D354 3D          0 13415 dec a                   ; a = 0xFF (Data)
D355 CD 56 05    0 13416 call LD_BYTES
D358 38 05       0 13417 jr c, LOAD_END         ; if carry, load/verification was ok
D35A             0 13419 LOAD_ERROR:
D35A             0 13420 ; Sets ERR_NR with Tape Loading, and returns
D35A 3E 1A       0 13421 ld a, ERROR_TapeLoadingErr
D35C 32 3A 5C    0 13422 ld (ERR_NR), a
D35F             0 13424 LOAD_END:
D35F DD E1       0 13425 pop ix                  ; Recovers stack frame pointer
D361 2A AB 5C    0 13426 ld hl, (TMP_HEADER)     ; Recovers tmp_header pointer
D364 C3 3D CD    0 13427 jp MEM_FREE             ; Returns via FREE_MEM, freeing tmp header
D367             0 13432 PRINT_TAPE_MESSAGES:
D367             0 13439 ; Print tape messages according to A value
D367             0 13440 ; Each message starts with a carriage return and
D367             0 13441 ; ends with last char having its bit 7 set
D367             0 13443 ; A = 0 => '\nProgram: '
D367             0 13444 ; A = 1 => '\nNumber array: '
D367             0 13445 ; A = 2 => '\nCharacter array: '
D367             0 13446 ; A = 3 => '\nBytes: '
D367 C5          0 13448 push bc
D368 21 C0 09    0 13450 ld hl, 09C0h            ; address base of last 4 tape messages
D36B 47          0 13451 ld b, a
D36C 04          0 13452 inc b                   ; avoid 256-loop if b == 0
D36D 3E 0D       0 13453 ld a, 0Dh               ; Msg start mark
D36F             0 13455 ; skip memory bytes looking for next tape msg entry
D36F             0 13456 ; each msg ends when 0Dh is fond
D36F             0 13457 LOOK_NEXT_TAPE_MSG:
D36F 23          0 13458 inc hl                  ; Point to next char
D370 BE          0 13459 cp (hl)                 ; Is it 0Dh?
D371 20 FC       0 13460 jr nz, LOOK_NEXT_TAPE_MSG
D373             0 13461 ; Ok next message found
D373 10 FA       0 13462 djnz LOOK_NEXT_TAPE_MSG ; Repeat if more msg to skip
D375             0 13464 PRINT_TAPE_MSG:
D375             0 13465 ; Ok. This will print bytes after (HL)
D375             0 13466 ; until one of them has bit 7 set
D375 7E          0 13467 ld a, (hl)
D376 E6 7F       0 13468 and 7Fh		    ; Clear bit 7 of A
D378 CD 78 CF    0 13469 call __PRINTCHAR
D37B 7E          0 13471 ld a, (hl)
D37C 23          0 13472 inc hl
D37D 87          0 13473 add a, a                ; Carry if A >= 128
D37E 30 F5       0 13474 jr nc, PRINT_TAPE_MSG
D380 C1          0 13476 pop bc
D381 C9          0 13477 ret
D382             0 13485 ; Loads a string (ptr) from HL
D382             0 13486 ; and duplicates it on dynamic memory again
D382             0 13487 ; Finally, it returns result pointer in HL
D382             0 13489 __ILOADSTR:		; This is the indirect pointer entry HL = (HL)
D382 7C          0 13490 ld a, h
D383 B5          0 13491 or l
D384 C8          0 13492 ret z
D385 7E          0 13493 ld a, (hl)
D386 23          0 13494 inc hl
D387 66          0 13495 ld h, (hl)
D388 6F          0 13496 ld l, a
D389             0 13498 __LOADSTR:		; __FASTCALL__ entry
D389 7C          0 13499 ld a, h
D38A B5          0 13500 or l
D38B C8          0 13501 ret z	; Return if NULL
D38C 4E          0 13503 ld c, (hl)
D38D 23          0 13504 inc hl
D38E 46          0 13505 ld b, (hl)
D38F 2B          0 13506 dec hl  ; BC = LEN(a$)
D390 03          0 13508 inc bc
D391 03          0 13509 inc bc	; BC = LEN(a$) + 2 (two bytes for length)
D392 E5          0 13511 push hl
D393 C5          0 13512 push bc
D394 CD 4C CC    0 13513 call __MEM_ALLOC
D397 C1          0 13514 pop bc  ; Recover length
D398 D1          0 13515 pop de  ; Recover origin
D399 7C          0 13517 ld a, h
D39A B5          0 13518 or l
D39B C8          0 13519 ret z	; Return if NULL (No memory)
D39C EB          0 13521 ex de, hl ; ldir takes HL as source, DE as destiny, so SWAP HL,DE
D39D D5          0 13522 push de	; Saves destiny start
D39E ED B0       0 13523 ldir	; Copies string (length number included)
D3A0 E1          0 13524 pop hl	; Recovers destiny in hl as result
D3A1 C9          0 13525 ret
D3A2             0 13531 __LEI8: ; Signed <= comparison for 8bit int
D3A2             0 13532 ; A <= H (registers)
D3A2 94          0 13535 sub h
D3A3 20 03       0 13536 jr nz, __LTI
D3A5 3C          0 13537 inc a
D3A6 C9          0 13538 ret
D3A7             0 13540 __LTI8:  ; Test 8 bit values A < H
D3A7 94          0 13541 sub h
D3A8             0 13543 __LTI:   ; Generic signed comparison
D3A8 E2 AD D3    0 13544 jp po, checkParity
D3AB EE 80       0 13545 xor 0x80
D3AD             0 13546 checkParity:
D3AD 3E 00       0 13547 ld a, 0     ; False
D3AF F0          0 13548 ret p
D3B0 3C          0 13549 inc a       ; True
D3B1 C9          0 13550 ret
D3B2             0 13554 __LTI16: ; Test 8 bit values HL < DE
D3B2             0 13555 ; Returns result in A: 0 = False, !0 = True
D3B2 B7          0 13558 or a
D3B3 ED 52       0 13559 sbc hl, de
D3B5 E2 BB D3    0 13560 jp po, checkParity
D3B8 7C          0 13561 ld a, h
D3B9 EE 80       0 13562 xor 0x80
D3BB             0 13563 checkParity:
D3BB 3E 00       0 13564 ld a, 0     ; False
D3BD F0          0 13565 ret p
D3BE 3C          0 13566 inc a       ; True
D3BF C9          0 13567 ret
D3C0             0 13572 __MUL8:		; Performs 8bit x 8bit multiplication
D3C0             0 13575 ;LOCAL __MUL8A
D3C0             0 13578 ; 1st operand (byte) in A, 2nd operand into the stack (AF)
D3C0 E1          0 13579 pop hl	; return address
D3C1 E3          0 13580 ex (sp), hl ; CALLE convention
D3C2             0 13582 ;;__MUL8_FAST: ; __FASTCALL__ entry
D3C2             0 13583 ;;	ld e, a
D3C2             0 13584 ;;	ld d, 0
D3C2             0 13585 ;;	ld l, d
D3C2             0 13586 ;;
D3C2             0 13587 ;;	sla h
D3C2             0 13588 ;;	jr nc, __MUL8A
D3C2             0 13589 ;;	ld l, e
D3C2             0 13590 ;;
D3C2             0 13591 ;;__MUL8A:
D3C2             0 13592 ;;
D3C2             0 13593 ;;	ld b, 7
D3C2             0 13594 ;;__MUL8LOOP:
D3C2             0 13595 ;;	add hl, hl
D3C2             0 13596 ;;	jr nc, __MUL8B
D3C2             0 13597 ;;
D3C2             0 13598 ;;	add hl, de
D3C2             0 13599 ;;
D3C2             0 13600 ;;__MUL8B:
D3C2             0 13601 ;;	djnz __MUL8LOOP
D3C2             0 13602 ;;
D3C2             0 13603 ;;	ld a, l ; result = A and HL  (Truncate to lower 8 bits)
D3C2             0 13605 __MUL8_FAST: ; __FASTCALL__ entry, a = a * h (8 bit mul) and Carry
D3C2 06 08       0 13607 ld b, 8
D3C4 6F          0 13608 ld l, a
D3C5 AF          0 13609 xor a
D3C6             0 13611 __MUL8LOOP:
D3C6 87          0 13612 add a, a ; a *= 2
D3C7 CB 25       0 13613 sla l
D3C9 D2 CD D3    0 13614 jp nc, __MUL8B
D3CC 84          0 13615 add a, h
D3CD             0 13617 __MUL8B:
D3CD 10 F7       0 13618 djnz __MUL8LOOP
D3CF C9          0 13620 ret		; result = HL
D3D0             0 13630 ; Calls PRINT_EOL and then COPY_ATTR, so saves
D3D0             0 13631 ; 3 bytes
D3D0             0 13636 PRINT_EOL_ATTR:
D3D0 CD 10 D0    0 13637 call PRINT_EOL
D3D3 C3 A7 D1    0 13638 jp COPY_ATTR
D3D6             0 13647 ; PRINT command routine
D3D6             0 13648 ; Prints string pointed by HL
D3D6             0 13650 PRINT_STR:
D3D6             0 13651 __PRINTSTR:		; __FASTCALL__ Entry to print_string
D3D6 57          0 13656 ld d, a ; Saves A reg (Flag) for later
D3D7 7C          0 13658 ld a, h
D3D8 B5          0 13659 or l
D3D9 C8          0 13660 ret z	; Return if the pointer is NULL
D3DA E5          0 13662 push hl
D3DB 4E          0 13664 ld c, (hl)
D3DC 23          0 13665 inc hl
D3DD 46          0 13666 ld b, (hl)
D3DE 23          0 13667 inc hl	; BC = LEN(a$); HL = &a$
D3DF             0 13669 __PRINT_STR_LOOP:
D3DF 78          0 13670 ld a, b
D3E0 B1          0 13671 or c
D3E1 28 09       0 13672 jr z, __PRINT_STR_END 	; END if BC (counter = 0)
D3E3 7E          0 13674 ld a, (hl)
D3E4 CD 78 CF    0 13675 call __PRINTCHAR
D3E7 23          0 13676 inc hl
D3E8 0B          0 13677 dec bc
D3E9 C3 DF D3    0 13678 jp __PRINT_STR_LOOP
D3EC             0 13680 __PRINT_STR_END:
D3EC E1          0 13681 pop hl
D3ED 7A          0 13682 ld a, d ; Recovers A flag
D3EE B7          0 13683 or a   ; If not 0 this is a temporary string. Free it
D3EF C8          0 13684 ret z
D3F0 C3 3D CD    0 13685 jp __MEM_FREE ; Frees str from heap and return from there
D3F3             0 13687 __PRINT_STR:
D3F3             0 13688 ; Fastcall Entry
D3F3             0 13689 ; It ONLY prints strings
D3F3             0 13690 ; HL = String start
D3F3             0 13691 ; BC = String length (Number of chars)
D3F3 E5          0 13692 push hl ; Push str address for later
D3F4 57          0 13693 ld d, a ; Saves a FLAG
D3F5 C3 DF D3    0 13694 jp __PRINT_STR_LOOP
D3F8             0 13701 ; vim:ts=4:et:sw=4
D3F8             0 13702 ;
D3F8             0 13703 ; Stores an string (pointer to the HEAP by DE) into the address pointed
D3F8             0 13704 ; by (IX + BC). A new copy of the string is created into the HEAP
D3F8             0 13705 ;
D3F8             0 13709 ; vim:ts=4:et:sw=4
D3F8             0 13710 ; Stores value of current string pointed by DE register into address pointed by HL
D3F8             0 13711 ; Returns DE = Address pointer  (&a$)
D3F8             0 13712 ; Returns HL = HL               (b$ => might be needed later to free it from the heap)
D3F8             0 13713 ;
D3F8             0 13714 ; e.g. => HL = _variableName    (DIM _variableName$)
D3F8             0 13715 ;         DE = Address into the HEAP
D3F8             0 13716 ;
D3F8             0 13717 ; This function will resize (REALLOC) the space pointed by HL
D3F8             0 13718 ; before copying the content of b$ into a$
D3F8             0 13725 ; vim: ts=4:et:sw=4:
D3F8             0 13726 ; Copyleft (K) by Jose M. Rodriguez de la Rosa
D3F8             0 13727 ;  (a.k.a. Boriel)
D3F8             0 13728 ;  http://www.boriel.com
D3F8             0 13729 ;
D3F8             0 13730 ; This ASM library is licensed under the BSD license
D3F8             0 13731 ; you can use it for any purpose (even for commercial
D3F8             0 13732 ; closed source programs).
D3F8             0 13733 ;
D3F8             0 13734 ; Please read the BSD license on the internet
D3F8             0 13736 ; ----- IMPLEMENTATION NOTES ------
D3F8             0 13737 ; The heap is implemented as a linked list of free blocks.
D3F8             0 13739 ; Each free block contains this info:
D3F8             0 13740 ;
D3F8             0 13741 ; +----------------+ <-- HEAP START
D3F8             0 13742 ; | Size (2 bytes) |
D3F8             0 13743 ; |        0       | <-- Size = 0 => DUMMY HEADER BLOCK
D3F8             0 13744 ; +----------------+
D3F8             0 13745 ; | Next (2 bytes) |---+
D3F8             0 13746 ; +----------------+ <-+
D3F8             0 13747 ; | Size (2 bytes) |
D3F8             0 13748 ; +----------------+
D3F8             0 13749 ; | Next (2 bytes) |---+
D3F8             0 13750 ; +----------------+   |
D3F8             0 13751 ; | <free bytes...>|   | <-- If Size > 4, then this contains (size - 4) bytes
D3F8             0 13752 ; | (0 if Size = 4)|   |
D3F8             0 13753 ; +----------------+ <-+
D3F8             0 13754 ; | Size (2 bytes) |
D3F8             0 13755 ; +----------------+
D3F8             0 13756 ; | Next (2 bytes) |---+
D3F8             0 13757 ; +----------------+   |
D3F8             0 13758 ; | <free bytes...>|   |
D3F8             0 13759 ; | (0 if Size = 4)|   |
D3F8             0 13760 ; +----------------+   |
D3F8             0 13761 ;   <Allocated>        | <-- This zone is in use (Already allocated)
D3F8             0 13762 ; +----------------+ <-+
D3F8             0 13763 ; | Size (2 bytes) |
D3F8             0 13764 ; +----------------+
D3F8             0 13765 ; | Next (2 bytes) |---+
D3F8             0 13766 ; +----------------+   |
D3F8             0 13767 ; | <free bytes...>|   |
D3F8             0 13768 ; | (0 if Size = 4)|   |
D3F8             0 13769 ; +----------------+ <-+
D3F8             0 13770 ; | Next (2 bytes) |--> NULL => END OF LIST
D3F8             0 13771 ; |    0 = NULL    |
D3F8             0 13772 ; +----------------+
D3F8             0 13773 ; | <free bytes...>|
D3F8             0 13774 ; | (0 if Size = 4)|
D3F8             0 13775 ; +----------------+
D3F8             0 13778 ; When a block is FREED, the previous and next pointers are examined to see
D3F8             0 13779 ; if we can defragment the heap. If the block to be breed is just next to the
D3F8             0 13780 ; previous, or to the next (or both) they will be converted into a single
D3F8             0 13781 ; block (so defragmented).
D3F8             0 13784 ;   MEMORY MANAGER
D3F8             0 13785 ;
D3F8             0 13786 ; This library must be initialized calling __MEM_INIT with
D3F8             0 13787 ; HL = BLOCK Start & DE = Length.
D3F8             0 13789 ; An init directive is useful for initialization routines.
D3F8             0 13790 ; They will be added automatically if needed.
D3F8             0 13798 ; ---------------------------------------------------------------------
D3F8             0 13799 ; MEM_REALLOC
D3F8             0 13800 ;  Reallocates a block of memory in the heap.
D3F8             0 13801 ;
D3F8             0 13802 ; Parameters
D3F8             0 13803 ;  HL = Pointer to the original block
D3F8             0 13804 ;  BC = New Length of requested memory block
D3F8             0 13805 ;
D3F8             0 13806 ; Returns:
D3F8             0 13807 ;  HL = Pointer to the allocated block in memory. Returns 0 (NULL)
D3F8             0 13808 ;       if the block could not be allocated (out of memory)
D3F8             0 13809 ;
D3F8             0 13810 ; Notes:
D3F8             0 13811 ;  If BC = 0, the block is freed, otherwise
D3F8             0 13812 ;  the content of the original block is copied to the new one, and
D3F8             0 13813 ;  the new size is adjusted. If BC < original length, the content
D3F8             0 13814 ;  will be truncated. Otherwise, extra block content might contain
D3F8             0 13815 ;  memory garbage.
D3F8             0 13816 ;
D3F8             0 13817 ; ---------------------------------------------------------------------
D3F8             0 13818 __REALLOC:    ; Reallocates block pointed by HL, with new length BC
D3F8 7C          0 13823 ld a, h
D3F9 B5          0 13824 or l
D3FA CA 4C CC    0 13825 jp z, __MEM_ALLOC    ; If HL == NULL, just do a malloc
D3FD 5E          0 13827 ld e, (hl)
D3FE 23          0 13828 inc hl
D3FF 56          0 13829 ld d, (hl)    ; DE = First 2 bytes of HL block
D400 E5          0 13831 push hl
D401 D9          0 13832 exx
D402 D1          0 13833 pop de
D403 13          0 13834 inc de        ; DE' <- HL + 2
D404 D9          0 13835 exx            ; DE' <- HL (Saves current pointer into DE')
D405 2B          0 13837 dec hl        ; HL = Block start
D406 D5          0 13839 push de
D407 C5          0 13840 push bc
D408 CD 3D CD    0 13841 call __MEM_FREE        ; Frees current block
D40B C1          0 13842 pop bc
D40C C5          0 13843 push bc
D40D CD 4C CC    0 13844 call __MEM_ALLOC    ; Gets a new block of length BC
D410 C1          0 13845 pop bc
D411 D1          0 13846 pop de
D412 7C          0 13848 ld a, h
D413 B5          0 13849 or l
D414 C8          0 13850 ret z        ; Return if HL == NULL (No memory)
D415 73          0 13852 ld (hl), e
D416 23          0 13853 inc hl
D417 72          0 13854 ld (hl), d
D418 23          0 13855 inc hl        ; Recovers first 2 bytes in HL
D419 0B          0 13857 dec bc
D41A 0B          0 13858 dec bc        ; BC = BC - 2 (Two bytes copied)
D41B 78          0 13860 ld a, b
D41C B1          0 13861 or c
D41D CA 29 D4    0 13862 jp z, __REALLOC_END        ; Ret if nothing to copy (BC == 0)
D420 D9          0 13864 exx
D421 D5          0 13865 push de
D422 D9          0 13866 exx
D423 D1          0 13867 pop de        ; DE <- DE' ; Start of remaining block
D424 E5          0 13869 push hl        ; Saves current Block + 2 start
D425 EB          0 13870 ex de, hl    ; Exchanges them: DE is destiny block
D426 ED B0       0 13871 ldir        ; Copies BC Bytes
D428 E1          0 13872 pop hl        ; Recovers Block + 2 start
D429             0 13874 __REALLOC_END:
D429 2B          0 13876 dec hl        ; Set HL
D42A 2B          0 13877 dec hl        ; To begin of block
D42B C9          0 13878 ret
D42C             0 13884 ; String library
D42C             0 13887 __STRASSIGN: ; Performs a$ = b$ (HL = address of a$; DE = Address of b$)
D42C 42          0 13895 ld b, d
D42D 4B          0 13896 ld c, e
D42E 78          0 13897 ld a, b
D42F B1          0 13898 or c
D430 28 06       0 13899 jr z, __B_IS_NULL
D432 EB          0 13901 ex de, hl
D433 4E          0 13902 ld c, (hl)
D434 23          0 13903 inc hl
D435 46          0 13904 ld b, (hl)
D436 2B          0 13905 dec hl		; BC = LEN(b$)
D437 EB          0 13906 ex de, hl	; DE = &b$
D438             0 13908 __B_IS_NULL:		; Jumps here if B$ pointer is NULL
D438 03          0 13909 inc bc
D439 03          0 13910 inc bc		; BC = BC + 2  ; (LEN(b$) + 2 bytes for storing length)
D43A D5          0 13912 push de
D43B E5          0 13913 push hl
D43C 7C          0 13915 ld a, h
D43D B5          0 13916 or l
D43E 28 16       0 13917 jr z, __STRREALLOC
D440 2B          0 13919 dec hl
D441 56          0 13920 ld d, (hl)
D442 2B          0 13921 dec hl
D443 5E          0 13922 ld e, (hl)	; DE = MEMBLOCKSIZE(a$)
D444 1B          0 13923 dec de
D445 1B          0 13924 dec de		; DE = DE - 2  ; (Membloksize takes 2 bytes for memblock length)
D446 60          0 13926 ld h, b
D447 69          0 13927 ld l, c		; HL = LEN(b$) + 2  => Minimum block size required
D448 EB          0 13928 ex de, hl	; Now HL = BLOCKSIZE(a$), DE = LEN(b$) + 2
D449 B7          0 13930 or a		; Prepare to subtract BLOCKSIZE(a$) - LEN(b$)
D44A ED 52       0 13931 sbc hl, de  ; Carry if len(b$) > Blocklen(a$)
D44C 38 08       0 13932 jr c, __STRREALLOC ; No need to realloc
D44E             0 13933 ; Need to reallocate at least to len(b$) + 2
D44E EB          0 13934 ex de, hl	; DE = Remaining bytes in a$ mem block.
D44F 21 04 00    0 13935 ld hl, 4
D452 ED 52       0 13936 sbc hl, de  ; if remaining bytes < 4 we can continue
D454 30 05       0 13937 jr nc,__STRCONTINUE ; Otherwise, we realloc, to free some bytes
D456             0 13939 __STRREALLOC:
D456 E1          0 13940 pop hl
D457 CD F8 D3    0 13941 call __REALLOC	; Returns in HL a new pointer with BC bytes allocated
D45A E5          0 13942 push hl
D45B             0 13944 __STRCONTINUE:	;   Pops hl and de SWAPPED
D45B D1          0 13945 pop de	;	DE = &a$
D45C E1          0 13946 pop hl	; 	HL = &b$
D45D 7A          0 13948 ld a, d		; Return if not enough memory for new length
D45E B3          0 13949 or e
D45F C8          0 13950 ret z		; Return if DE == NULL (0)
D460             0 13952 __STRCPY:	; Copies string pointed by HL into string pointed by DE
D460             0 13953 ; Returns DE as HL (new pointer)
D460 7C          0 13954 ld a, h
D461 B5          0 13955 or l
D462 28 0B       0 13956 jr z, __NOTHING_TO_COPY
D464 4E          0 13957 ld c, (hl)
D465 23          0 13958 inc hl
D466 46          0 13959 ld b, (hl)
D467 2B          0 13960 dec hl
D468 03          0 13961 inc bc
D469 03          0 13962 inc bc
D46A D5          0 13963 push de
D46B ED B0       0 13964 ldir
D46D E1          0 13965 pop hl
D46E C9          0 13966 ret
D46F             0 13968 __NOTHING_TO_COPY:
D46F EB          0 13969 ex de, hl
D470 73          0 13970 ld (hl), e
D471 23          0 13971 inc hl
D472 72          0 13972 ld (hl), d
D473 2B          0 13973 dec hl
D474 C9          0 13974 ret
D475             0 13980 __PISTORE_STR:          ; Indirect assignement at (IX + BC)
D475 DD E5       0 13981 push ix
D477 E1          0 13982 pop hl
D478 09          0 13983 add hl, bc
D479             0 13985 __ISTORE_STR:           ; Indirect assignement, hl point to a pointer to a pointer to the heap!
D479 4E          0 13986 ld c, (hl)
D47A 23          0 13987 inc hl
D47B 66          0 13988 ld h, (hl)
D47C 69          0 13989 ld l, c             ; HL = (HL)
D47D             0 13991 __STORE_STR:
D47D D5          0 13992 push de             ; Pointer to b$
D47E E5          0 13993 push hl             ; Array pointer to variable memory address
D47F 4E          0 13995 ld c, (hl)
D480 23          0 13996 inc hl
D481 66          0 13997 ld h, (hl)
D482 69          0 13998 ld l, c             ; HL = (HL)
D483 CD 2C D4    0 14000 call __STRASSIGN    ; HL (a$) = DE (b$); HL changed to a new dynamic memory allocation
D486 EB          0 14001 ex de, hl           ; DE = new address of a$
D487 E1          0 14002 pop hl              ; Recover variable memory address pointer
D488 73          0 14004 ld (hl), e
D489 23          0 14005 inc hl
D48A 72          0 14006 ld (hl), d          ; Stores a$ ptr into elemem ptr
D48B E1          0 14008 pop hl              ; Returns ptr to b$ in HL (Caller might needed to free it from memory)
D48C C9          0 14009 ret
D48D             0 14013 __PSTORE_STR:
D48D DD E5       0 14014 push ix
D48F E1          0 14015 pop hl
D490 09          0 14016 add hl, bc
D491 C3 7D D4    0 14017 jp __STORE_STR
D494             0 14022 ; vim:ts=4:et:sw=4
D494             0 14023 ;
D494             0 14024 ; Stores an string (pointer to the HEAP by DE) into the address pointed
D494             0 14025 ; by (IX + BC). No new copy of the string is created into the HEAP, since
D494             0 14026 ; it's supposed it's already created (temporary string)
D494             0 14027 ;
D494             0 14031 ; Similar to __STORE_STR, but this one is called when
D494             0 14032 ; the value of B$ if already duplicated onto the stack.
D494             0 14033 ; So we needn't call STRASSING to create a duplication
D494             0 14034 ; HL = address of string memory variable
D494             0 14035 ; DE = address of 2n string. It just copies DE into (HL)
D494             0 14036 ; 	freeing (HL) previously.
D494             0 14040 __PISTORE_STR2: ; Indirect store temporary string at (IX + BC)
D494 DD E5       0 14041 push ix
D496 E1          0 14042 pop hl
D497 09          0 14043 add hl, bc
D498             0 14045 __ISTORE_STR2:
D498 4E          0 14046 ld c, (hl)  ; Dereferences HL
D499 23          0 14047 inc hl
D49A 66          0 14048 ld h, (hl)
D49B 69          0 14049 ld l, c		; HL = *HL (real string variable address)
D49C             0 14051 __STORE_STR2:
D49C E5          0 14052 push hl
D49D 4E          0 14053 ld c, (hl)
D49E 23          0 14054 inc hl
D49F 66          0 14055 ld h, (hl)
D4A0 69          0 14056 ld l, c		; HL = *HL (real string address)
D4A1 D5          0 14058 push de
D4A2 CD 3D CD    0 14059 call __MEM_FREE
D4A5 D1          0 14060 pop de
D4A6 E1          0 14062 pop hl
D4A7 73          0 14063 ld (hl), e
D4A8 23          0 14064 inc hl
D4A9 72          0 14065 ld (hl), d
D4AA 2B          0 14066 dec hl		; HL points to mem address variable. This might be useful in the future.
D4AB C9          0 14068 ret
D4AC             0 14072 __PSTORE_STR2:
D4AC DD E5       0 14073 push ix
D4AE E1          0 14074 pop hl
D4AF 09          0 14075 add hl, bc
D4B0 C3 9C D4    0 14076 jp __STORE_STR2
D4B3             0 14083 ; -------------------------------------------------------------
D4B3             0 14084 ; Functions to manage FP-Stack of the ZX Spectrum ROM CALC
D4B3             0 14085 ; -------------------------------------------------------------
D4B3             0 14088 __FPSTACK_PUSH EQU 2AB6h	; Stores an FP number into the ROM FP stack (A, ED CB)
D4B3             0 14089 __FPSTACK_POP  EQU 2BF1h	; Pops an FP number out of the ROM FP stack (A, ED CB)
D4B3             0 14091 __FPSTACK_PUSH2: ; Pushes Current A ED CB registers and top of the stack on (SP + 4)
D4B3             0 14092 ; Second argument to push into the stack calculator is popped out of the stack
D4B3             0 14093 ; Since the caller routine also receives the parameters into the top of the stack
D4B3             0 14094 ; four bytes must be removed from SP before pop them out
D4B3 CD B6 2A    0 14096 call __FPSTACK_PUSH ; Pushes A ED CB into the FP-STACK
D4B6 D9          0 14097 exx
D4B7 E1          0 14098 pop hl       ; Caller-Caller return addr
D4B8 D9          0 14099 exx
D4B9 E1          0 14100 pop hl       ; Caller return addr
D4BA F1          0 14102 pop af
D4BB D1          0 14103 pop de
D4BC C1          0 14104 pop bc
D4BD E5          0 14106 push hl      ; Caller return addr
D4BE D9          0 14107 exx
D4BF E5          0 14108 push hl      ; Caller-Caller return addr
D4C0 D9          0 14109 exx
D4C1 C3 B6 2A    0 14111 jp __FPSTACK_PUSH
D4C4             0 14114 __FPSTACK_I16:	; Pushes 16 bits integer in HL into the FP ROM STACK
D4C4             0 14115 ; This format is specified in the ZX 48K Manual
D4C4             0 14116 ; You can push a 16 bit signed integer as
D4C4             0 14117 ; 0 SS LL HH 0, being SS the sign and LL HH the low
D4C4             0 14118 ; and High byte respectively
D4C4 7C          0 14119 ld a, h
D4C5 17          0 14120 rla			; sign to Carry
D4C6 9F          0 14121 sbc	a, a	; 0 if positive, FF if negative
D4C7 5F          0 14122 ld e, a
D4C8 55          0 14123 ld d, l
D4C9 4C          0 14124 ld c, h
D4CA AF          0 14125 xor a
D4CB 47          0 14126 ld b, a
D4CC C3 B6 2A    0 14127 jp __FPSTACK_PUSH
D4CF             0 14131 ; The STR$( ) BASIC function implementation
D4CF             0 14133 ; Given a FP number in C ED LH
D4CF             0 14134 ; Returns a pointer (in HL) to the memory heap
D4CF             0 14135 ; containing the FP number string representation
D4CF             0 14141 __STR:
D4CF             0 14143 __STR_FAST:
D4CF 2A 65 5C    0 14150 ld hl, (STK_END)
D4D2 E5          0 14151 push hl; Stores STK_END
D4D3 2A 8F 5C    0 14152 ld hl, (ATTR_T)	; Saves ATTR_T since it's changed by STR$ due to a ROM BUG
D4D6 E5          0 14153 push hl
D4D7 CD B6 2A    0 14155 call __FPSTACK_PUSH ; Push number into stack
D4DA EF          0 14156 rst 28h		; # Rom Calculator
D4DB 2E          0 14157 defb 2Eh	; # STR$(x)
D4DC 38          0 14158 defb 38h	; # END CALC
D4DD CD F1 2B    0 14159 call __FPSTACK_POP ; Recovers string parameters to A ED CB (Only ED LH are important)
D4E0 E1          0 14161 pop hl
D4E1 22 8F 5C    0 14162 ld (ATTR_T), hl	; Restores ATTR_T
D4E4 E1          0 14163 pop hl
D4E5 22 65 5C    0 14164 ld (STK_END), hl	; Balance STK_END to avoid STR$ bug
D4E8 C5          0 14166 push bc
D4E9 D5          0 14167 push de
D4EA 03          0 14169 inc bc
D4EB 03          0 14170 inc bc
D4EC CD 4C CC    0 14171 call __MEM_ALLOC ; HL Points to new block
D4EF D1          0 14173 pop de
D4F0 C1          0 14174 pop bc
D4F1 E5          0 14176 push hl
D4F2 7C          0 14177 ld a, h
D4F3 B5          0 14178 or l
D4F4 28 0B       0 14179 jr z, __STR_END  ; Return if NO MEMORY (NULL)
D4F6 C5          0 14181 push bc
D4F7 D5          0 14182 push de
D4F8 71          0 14183 ld (hl), c
D4F9 23          0 14184 inc hl
D4FA 70          0 14185 ld (hl), b
D4FB 23          0 14186 inc hl		; Copies length
D4FC EB          0 14188 ex de, hl	; HL = start of original string
D4FD ED B0       0 14189 ldir		; Copies string content
D4FF D1          0 14191 pop de		; Original (ROM-CALC) string
D500 C1          0 14192 pop bc		; Original Length
D501             0 14194 __STR_END:
D501 EB          0 14195 ex de, hl
D502 03          0 14196 inc bc
D503 CD E8 19    0 14198 call RECLAIM2 ; Frees TMP Memory
D506 E1          0 14199 pop hl		  ; String result
D507 C9          0 14201 ret
D508             0 14203 RECLAIM2 EQU 19E8h
D508             0 14204 STK_END EQU 5C65h
D508             0 14214 ; Returns len if a string
D508             0 14215 ; If a string is NULL, its len is also 0
D508             0 14216 ; Result returned in HL
D508             0 14218 __STRLEN:	; Direct FASTCALL entry
D508 7C          0 14219 ld a, h
D509 B5          0 14220 or l
D50A C8          0 14221 ret z
D50B 7E          0 14223 ld a, (hl)
D50C 23          0 14224 inc hl
D50D 66          0 14225 ld h, (hl)  ; LEN(str) in HL
D50E 6F          0 14226 ld l, a
D50F C9          0 14227 ret
D510             0 14232 __ADDSTR:	; Implements c$ = a$ + b$
D510             0 14233 ; hl = &a$, de = &b$ (pointers)
D510             0 14236 __STRCAT2:	; This routine creates a new string in dynamic space
D510             0 14237 ; making room for it. Then copies a$ + b$ into it.
D510             0 14238 ; HL = a$, DE = b$
D510 E5          0 14245 push hl
D511 CD 08 D5    0 14246 call __STRLEN
D514 4D          0 14247 ld c, l
D515 44          0 14248 ld b, h		; BC = LEN(a$)
D516 E3          0 14249 ex (sp), hl ; (SP) = LEN (a$), HL = a$
D517 E5          0 14250 push hl		; Saves pointer to a$
D518 03          0 14252 inc bc
D519 03          0 14253 inc bc		; +2 bytes to store length
D51A EB          0 14255 ex de, hl
D51B E5          0 14256 push hl
D51C CD 08 D5    0 14257 call __STRLEN
D51F             0 14258 ; HL = len(b$)
D51F 09          0 14260 add hl, bc	; Total str length => 2 + len(a$) + len(b$)
D520 4D          0 14262 ld c, l
D521 44          0 14263 ld b, h		; BC = Total str length + 2
D522 CD 4C CC    0 14264 call __MEM_ALLOC
D525 D1          0 14265 pop de		; HL = c$, DE = b$
D526 EB          0 14267 ex de, hl	; HL = b$, DE = c$
D527 E3          0 14268 ex (sp), hl ; HL = a$, (SP) = b$
D528 D9          0 14270 exx
D529 D1          0 14271 pop de		; D'E' = b$
D52A D9          0 14272 exx
D52B C1          0 14274 pop bc		; LEN(a$)
D52C 7A          0 14276 ld a, d
D52D B3          0 14277 or e
D52E C8          0 14278 ret z		; If no memory: RETURN
D52F             0 14280 __STR_CONT:
D52F D5          0 14281 push de		; Address of c$
D530 7C          0 14283 ld a, h
D531 B5          0 14284 or l
D532 20 05       0 14285 jr nz, __STR_CONT1 ; If len(a$) != 0 do copy
D534             0 14287 ; a$ is NULL => uses HL = DE for transfer
D534 62          0 14288 ld h, d
D535 6B          0 14289 ld l, e
D536 77          0 14290 ld (hl), a	; This will copy 00 00 at (DE) location
D537 13          0 14291 inc de      ;
D538 0B          0 14292 dec bc      ; Ensure BC will be set to 1 in the next step
D539             0 14294 __STR_CONT1:        ; Copies a$ (HL) into c$ (DE)
D539 03          0 14295 inc bc
D53A 03          0 14296 inc bc		; BC = BC + 2
D53B ED B0       0 14297 ldir		; MEMCOPY: c$ = a$
D53D E1          0 14298 pop hl		; HL = c$
D53E D9          0 14300 exx
D53F D5          0 14301 push de		; Recovers b$; A ex hl,hl' would be very handy
D540 D9          0 14302 exx
D541 D1          0 14304 pop de		; DE = b$
D542             0 14306 __STRCAT: ; ConCATenate two strings a$ = a$ + b$. HL = ptr to a$, DE = ptr to b$
D542             0 14307 ; NOTE: Both DE, BC and AF are modified and lost
D542             0 14308 ; Returns HL (pointer to a$)
D542             0 14309 ; a$ Must be NOT NULL
D542 7A          0 14310 ld a, d
D543 B3          0 14311 or e
D544 C8          0 14312 ret z		; Returns if de is NULL (nothing to copy)
D545 E5          0 14314 push hl		; Saves HL to return it later
D546 4E          0 14316 ld c, (hl)
D547 23          0 14317 inc hl
D548 46          0 14318 ld b, (hl)
D549 23          0 14319 inc hl
D54A 09          0 14320 add hl, bc	; HL = end of (a$) string ; bc = len(a$)
D54B C5          0 14321 push bc		; Saves LEN(a$) for later
D54C EB          0 14323 ex de, hl	; DE = end of string (Begin of copy addr)
D54D 4E          0 14324 ld c, (hl)
D54E 23          0 14325 inc hl
D54F 46          0 14326 ld b, (hl)	; BC = len(b$)
D550 78          0 14328 ld a, b
D551 B1          0 14329 or c
D552 28 0E       0 14330 jr z, __STRCATEND; Return if len(b$) == 0
D554 C5          0 14332 push bc			 ; Save LEN(b$)
D555 23          0 14333 inc hl			 ; Skip 2nd byte of len(b$)
D556 ED B0       0 14334 ldir			 ; Concatenate b$
D558 C1          0 14336 pop bc			 ; Recovers length (b$)
D559 E1          0 14337 pop hl			 ; Recovers length (a$)
D55A 09          0 14338 add hl, bc		 ; HL = LEN(a$) + LEN(b$) = LEN(a$+b$)
D55B EB          0 14339 ex de, hl		 ; DE = LEN(a$+b$)
D55C E1          0 14340 pop hl
D55D 73          0 14342 ld (hl), e		 ; Updates new LEN and return
D55E 23          0 14343 inc hl
D55F 72          0 14344 ld (hl), d
D560 2B          0 14345 dec hl
D561 C9          0 14346 ret
D562             0 14348 __STRCATEND:
D562 E1          0 14349 pop hl		; Removes Len(a$)
D563 E1          0 14350 pop hl		; Restores original HL, so HL = a$
D564 C9          0 14351 ret
D565             0 14358 ; This routine is called if --strict-boolean was set at the command line.
D565             0 14359 ; It will make any boolean result to be always 0 or 1
D565             0 14361 __NORMALIZE_BOOLEAN:
D565 B7          0 14362 or a
D566 C8          0 14363 ret z
D567 3E 01       0 14364 ld a, 1
D569 C9          0 14365 ret
D56A             0 14371 ; String slicing library
D56A             0 14372 ; HL = Str pointer
D56A             0 14373 ; DE = String start
D56A             0 14374 ; BC = String character end
D56A             0 14375 ; A register => 0 => the HL pointer wont' be freed from the HEAP
D56A             0 14376 ; e.g. a$(5 TO 10) => HL = a$; DE = 5; BC = 10
D56A             0 14378 ; This implements a$(X to Y) being X and Y first and
D56A             0 14379 ; last characters respectively. If X > Y, NULL is returned
D56A             0 14381 ; Otherwise returns a pointer to a$ FROM X to Y (starting from 0)
D56A             0 14382 ; if Y > len(a$), then a$ will be padded with spaces (reallocating
D56A             0 14383 ; it in dynamic memory if needed). Returns pointer (HL) to resulting
D56A             0 14384 ; string. NULL (0) if no memory for padding.
D56A             0 14385 ;
D56A             0 14391 __STRSLICE:			; Callee entry
D56A E1          0 14392 pop hl			; Return ADDRESS
D56B C1          0 14393 pop bc			; Last char pos
D56C D1          0 14394 pop de			; 1st char pos
D56D E3          0 14395 ex (sp), hl		; CALLEE. -> String start
D56E             0 14397 __STRSLICE_FAST:	; __FASTCALL__ Entry
D56E E5          0 14404 push hl			; Stores original HL pointer to be recovered on exit
D56F 08          0 14405 ex af, af'		; Saves A register for later
D570 E5          0 14407 push hl
D571 CD 08 D5    0 14408 call __STRLEN
D574 03          0 14409 inc bc			; Last character position + 1 (string starts from 0)
D575 B7          0 14410 or a
D576 ED 42       0 14411 sbc hl, bc		; Compares length with last char position
D578 30 04       0 14412 jr nc, __CONT	; If Carry => We must copy to end of string
D57A 09          0 14413 add hl, bc		; Restore back original LEN(a$) in HL
D57B 44          0 14414 ld b, h
D57C 4D          0 14415 ld c, l			; Copy to the end of str
D57D 3F          0 14416 ccf				; Clears Carry flag for next subtraction
D57E             0 14418 __CONT:
D57E 60          0 14419 ld h, b
D57F 69          0 14420 ld l, c			; HL = Last char position to copy (1 for char 0, 2 for char 1, etc)
D580 ED 52       0 14421 sbc hl, de		; HL = LEN(a$) - DE => Number of chars to copy
D582 28 25       0 14422 jr z, __EMPTY	; 0 Chars to copy => Return HL = 0 (NULL STR)
D584 38 23       0 14423 jr c, __EMPTY	; If Carry => Nothing to return (NULL STR)
D586 44          0 14425 ld b, h
D587 4D          0 14426 ld c, l			; BC = Number of chars to copy
D588 03          0 14427 inc bc
D589 03          0 14428 inc bc			; +2 bytes for string length number
D58A C5          0 14430 push bc
D58B D5          0 14431 push de
D58C CD 4C CC    0 14432 call __MEM_ALLOC
D58F D1          0 14433 pop de
D590 C1          0 14434 pop bc
D591 7C          0 14435 ld a, h
D592 B5          0 14436 or l
D593 28 14       0 14437 jr z, __EMPTY	; Return if NULL (no memory)
D595 0B          0 14439 dec bc
D596 0B          0 14440 dec bc			; Number of chars to copy (Len of slice)
D597 71          0 14442 ld (hl), c
D598 23          0 14443 inc hl
D599 70          0 14444 ld (hl), b
D59A 23          0 14445 inc hl			; Stores new string length
D59B E3          0 14447 ex (sp), hl		; Pointer to A$ now in HL; Pointer to new string chars in Stack
D59C 23          0 14448 inc hl
D59D 23          0 14449 inc hl			; Skip string length
D59E 19          0 14450 add hl, de		; Were to start from A$
D59F D1          0 14451 pop de			; Start of new string chars
D5A0 D5          0 14452 push de			; Stores it again
D5A1 ED B0       0 14453 ldir			; Copies BC chars
D5A3 D1          0 14454 pop de
D5A4 1B          0 14455 dec de
D5A5 1B          0 14456 dec de			; Points to String LEN start
D5A6 EB          0 14457 ex de, hl		; Returns it in HL
D5A7 18 04       0 14458 jr __FREE_ON_EXIT
D5A9             0 14460 __EMPTY:			; Return NULL (empty) string
D5A9 E1          0 14461 pop hl
D5AA 21 00 00    0 14462 ld hl, 0		; Return NULL
D5AD             0 14465 __FREE_ON_EXIT:
D5AD 08          0 14466 ex af, af'		; Recover original A register
D5AE E3          0 14467 ex (sp), hl		; Original HL pointer
D5AF B7          0 14469 or a
D5B0 C4 3D CD    0 14470 call nz, __MEM_FREE
D5B3 E1          0 14472 pop hl			; Recover result
D5B4 C9          0 14473 ret
D5B5             0 14482 __ABS32:
D5B5 CB 7A       0 14483 bit 7, d
D5B7 C8          0 14484 ret z
D5B8             0 14486 __NEG32: ; Negates DEHL (Two's complement)
D5B8 7D          0 14487 ld a, l
D5B9 2F          0 14488 cpl
D5BA 6F          0 14489 ld l, a
D5BB 7C          0 14491 ld a, h
D5BC 2F          0 14492 cpl
D5BD 67          0 14493 ld h, a
D5BE 7B          0 14495 ld a, e
D5BF 2F          0 14496 cpl
D5C0 5F          0 14497 ld e, a
D5C1 7A          0 14499 ld a, d
D5C2 2F          0 14500 cpl
D5C3 57          0 14501 ld d, a
D5C4 2C          0 14503 inc l
D5C5 C0          0 14504 ret nz
D5C6 24          0 14506 inc h
D5C7 C0          0 14507 ret nz
D5C8 13          0 14509 inc de
D5C9 C9          0 14510 ret
D5CA             0 14513 __I8TOFREG:
D5CA 6F          0 14514 ld l, a
D5CB 07          0 14515 rlca
D5CC 9F          0 14516 sbc a, a	; A = SGN(A)
D5CD 67          0 14517 ld h, a
D5CE 5F          0 14518 ld e, a
D5CF 57          0 14519 ld d, a
D5D0             0 14521 __I32TOFREG:	; Converts a 32bit signed integer (stored in DEHL)
D5D0             0 14522 ; to a Floating Point Number returned in (A ED CB)
D5D0 7A          0 14524 ld a, d
D5D1 B7          0 14525 or a		; Test sign
D5D2 F2 E3 D5    0 14527 jp p, __U32TOFREG	; It was positive, proceed as 32bit unsigned
D5D5 CD B8 D5    0 14529 call __NEG32		; Convert it to positive
D5D8 CD E3 D5    0 14530 call __U32TOFREG	; Convert it to Floating point
D5DB CB FB       0 14532 set 7, e			; Put the sign bit (negative) in the 31bit of mantissa
D5DD C9          0 14533 ret
D5DE             0 14535 __U8TOFREG:
D5DE             0 14536 ; Converts an unsigned 8 bit (A) to Floating point
D5DE 6F          0 14537 ld l, a
D5DF 26 00       0 14538 ld h, 0
D5E1 5C          0 14539 ld e, h
D5E2 54          0 14540 ld d, h
D5E3             0 14542 __U32TOFREG:	; Converts an unsigned 32 bit integer (DEHL)
D5E3             0 14543 ; to a Floating point number returned in A ED CB
D5E3 7A          0 14549 ld a, d
D5E4 B3          0 14550 or e
D5E5 B4          0 14551 or h
D5E6 B5          0 14552 or l
D5E7 42          0 14553 ld b, d
D5E8 4B          0 14554 ld c, e		; Returns 00 0000 0000 if ZERO
D5E9 C8          0 14555 ret z
D5EA D5          0 14557 push de
D5EB E5          0 14558 push hl
D5EC D9          0 14560 exx
D5ED D1          0 14561 pop de  ; Loads integer into B'C' D'E'
D5EE C1          0 14562 pop bc
D5EF D9          0 14563 exx
D5F0 2E 80       0 14565 ld l, 128	; Exponent
D5F2 01 00 00    0 14566 ld bc, 0	; DEBC = 0
D5F5 50          0 14567 ld d, b
D5F6 59          0 14568 ld e, c
D5F7             0 14570 __U32TOFREG_LOOP: ; Also an entry point for __F16TOFREG
D5F7 D9          0 14571 exx
D5F8 7A          0 14572 ld a, d 	; B'C'D'E' == 0 ?
D5F9 B3          0 14573 or e
D5FA B0          0 14574 or b
D5FB B1          0 14575 or c
D5FC CA 14 D6    0 14576 jp z, __U32TOFREG_END	; We are done
D5FF CB 38       0 14578 srl b ; Shift B'C' D'E' >> 1, output bit stays in Carry
D601 CB 19       0 14579 rr c
D603 CB 1A       0 14580 rr d
D605 CB 1B       0 14581 rr e
D607 D9          0 14582 exx
D608 CB 1B       0 14584 rr e ; Shift EDCB >> 1, inserting the carry on the left
D60A CB 1A       0 14585 rr d
D60C CB 19       0 14586 rr c
D60E CB 18       0 14587 rr b
D610 2C          0 14589 inc l	; Increment exponent
D611 C3 F7 D5    0 14590 jp __U32TOFREG_LOOP
D614             0 14593 __U32TOFREG_END:
D614 D9          0 14594 exx
D615 7D          0 14595 ld a, l     ; Puts the exponent in a
D616 CB BB       0 14596 res 7, e	; Sets the sign bit to 0 (positive)
D618 C9          0 14598 ret
D619             0 14603 ZXBASIC_USER_DATA:
D619             0 14604 _input_LastK EQU 23560
D619             0 14605 _currentEnemies:
D619 00          0 14606 DEFB 00
D61A             0 14607 _currentMapIndex:
D61A 00 00       0 14608 DEFB 00, 00
D61C             0 14609 _currentMap:
D61C 00          0 14610 DEFB 00
D61D             0 14611 _currentMapExit:
D61D 00          0 14612 DEFB 00
D61E             0 14613 _enemyCount:
D61E 00          0 14614 DEFB 00
D61F             0 14615 _frameCounter:
D61F 00          0 14616 DEFB 00
D620             0 14617 _lampX:
D620 00          0 14618 DEFB 00
D621             0 14619 _lampY:
D621 00          0 14620 DEFB 00
D622             0 14621 _lightOn:
D622 00          0 14622 DEFB 00
D623             0 14623 _playerXEnter:
D623 00          0 14624 DEFB 00
D624             0 14625 _playerYEnter:
D624 00          0 14626 DEFB 00
D625             0 14627 _playerX:
D625 00          0 14628 DEFB 00
D626             0 14629 _playerY:
D626 00          0 14630 DEFB 00
D627             0 14631 _prevPlayerX:
D627 00          0 14632 DEFB 00
D628             0 14633 _prevPlayerY:
D628 00          0 14634 DEFB 00
D629             0 14635 _playerDir:
D629 01          0 14636 DEFB 01h
D62A             0 14637 _playerEnterDir:
D62A 01          0 14638 DEFB 01h
D62B             0 14639 _lastHead:
D62B 00          0 14640 DEFB 00h
D62C 00          0 14641 DEFB 00h
D62D             0 14642 _lastBody:
D62D 00          0 14643 DEFB 00h
D62E 00          0 14644 DEFB 00h
D62F             0 14645 _playerMoved:
D62F 00          0 14646 DEFB 00h
D630             0 14647 _dynaCounter:
D630 FF          0 14648 DEFB 0FFh
D631             0 14649 _lastDyna:
D631 00 00       0 14650 DEFB 00, 00
D633             0 14651 _dynaX:
D633 00          0 14652 DEFB 00
D634             0 14653 _dynaY:
D634 00          0 14654 DEFB 00
D635             0 14655 _lifes:
D635 04          0 14656 DEFB 04h
D636             0 14657 _dynamites:
D636 04          0 14658 DEFB 04h
D637             0 14659 _entryScreen:
D637 00          0 14660 DEFB 00h
D638             0 14661 _currentEntryIndex:
D638 00          0 14662 DEFB 00h
D639 00          0 14663 DEFB 00h
D63A             0 14664 _emptyAttrib:
D63A 00          0 14665 DEFB 00
D63B             0 14666 _tmpX:
D63B 00          0 14667 DEFB 00
D63C             0 14668 _tmpY:
D63C 00          0 14669 DEFB 00
D63D             0 14670 _tmpZ:
D63D 00          0 14671 DEFB 00
D63E             0 14672 _tmpDisplace:
D63E 00          0 14673 DEFB 00
D63F             0 14674 _tmpResult:
D63F 00          0 14675 DEFB 00
D640             0 14676 _prevShotX:
D640 00          0 14677 DEFB 00
D641             0 14678 _prevShotY:
D641 00          0 14679 DEFB 00
D642             0 14680 _shotX:
D642 00          0 14681 DEFB 00
D643             0 14682 _shotY:
D643 00          0 14683 DEFB 00
D644             0 14684 _deadEnemy:
D644 00          0 14685 DEFB 00
D645             0 14686 _personX:
D645 00          0 14687 DEFB 00
D646             0 14688 _personY:
D646 00          0 14689 DEFB 00
D647             0 14690 _power:
D647 00 00       0 14691 DEFB 00, 00
D649             0 14692 _score:
D649 00 00       0 14693 DEFB 00, 00
D64B             0 14694 _vampColor:
D64B 00          0 14695 DEFB 00
D64C             0 14696 _spiderColor:
D64C 00          0 14697 DEFB 00
D64D             0 14698 _snakeColor:
D64D 00          0 14699 DEFB 00
D64E             0 14700 _bugColor:
D64E 00          0 14701 DEFB 00
D64F             0 14702 _crocoColor:
D64F 00          0 14703 DEFB 00
D650             0 14704 _crabColor:
D650 00          0 14705 DEFB 00
D651             0 14706 _flyColor:
D651 00          0 14707 DEFB 00
D652             0 14708 _dynaColor:
D652 00          0 14709 DEFB 00
D653             0 14710 _tmpPattern:
D653 00 00       0 14711 DEFB 00, 00
D655             0 14712 _tmpColor:
D655 00          0 14713 DEFB 00
D656             0 14714 _tmpItem:
D656 00 00       0 14715 DEFB 00, 00
D658             0 14716 _tmpPrevItem:
D658 00 00       0 14717 DEFB 00, 00
D65A             0 14718 _xStart:
D65A 00          0 14719 DEFB 00
D65B             0 14720 _yStart:
D65B 00          0 14721 DEFB 00
D65C             0 14722 _xEnd:
D65C 00          0 14723 DEFB 00
D65D             0 14724 _yEnd:
D65D 00          0 14725 DEFB 00
D65E             0 14726 _state:
D65E 00          0 14727 DEFB 00h
D65F             0 14728 _updateResult:
D65F 00          0 14729 DEFB 00h
D660             0 14730 _exitResult:
D660 00          0 14731 DEFB 00
D661             0 14732 _bitmapBuffer:
D661 65 EE       0 14733 DEFW __LABEL733
D663             0 14734 _bitmapBuffer.__DATA__.__PTR__:
D663 65 D6       0 14735 DEFW _bitmapBuffer.__DATA__
D665             0 14736 _bitmapBuffer.__DATA__:
D665 00          0 14737 DEFB 00h
D666 00          0 14738 DEFB 00h
D667 00          0 14739 DEFB 00h
D668 00          0 14740 DEFB 00h
D669 00          0 14741 DEFB 00h
D66A 00          0 14742 DEFB 00h
D66B 00          0 14743 DEFB 00h
D66C 00          0 14744 DEFB 00h
D66D 00          0 14745 DEFB 00h
D66E 00          0 14746 DEFB 00h
D66F 00          0 14747 DEFB 00h
D670 00          0 14748 DEFB 00h
D671 00          0 14749 DEFB 00h
D672 00          0 14750 DEFB 00h
D673 00          0 14751 DEFB 00h
D674 00          0 14752 DEFB 00h
D675 00          0 14753 DEFB 00h
D676 00          0 14754 DEFB 00h
D677 00          0 14755 DEFB 00h
D678 00          0 14756 DEFB 00h
D679 00          0 14757 DEFB 00h
D67A 00          0 14758 DEFB 00h
D67B 00          0 14759 DEFB 00h
D67C 00          0 14760 DEFB 00h
D67D 00          0 14761 DEFB 00h
D67E 00          0 14762 DEFB 00h
D67F 00          0 14763 DEFB 00h
D680 00          0 14764 DEFB 00h
D681 00          0 14765 DEFB 00h
D682 00          0 14766 DEFB 00h
D683 00          0 14767 DEFB 00h
D684 00          0 14768 DEFB 00h
D685 00          0 14769 DEFB 00h
D686 00          0 14770 DEFB 00h
D687 00          0 14771 DEFB 00h
D688 00          0 14772 DEFB 00h
D689 00          0 14773 DEFB 00h
D68A 00          0 14774 DEFB 00h
D68B 00          0 14775 DEFB 00h
D68C 00          0 14776 DEFB 00h
D68D 00          0 14777 DEFB 00h
D68E 00          0 14778 DEFB 00h
D68F 00          0 14779 DEFB 00h
D690 00          0 14780 DEFB 00h
D691 00          0 14781 DEFB 00h
D692 00          0 14782 DEFB 00h
D693 00          0 14783 DEFB 00h
D694 00          0 14784 DEFB 00h
D695 00          0 14785 DEFB 00h
D696 00          0 14786 DEFB 00h
D697 00          0 14787 DEFB 00h
D698 00          0 14788 DEFB 00h
D699 00          0 14789 DEFB 00h
D69A 00          0 14790 DEFB 00h
D69B 00          0 14791 DEFB 00h
D69C 00          0 14792 DEFB 00h
D69D 00          0 14793 DEFB 00h
D69E 00          0 14794 DEFB 00h
D69F 00          0 14795 DEFB 00h
D6A0 00          0 14796 DEFB 00h
D6A1 00          0 14797 DEFB 00h
D6A2 00          0 14798 DEFB 00h
D6A3 00          0 14799 DEFB 00h
D6A4 00          0 14800 DEFB 00h
D6A5 00          0 14801 DEFB 00h
D6A6 00          0 14802 DEFB 00h
D6A7 00          0 14803 DEFB 00h
D6A8 00          0 14804 DEFB 00h
D6A9 00          0 14805 DEFB 00h
D6AA 00          0 14806 DEFB 00h
D6AB 00          0 14807 DEFB 00h
D6AC 00          0 14808 DEFB 00h
D6AD 00          0 14809 DEFB 00h
D6AE 00          0 14810 DEFB 00h
D6AF 00          0 14811 DEFB 00h
D6B0 00          0 14812 DEFB 00h
D6B1 00          0 14813 DEFB 00h
D6B2 00          0 14814 DEFB 00h
D6B3 00          0 14815 DEFB 00h
D6B4 00          0 14816 DEFB 00h
D6B5 00          0 14817 DEFB 00h
D6B6 00          0 14818 DEFB 00h
D6B7 00          0 14819 DEFB 00h
D6B8 00          0 14820 DEFB 00h
D6B9 00          0 14821 DEFB 00h
D6BA 00          0 14822 DEFB 00h
D6BB 00          0 14823 DEFB 00h
D6BC 00          0 14824 DEFB 00h
D6BD 00          0 14825 DEFB 00h
D6BE 00          0 14826 DEFB 00h
D6BF 00          0 14827 DEFB 00h
D6C0 00          0 14828 DEFB 00h
D6C1 00          0 14829 DEFB 00h
D6C2 00          0 14830 DEFB 00h
D6C3 00          0 14831 DEFB 00h
D6C4 00          0 14832 DEFB 00h
D6C5 00          0 14833 DEFB 00h
D6C6 00          0 14834 DEFB 00h
D6C7 00          0 14835 DEFB 00h
D6C8 00          0 14836 DEFB 00h
D6C9 00          0 14837 DEFB 00h
D6CA 00          0 14838 DEFB 00h
D6CB 00          0 14839 DEFB 00h
D6CC 00          0 14840 DEFB 00h
D6CD 00          0 14841 DEFB 00h
D6CE 00          0 14842 DEFB 00h
D6CF 00          0 14843 DEFB 00h
D6D0 00          0 14844 DEFB 00h
D6D1 00          0 14845 DEFB 00h
D6D2 00          0 14846 DEFB 00h
D6D3 00          0 14847 DEFB 00h
D6D4 00          0 14848 DEFB 00h
D6D5 00          0 14849 DEFB 00h
D6D6 00          0 14850 DEFB 00h
D6D7 00          0 14851 DEFB 00h
D6D8 00          0 14852 DEFB 00h
D6D9 00          0 14853 DEFB 00h
D6DA 00          0 14854 DEFB 00h
D6DB 00          0 14855 DEFB 00h
D6DC 00          0 14856 DEFB 00h
D6DD 00          0 14857 DEFB 00h
D6DE 00          0 14858 DEFB 00h
D6DF 00          0 14859 DEFB 00h
D6E0 00          0 14860 DEFB 00h
D6E1 00          0 14861 DEFB 00h
D6E2 00          0 14862 DEFB 00h
D6E3 00          0 14863 DEFB 00h
D6E4 00          0 14864 DEFB 00h
D6E5 00          0 14865 DEFB 00h
D6E6 00          0 14866 DEFB 00h
D6E7 00          0 14867 DEFB 00h
D6E8 00          0 14868 DEFB 00h
D6E9 00          0 14869 DEFB 00h
D6EA 00          0 14870 DEFB 00h
D6EB 00          0 14871 DEFB 00h
D6EC 00          0 14872 DEFB 00h
D6ED 00          0 14873 DEFB 00h
D6EE 00          0 14874 DEFB 00h
D6EF 00          0 14875 DEFB 00h
D6F0 00          0 14876 DEFB 00h
D6F1 00          0 14877 DEFB 00h
D6F2 00          0 14878 DEFB 00h
D6F3 00          0 14879 DEFB 00h
D6F4 00          0 14880 DEFB 00h
D6F5 00          0 14881 DEFB 00h
D6F6 00          0 14882 DEFB 00h
D6F7 00          0 14883 DEFB 00h
D6F8 00          0 14884 DEFB 00h
D6F9 00          0 14885 DEFB 00h
D6FA 00          0 14886 DEFB 00h
D6FB 00          0 14887 DEFB 00h
D6FC 00          0 14888 DEFB 00h
D6FD 00          0 14889 DEFB 00h
D6FE 00          0 14890 DEFB 00h
D6FF 00          0 14891 DEFB 00h
D700 00          0 14892 DEFB 00h
D701 00          0 14893 DEFB 00h
D702 00          0 14894 DEFB 00h
D703 00          0 14895 DEFB 00h
D704 00          0 14896 DEFB 00h
D705 00          0 14897 DEFB 00h
D706 00          0 14898 DEFB 00h
D707 00          0 14899 DEFB 00h
D708 00          0 14900 DEFB 00h
D709 00          0 14901 DEFB 00h
D70A 00          0 14902 DEFB 00h
D70B 00          0 14903 DEFB 00h
D70C 00          0 14904 DEFB 00h
D70D 00          0 14905 DEFB 00h
D70E 00          0 14906 DEFB 00h
D70F 00          0 14907 DEFB 00h
D710 00          0 14908 DEFB 00h
D711 00          0 14909 DEFB 00h
D712 00          0 14910 DEFB 00h
D713 00          0 14911 DEFB 00h
D714 00          0 14912 DEFB 00h
D715 00          0 14913 DEFB 00h
D716 00          0 14914 DEFB 00h
D717 00          0 14915 DEFB 00h
D718 00          0 14916 DEFB 00h
D719 00          0 14917 DEFB 00h
D71A 00          0 14918 DEFB 00h
D71B 00          0 14919 DEFB 00h
D71C 00          0 14920 DEFB 00h
D71D 00          0 14921 DEFB 00h
D71E 00          0 14922 DEFB 00h
D71F 00          0 14923 DEFB 00h
D720 00          0 14924 DEFB 00h
D721 00          0 14925 DEFB 00h
D722 00          0 14926 DEFB 00h
D723 00          0 14927 DEFB 00h
D724 00          0 14928 DEFB 00h
D725 00          0 14929 DEFB 00h
D726 00          0 14930 DEFB 00h
D727 00          0 14931 DEFB 00h
D728 00          0 14932 DEFB 00h
D729 00          0 14933 DEFB 00h
D72A 00          0 14934 DEFB 00h
D72B 00          0 14935 DEFB 00h
D72C 00          0 14936 DEFB 00h
D72D 00          0 14937 DEFB 00h
D72E 00          0 14938 DEFB 00h
D72F 00          0 14939 DEFB 00h
D730 00          0 14940 DEFB 00h
D731 00          0 14941 DEFB 00h
D732 00          0 14942 DEFB 00h
D733 00          0 14943 DEFB 00h
D734 00          0 14944 DEFB 00h
D735 00          0 14945 DEFB 00h
D736 00          0 14946 DEFB 00h
D737 00          0 14947 DEFB 00h
D738 00          0 14948 DEFB 00h
D739 00          0 14949 DEFB 00h
D73A 00          0 14950 DEFB 00h
D73B 00          0 14951 DEFB 00h
D73C 00          0 14952 DEFB 00h
D73D 00          0 14953 DEFB 00h
D73E 00          0 14954 DEFB 00h
D73F 00          0 14955 DEFB 00h
D740 00          0 14956 DEFB 00h
D741 00          0 14957 DEFB 00h
D742 00          0 14958 DEFB 00h
D743 00          0 14959 DEFB 00h
D744 00          0 14960 DEFB 00h
D745 00          0 14961 DEFB 00h
D746 00          0 14962 DEFB 00h
D747 00          0 14963 DEFB 00h
D748 00          0 14964 DEFB 00h
D749 00          0 14965 DEFB 00h
D74A 00          0 14966 DEFB 00h
D74B 00          0 14967 DEFB 00h
D74C 00          0 14968 DEFB 00h
D74D 00          0 14969 DEFB 00h
D74E 00          0 14970 DEFB 00h
D74F 00          0 14971 DEFB 00h
D750 00          0 14972 DEFB 00h
D751 00          0 14973 DEFB 00h
D752 00          0 14974 DEFB 00h
D753 00          0 14975 DEFB 00h
D754 00          0 14976 DEFB 00h
D755 00          0 14977 DEFB 00h
D756 00          0 14978 DEFB 00h
D757 00          0 14979 DEFB 00h
D758 00          0 14980 DEFB 00h
D759 00          0 14981 DEFB 00h
D75A 00          0 14982 DEFB 00h
D75B 00          0 14983 DEFB 00h
D75C 00          0 14984 DEFB 00h
D75D 00          0 14985 DEFB 00h
D75E 00          0 14986 DEFB 00h
D75F 00          0 14987 DEFB 00h
D760 00          0 14988 DEFB 00h
D761 00          0 14989 DEFB 00h
D762 00          0 14990 DEFB 00h
D763 00          0 14991 DEFB 00h
D764 00          0 14992 DEFB 00h
D765 00          0 14993 DEFB 00h
D766 00          0 14994 DEFB 00h
D767 00          0 14995 DEFB 00h
D768 00          0 14996 DEFB 00h
D769 00          0 14997 DEFB 00h
D76A 00          0 14998 DEFB 00h
D76B 00          0 14999 DEFB 00h
D76C 00          0 15000 DEFB 00h
D76D 00          0 15001 DEFB 00h
D76E 00          0 15002 DEFB 00h
D76F 00          0 15003 DEFB 00h
D770 00          0 15004 DEFB 00h
D771 00          0 15005 DEFB 00h
D772 00          0 15006 DEFB 00h
D773 00          0 15007 DEFB 00h
D774 00          0 15008 DEFB 00h
D775 00          0 15009 DEFB 00h
D776 00          0 15010 DEFB 00h
D777 00          0 15011 DEFB 00h
D778 00          0 15012 DEFB 00h
D779 00          0 15013 DEFB 00h
D77A 00          0 15014 DEFB 00h
D77B 00          0 15015 DEFB 00h
D77C 00          0 15016 DEFB 00h
D77D 00          0 15017 DEFB 00h
D77E 00          0 15018 DEFB 00h
D77F 00          0 15019 DEFB 00h
D780 00          0 15020 DEFB 00h
D781 00          0 15021 DEFB 00h
D782 00          0 15022 DEFB 00h
D783 00          0 15023 DEFB 00h
D784 00          0 15024 DEFB 00h
D785 00          0 15025 DEFB 00h
D786 00          0 15026 DEFB 00h
D787 00          0 15027 DEFB 00h
D788 00          0 15028 DEFB 00h
D789 00          0 15029 DEFB 00h
D78A 00          0 15030 DEFB 00h
D78B 00          0 15031 DEFB 00h
D78C 00          0 15032 DEFB 00h
D78D 00          0 15033 DEFB 00h
D78E 00          0 15034 DEFB 00h
D78F 00          0 15035 DEFB 00h
D790 00          0 15036 DEFB 00h
D791 00          0 15037 DEFB 00h
D792 00          0 15038 DEFB 00h
D793 00          0 15039 DEFB 00h
D794 00          0 15040 DEFB 00h
D795 00          0 15041 DEFB 00h
D796 00          0 15042 DEFB 00h
D797 00          0 15043 DEFB 00h
D798 00          0 15044 DEFB 00h
D799 00          0 15045 DEFB 00h
D79A 00          0 15046 DEFB 00h
D79B 00          0 15047 DEFB 00h
D79C 00          0 15048 DEFB 00h
D79D 00          0 15049 DEFB 00h
D79E 00          0 15050 DEFB 00h
D79F 00          0 15051 DEFB 00h
D7A0 00          0 15052 DEFB 00h
D7A1 00          0 15053 DEFB 00h
D7A2 00          0 15054 DEFB 00h
D7A3 00          0 15055 DEFB 00h
D7A4 00          0 15056 DEFB 00h
D7A5 00          0 15057 DEFB 00h
D7A6 00          0 15058 DEFB 00h
D7A7 00          0 15059 DEFB 00h
D7A8 00          0 15060 DEFB 00h
D7A9 00          0 15061 DEFB 00h
D7AA 00          0 15062 DEFB 00h
D7AB 00          0 15063 DEFB 00h
D7AC 00          0 15064 DEFB 00h
D7AD 00          0 15065 DEFB 00h
D7AE 00          0 15066 DEFB 00h
D7AF 00          0 15067 DEFB 00h
D7B0 00          0 15068 DEFB 00h
D7B1 00          0 15069 DEFB 00h
D7B2 00          0 15070 DEFB 00h
D7B3 00          0 15071 DEFB 00h
D7B4 00          0 15072 DEFB 00h
D7B5 00          0 15073 DEFB 00h
D7B6 00          0 15074 DEFB 00h
D7B7 00          0 15075 DEFB 00h
D7B8 00          0 15076 DEFB 00h
D7B9 00          0 15077 DEFB 00h
D7BA 00          0 15078 DEFB 00h
D7BB 00          0 15079 DEFB 00h
D7BC 00          0 15080 DEFB 00h
D7BD 00          0 15081 DEFB 00h
D7BE 00          0 15082 DEFB 00h
D7BF 00          0 15083 DEFB 00h
D7C0 00          0 15084 DEFB 00h
D7C1 00          0 15085 DEFB 00h
D7C2 00          0 15086 DEFB 00h
D7C3 00          0 15087 DEFB 00h
D7C4 00          0 15088 DEFB 00h
D7C5 00          0 15089 DEFB 00h
D7C6 00          0 15090 DEFB 00h
D7C7 00          0 15091 DEFB 00h
D7C8 00          0 15092 DEFB 00h
D7C9 00          0 15093 DEFB 00h
D7CA 00          0 15094 DEFB 00h
D7CB 00          0 15095 DEFB 00h
D7CC 00          0 15096 DEFB 00h
D7CD 00          0 15097 DEFB 00h
D7CE 00          0 15098 DEFB 00h
D7CF 00          0 15099 DEFB 00h
D7D0 00          0 15100 DEFB 00h
D7D1 00          0 15101 DEFB 00h
D7D2 00          0 15102 DEFB 00h
D7D3 00          0 15103 DEFB 00h
D7D4 00          0 15104 DEFB 00h
D7D5 00          0 15105 DEFB 00h
D7D6 00          0 15106 DEFB 00h
D7D7 00          0 15107 DEFB 00h
D7D8 00          0 15108 DEFB 00h
D7D9 00          0 15109 DEFB 00h
D7DA 00          0 15110 DEFB 00h
D7DB 00          0 15111 DEFB 00h
D7DC 00          0 15112 DEFB 00h
D7DD 00          0 15113 DEFB 00h
D7DE 00          0 15114 DEFB 00h
D7DF 00          0 15115 DEFB 00h
D7E0 00          0 15116 DEFB 00h
D7E1 00          0 15117 DEFB 00h
D7E2 00          0 15118 DEFB 00h
D7E3 00          0 15119 DEFB 00h
D7E4 00          0 15120 DEFB 00h
D7E5 00          0 15121 DEFB 00h
D7E6 00          0 15122 DEFB 00h
D7E7 00          0 15123 DEFB 00h
D7E8 00          0 15124 DEFB 00h
D7E9 00          0 15125 DEFB 00h
D7EA 00          0 15126 DEFB 00h
D7EB 00          0 15127 DEFB 00h
D7EC 00          0 15128 DEFB 00h
D7ED 00          0 15129 DEFB 00h
D7EE 00          0 15130 DEFB 00h
D7EF 00          0 15131 DEFB 00h
D7F0 00          0 15132 DEFB 00h
D7F1 00          0 15133 DEFB 00h
D7F2 00          0 15134 DEFB 00h
D7F3 00          0 15135 DEFB 00h
D7F4 00          0 15136 DEFB 00h
D7F5 00          0 15137 DEFB 00h
D7F6 00          0 15138 DEFB 00h
D7F7 00          0 15139 DEFB 00h
D7F8 00          0 15140 DEFB 00h
D7F9 00          0 15141 DEFB 00h
D7FA 00          0 15142 DEFB 00h
D7FB 00          0 15143 DEFB 00h
D7FC 00          0 15144 DEFB 00h
D7FD 00          0 15145 DEFB 00h
D7FE 00          0 15146 DEFB 00h
D7FF 00          0 15147 DEFB 00h
D800 00          0 15148 DEFB 00h
D801 00          0 15149 DEFB 00h
D802 00          0 15150 DEFB 00h
D803 00          0 15151 DEFB 00h
D804 00          0 15152 DEFB 00h
D805 00          0 15153 DEFB 00h
D806 00          0 15154 DEFB 00h
D807 00          0 15155 DEFB 00h
D808 00          0 15156 DEFB 00h
D809 00          0 15157 DEFB 00h
D80A 00          0 15158 DEFB 00h
D80B 00          0 15159 DEFB 00h
D80C 00          0 15160 DEFB 00h
D80D 00          0 15161 DEFB 00h
D80E 00          0 15162 DEFB 00h
D80F 00          0 15163 DEFB 00h
D810 00          0 15164 DEFB 00h
D811 00          0 15165 DEFB 00h
D812 00          0 15166 DEFB 00h
D813 00          0 15167 DEFB 00h
D814 00          0 15168 DEFB 00h
D815 00          0 15169 DEFB 00h
D816 00          0 15170 DEFB 00h
D817 00          0 15171 DEFB 00h
D818 00          0 15172 DEFB 00h
D819 00          0 15173 DEFB 00h
D81A 00          0 15174 DEFB 00h
D81B 00          0 15175 DEFB 00h
D81C 00          0 15176 DEFB 00h
D81D 00          0 15177 DEFB 00h
D81E 00          0 15178 DEFB 00h
D81F 00          0 15179 DEFB 00h
D820 00          0 15180 DEFB 00h
D821 00          0 15181 DEFB 00h
D822 00          0 15182 DEFB 00h
D823 00          0 15183 DEFB 00h
D824 00          0 15184 DEFB 00h
D825 00          0 15185 DEFB 00h
D826 00          0 15186 DEFB 00h
D827 00          0 15187 DEFB 00h
D828 00          0 15188 DEFB 00h
D829 00          0 15189 DEFB 00h
D82A 00          0 15190 DEFB 00h
D82B 00          0 15191 DEFB 00h
D82C 00          0 15192 DEFB 00h
D82D 00          0 15193 DEFB 00h
D82E 00          0 15194 DEFB 00h
D82F 00          0 15195 DEFB 00h
D830 00          0 15196 DEFB 00h
D831 00          0 15197 DEFB 00h
D832 00          0 15198 DEFB 00h
D833 00          0 15199 DEFB 00h
D834 00          0 15200 DEFB 00h
D835 00          0 15201 DEFB 00h
D836 00          0 15202 DEFB 00h
D837 00          0 15203 DEFB 00h
D838 00          0 15204 DEFB 00h
D839 00          0 15205 DEFB 00h
D83A 00          0 15206 DEFB 00h
D83B 00          0 15207 DEFB 00h
D83C 00          0 15208 DEFB 00h
D83D 00          0 15209 DEFB 00h
D83E 00          0 15210 DEFB 00h
D83F 00          0 15211 DEFB 00h
D840 00          0 15212 DEFB 00h
D841 00          0 15213 DEFB 00h
D842 00          0 15214 DEFB 00h
D843 00          0 15215 DEFB 00h
D844 00          0 15216 DEFB 00h
D845 00          0 15217 DEFB 00h
D846 00          0 15218 DEFB 00h
D847 00          0 15219 DEFB 00h
D848 00          0 15220 DEFB 00h
D849 00          0 15221 DEFB 00h
D84A 00          0 15222 DEFB 00h
D84B 00          0 15223 DEFB 00h
D84C 00          0 15224 DEFB 00h
D84D 00          0 15225 DEFB 00h
D84E 00          0 15226 DEFB 00h
D84F 00          0 15227 DEFB 00h
D850 00          0 15228 DEFB 00h
D851 00          0 15229 DEFB 00h
D852 00          0 15230 DEFB 00h
D853 00          0 15231 DEFB 00h
D854 00          0 15232 DEFB 00h
D855 00          0 15233 DEFB 00h
D856 00          0 15234 DEFB 00h
D857 00          0 15235 DEFB 00h
D858 00          0 15236 DEFB 00h
D859 00          0 15237 DEFB 00h
D85A 00          0 15238 DEFB 00h
D85B 00          0 15239 DEFB 00h
D85C 00          0 15240 DEFB 00h
D85D 00          0 15241 DEFB 00h
D85E 00          0 15242 DEFB 00h
D85F 00          0 15243 DEFB 00h
D860 00          0 15244 DEFB 00h
D861 00          0 15245 DEFB 00h
D862 00          0 15246 DEFB 00h
D863 00          0 15247 DEFB 00h
D864 00          0 15248 DEFB 00h
D865 00          0 15249 DEFB 00h
D866 00          0 15250 DEFB 00h
D867 00          0 15251 DEFB 00h
D868 00          0 15252 DEFB 00h
D869 00          0 15253 DEFB 00h
D86A 00          0 15254 DEFB 00h
D86B 00          0 15255 DEFB 00h
D86C 00          0 15256 DEFB 00h
D86D 00          0 15257 DEFB 00h
D86E 00          0 15258 DEFB 00h
D86F 00          0 15259 DEFB 00h
D870 00          0 15260 DEFB 00h
D871 00          0 15261 DEFB 00h
D872 00          0 15262 DEFB 00h
D873 00          0 15263 DEFB 00h
D874 00          0 15264 DEFB 00h
D875 00          0 15265 DEFB 00h
D876 00          0 15266 DEFB 00h
D877 00          0 15267 DEFB 00h
D878 00          0 15268 DEFB 00h
D879 00          0 15269 DEFB 00h
D87A 00          0 15270 DEFB 00h
D87B 00          0 15271 DEFB 00h
D87C 00          0 15272 DEFB 00h
D87D 00          0 15273 DEFB 00h
D87E 00          0 15274 DEFB 00h
D87F 00          0 15275 DEFB 00h
D880 00          0 15276 DEFB 00h
D881 00          0 15277 DEFB 00h
D882 00          0 15278 DEFB 00h
D883 00          0 15279 DEFB 00h
D884 00          0 15280 DEFB 00h
D885 00          0 15281 DEFB 00h
D886 00          0 15282 DEFB 00h
D887 00          0 15283 DEFB 00h
D888 00          0 15284 DEFB 00h
D889 00          0 15285 DEFB 00h
D88A 00          0 15286 DEFB 00h
D88B 00          0 15287 DEFB 00h
D88C 00          0 15288 DEFB 00h
D88D 00          0 15289 DEFB 00h
D88E 00          0 15290 DEFB 00h
D88F 00          0 15291 DEFB 00h
D890 00          0 15292 DEFB 00h
D891 00          0 15293 DEFB 00h
D892 00          0 15294 DEFB 00h
D893 00          0 15295 DEFB 00h
D894 00          0 15296 DEFB 00h
D895 00          0 15297 DEFB 00h
D896 00          0 15298 DEFB 00h
D897 00          0 15299 DEFB 00h
D898 00          0 15300 DEFB 00h
D899 00          0 15301 DEFB 00h
D89A 00          0 15302 DEFB 00h
D89B 00          0 15303 DEFB 00h
D89C 00          0 15304 DEFB 00h
D89D 00          0 15305 DEFB 00h
D89E 00          0 15306 DEFB 00h
D89F 00          0 15307 DEFB 00h
D8A0 00          0 15308 DEFB 00h
D8A1 00          0 15309 DEFB 00h
D8A2 00          0 15310 DEFB 00h
D8A3 00          0 15311 DEFB 00h
D8A4 00          0 15312 DEFB 00h
D8A5 00          0 15313 DEFB 00h
D8A6 00          0 15314 DEFB 00h
D8A7 00          0 15315 DEFB 00h
D8A8 00          0 15316 DEFB 00h
D8A9 00          0 15317 DEFB 00h
D8AA 00          0 15318 DEFB 00h
D8AB 00          0 15319 DEFB 00h
D8AC 00          0 15320 DEFB 00h
D8AD 00          0 15321 DEFB 00h
D8AE 00          0 15322 DEFB 00h
D8AF 00          0 15323 DEFB 00h
D8B0 00          0 15324 DEFB 00h
D8B1 00          0 15325 DEFB 00h
D8B2 00          0 15326 DEFB 00h
D8B3 00          0 15327 DEFB 00h
D8B4 00          0 15328 DEFB 00h
D8B5 00          0 15329 DEFB 00h
D8B6 00          0 15330 DEFB 00h
D8B7 00          0 15331 DEFB 00h
D8B8 00          0 15332 DEFB 00h
D8B9 00          0 15333 DEFB 00h
D8BA 00          0 15334 DEFB 00h
D8BB 00          0 15335 DEFB 00h
D8BC 00          0 15336 DEFB 00h
D8BD 00          0 15337 DEFB 00h
D8BE 00          0 15338 DEFB 00h
D8BF 00          0 15339 DEFB 00h
D8C0 00          0 15340 DEFB 00h
D8C1 00          0 15341 DEFB 00h
D8C2 00          0 15342 DEFB 00h
D8C3 00          0 15343 DEFB 00h
D8C4 00          0 15344 DEFB 00h
D8C5 00          0 15345 DEFB 00h
D8C6 00          0 15346 DEFB 00h
D8C7 00          0 15347 DEFB 00h
D8C8 00          0 15348 DEFB 00h
D8C9 00          0 15349 DEFB 00h
D8CA 00          0 15350 DEFB 00h
D8CB 00          0 15351 DEFB 00h
D8CC 00          0 15352 DEFB 00h
D8CD 00          0 15353 DEFB 00h
D8CE 00          0 15354 DEFB 00h
D8CF 00          0 15355 DEFB 00h
D8D0 00          0 15356 DEFB 00h
D8D1 00          0 15357 DEFB 00h
D8D2 00          0 15358 DEFB 00h
D8D3 00          0 15359 DEFB 00h
D8D4 00          0 15360 DEFB 00h
D8D5 00          0 15361 DEFB 00h
D8D6 00          0 15362 DEFB 00h
D8D7 00          0 15363 DEFB 00h
D8D8 00          0 15364 DEFB 00h
D8D9 00          0 15365 DEFB 00h
D8DA 00          0 15366 DEFB 00h
D8DB 00          0 15367 DEFB 00h
D8DC 00          0 15368 DEFB 00h
D8DD 00          0 15369 DEFB 00h
D8DE 00          0 15370 DEFB 00h
D8DF 00          0 15371 DEFB 00h
D8E0 00          0 15372 DEFB 00h
D8E1 00          0 15373 DEFB 00h
D8E2 00          0 15374 DEFB 00h
D8E3 00          0 15375 DEFB 00h
D8E4 00          0 15376 DEFB 00h
D8E5 00          0 15377 DEFB 00h
D8E6 00          0 15378 DEFB 00h
D8E7 00          0 15379 DEFB 00h
D8E8 00          0 15380 DEFB 00h
D8E9 00          0 15381 DEFB 00h
D8EA 00          0 15382 DEFB 00h
D8EB 00          0 15383 DEFB 00h
D8EC 00          0 15384 DEFB 00h
D8ED 00          0 15385 DEFB 00h
D8EE 00          0 15386 DEFB 00h
D8EF 00          0 15387 DEFB 00h
D8F0 00          0 15388 DEFB 00h
D8F1 00          0 15389 DEFB 00h
D8F2 00          0 15390 DEFB 00h
D8F3 00          0 15391 DEFB 00h
D8F4 00          0 15392 DEFB 00h
D8F5 00          0 15393 DEFB 00h
D8F6 00          0 15394 DEFB 00h
D8F7 00          0 15395 DEFB 00h
D8F8 00          0 15396 DEFB 00h
D8F9 00          0 15397 DEFB 00h
D8FA 00          0 15398 DEFB 00h
D8FB 00          0 15399 DEFB 00h
D8FC 00          0 15400 DEFB 00h
D8FD 00          0 15401 DEFB 00h
D8FE 00          0 15402 DEFB 00h
D8FF 00          0 15403 DEFB 00h
D900 00          0 15404 DEFB 00h
D901 00          0 15405 DEFB 00h
D902 00          0 15406 DEFB 00h
D903 00          0 15407 DEFB 00h
D904 00          0 15408 DEFB 00h
D905 00          0 15409 DEFB 00h
D906 00          0 15410 DEFB 00h
D907 00          0 15411 DEFB 00h
D908 00          0 15412 DEFB 00h
D909 00          0 15413 DEFB 00h
D90A 00          0 15414 DEFB 00h
D90B 00          0 15415 DEFB 00h
D90C 00          0 15416 DEFB 00h
D90D 00          0 15417 DEFB 00h
D90E 00          0 15418 DEFB 00h
D90F 00          0 15419 DEFB 00h
D910 00          0 15420 DEFB 00h
D911 00          0 15421 DEFB 00h
D912 00          0 15422 DEFB 00h
D913 00          0 15423 DEFB 00h
D914 00          0 15424 DEFB 00h
D915 00          0 15425 DEFB 00h
D916 00          0 15426 DEFB 00h
D917 00          0 15427 DEFB 00h
D918 00          0 15428 DEFB 00h
D919 00          0 15429 DEFB 00h
D91A 00          0 15430 DEFB 00h
D91B 00          0 15431 DEFB 00h
D91C 00          0 15432 DEFB 00h
D91D 00          0 15433 DEFB 00h
D91E 00          0 15434 DEFB 00h
D91F 00          0 15435 DEFB 00h
D920 00          0 15436 DEFB 00h
D921 00          0 15437 DEFB 00h
D922 00          0 15438 DEFB 00h
D923 00          0 15439 DEFB 00h
D924 00          0 15440 DEFB 00h
D925 00          0 15441 DEFB 00h
D926 00          0 15442 DEFB 00h
D927 00          0 15443 DEFB 00h
D928 00          0 15444 DEFB 00h
D929 00          0 15445 DEFB 00h
D92A 00          0 15446 DEFB 00h
D92B 00          0 15447 DEFB 00h
D92C 00          0 15448 DEFB 00h
D92D 00          0 15449 DEFB 00h
D92E 00          0 15450 DEFB 00h
D92F 00          0 15451 DEFB 00h
D930 00          0 15452 DEFB 00h
D931 00          0 15453 DEFB 00h
D932 00          0 15454 DEFB 00h
D933 00          0 15455 DEFB 00h
D934 00          0 15456 DEFB 00h
D935 00          0 15457 DEFB 00h
D936 00          0 15458 DEFB 00h
D937 00          0 15459 DEFB 00h
D938 00          0 15460 DEFB 00h
D939 00          0 15461 DEFB 00h
D93A 00          0 15462 DEFB 00h
D93B 00          0 15463 DEFB 00h
D93C 00          0 15464 DEFB 00h
D93D 00          0 15465 DEFB 00h
D93E 00          0 15466 DEFB 00h
D93F 00          0 15467 DEFB 00h
D940 00          0 15468 DEFB 00h
D941 00          0 15469 DEFB 00h
D942 00          0 15470 DEFB 00h
D943 00          0 15471 DEFB 00h
D944 00          0 15472 DEFB 00h
D945 00          0 15473 DEFB 00h
D946 00          0 15474 DEFB 00h
D947 00          0 15475 DEFB 00h
D948 00          0 15476 DEFB 00h
D949 00          0 15477 DEFB 00h
D94A 00          0 15478 DEFB 00h
D94B 00          0 15479 DEFB 00h
D94C 00          0 15480 DEFB 00h
D94D 00          0 15481 DEFB 00h
D94E 00          0 15482 DEFB 00h
D94F 00          0 15483 DEFB 00h
D950 00          0 15484 DEFB 00h
D951 00          0 15485 DEFB 00h
D952 00          0 15486 DEFB 00h
D953 00          0 15487 DEFB 00h
D954 00          0 15488 DEFB 00h
D955 00          0 15489 DEFB 00h
D956 00          0 15490 DEFB 00h
D957 00          0 15491 DEFB 00h
D958 00          0 15492 DEFB 00h
D959 00          0 15493 DEFB 00h
D95A 00          0 15494 DEFB 00h
D95B 00          0 15495 DEFB 00h
D95C 00          0 15496 DEFB 00h
D95D 00          0 15497 DEFB 00h
D95E 00          0 15498 DEFB 00h
D95F 00          0 15499 DEFB 00h
D960 00          0 15500 DEFB 00h
D961 00          0 15501 DEFB 00h
D962 00          0 15502 DEFB 00h
D963 00          0 15503 DEFB 00h
D964 00          0 15504 DEFB 00h
D965 00          0 15505 DEFB 00h
D966 00          0 15506 DEFB 00h
D967 00          0 15507 DEFB 00h
D968 00          0 15508 DEFB 00h
D969 00          0 15509 DEFB 00h
D96A 00          0 15510 DEFB 00h
D96B 00          0 15511 DEFB 00h
D96C 00          0 15512 DEFB 00h
D96D 00          0 15513 DEFB 00h
D96E 00          0 15514 DEFB 00h
D96F 00          0 15515 DEFB 00h
D970 00          0 15516 DEFB 00h
D971 00          0 15517 DEFB 00h
D972 00          0 15518 DEFB 00h
D973 00          0 15519 DEFB 00h
D974 00          0 15520 DEFB 00h
D975 00          0 15521 DEFB 00h
D976 00          0 15522 DEFB 00h
D977 00          0 15523 DEFB 00h
D978 00          0 15524 DEFB 00h
D979 00          0 15525 DEFB 00h
D97A 00          0 15526 DEFB 00h
D97B 00          0 15527 DEFB 00h
D97C 00          0 15528 DEFB 00h
D97D 00          0 15529 DEFB 00h
D97E 00          0 15530 DEFB 00h
D97F 00          0 15531 DEFB 00h
D980 00          0 15532 DEFB 00h
D981 00          0 15533 DEFB 00h
D982 00          0 15534 DEFB 00h
D983 00          0 15535 DEFB 00h
D984 00          0 15536 DEFB 00h
D985 00          0 15537 DEFB 00h
D986 00          0 15538 DEFB 00h
D987 00          0 15539 DEFB 00h
D988 00          0 15540 DEFB 00h
D989 00          0 15541 DEFB 00h
D98A 00          0 15542 DEFB 00h
D98B 00          0 15543 DEFB 00h
D98C 00          0 15544 DEFB 00h
D98D 00          0 15545 DEFB 00h
D98E 00          0 15546 DEFB 00h
D98F 00          0 15547 DEFB 00h
D990 00          0 15548 DEFB 00h
D991 00          0 15549 DEFB 00h
D992 00          0 15550 DEFB 00h
D993 00          0 15551 DEFB 00h
D994 00          0 15552 DEFB 00h
D995 00          0 15553 DEFB 00h
D996 00          0 15554 DEFB 00h
D997 00          0 15555 DEFB 00h
D998 00          0 15556 DEFB 00h
D999 00          0 15557 DEFB 00h
D99A 00          0 15558 DEFB 00h
D99B 00          0 15559 DEFB 00h
D99C 00          0 15560 DEFB 00h
D99D 00          0 15561 DEFB 00h
D99E 00          0 15562 DEFB 00h
D99F 00          0 15563 DEFB 00h
D9A0 00          0 15564 DEFB 00h
D9A1 00          0 15565 DEFB 00h
D9A2 00          0 15566 DEFB 00h
D9A3 00          0 15567 DEFB 00h
D9A4 00          0 15568 DEFB 00h
D9A5 00          0 15569 DEFB 00h
D9A6 00          0 15570 DEFB 00h
D9A7 00          0 15571 DEFB 00h
D9A8 00          0 15572 DEFB 00h
D9A9 00          0 15573 DEFB 00h
D9AA 00          0 15574 DEFB 00h
D9AB 00          0 15575 DEFB 00h
D9AC 00          0 15576 DEFB 00h
D9AD 00          0 15577 DEFB 00h
D9AE 00          0 15578 DEFB 00h
D9AF 00          0 15579 DEFB 00h
D9B0 00          0 15580 DEFB 00h
D9B1 00          0 15581 DEFB 00h
D9B2 00          0 15582 DEFB 00h
D9B3 00          0 15583 DEFB 00h
D9B4 00          0 15584 DEFB 00h
D9B5 00          0 15585 DEFB 00h
D9B6 00          0 15586 DEFB 00h
D9B7 00          0 15587 DEFB 00h
D9B8 00          0 15588 DEFB 00h
D9B9 00          0 15589 DEFB 00h
D9BA 00          0 15590 DEFB 00h
D9BB 00          0 15591 DEFB 00h
D9BC 00          0 15592 DEFB 00h
D9BD 00          0 15593 DEFB 00h
D9BE 00          0 15594 DEFB 00h
D9BF 00          0 15595 DEFB 00h
D9C0 00          0 15596 DEFB 00h
D9C1 00          0 15597 DEFB 00h
D9C2 00          0 15598 DEFB 00h
D9C3 00          0 15599 DEFB 00h
D9C4 00          0 15600 DEFB 00h
D9C5 00          0 15601 DEFB 00h
D9C6 00          0 15602 DEFB 00h
D9C7 00          0 15603 DEFB 00h
D9C8 00          0 15604 DEFB 00h
D9C9 00          0 15605 DEFB 00h
D9CA 00          0 15606 DEFB 00h
D9CB 00          0 15607 DEFB 00h
D9CC 00          0 15608 DEFB 00h
D9CD 00          0 15609 DEFB 00h
D9CE 00          0 15610 DEFB 00h
D9CF 00          0 15611 DEFB 00h
D9D0 00          0 15612 DEFB 00h
D9D1 00          0 15613 DEFB 00h
D9D2 00          0 15614 DEFB 00h
D9D3 00          0 15615 DEFB 00h
D9D4 00          0 15616 DEFB 00h
D9D5 00          0 15617 DEFB 00h
D9D6 00          0 15618 DEFB 00h
D9D7 00          0 15619 DEFB 00h
D9D8 00          0 15620 DEFB 00h
D9D9 00          0 15621 DEFB 00h
D9DA 00          0 15622 DEFB 00h
D9DB 00          0 15623 DEFB 00h
D9DC 00          0 15624 DEFB 00h
D9DD 00          0 15625 DEFB 00h
D9DE 00          0 15626 DEFB 00h
D9DF 00          0 15627 DEFB 00h
D9E0 00          0 15628 DEFB 00h
D9E1 00          0 15629 DEFB 00h
D9E2 00          0 15630 DEFB 00h
D9E3 00          0 15631 DEFB 00h
D9E4 00          0 15632 DEFB 00h
D9E5 00          0 15633 DEFB 00h
D9E6 00          0 15634 DEFB 00h
D9E7 00          0 15635 DEFB 00h
D9E8 00          0 15636 DEFB 00h
D9E9 00          0 15637 DEFB 00h
D9EA 00          0 15638 DEFB 00h
D9EB 00          0 15639 DEFB 00h
D9EC 00          0 15640 DEFB 00h
D9ED 00          0 15641 DEFB 00h
D9EE 00          0 15642 DEFB 00h
D9EF 00          0 15643 DEFB 00h
D9F0 00          0 15644 DEFB 00h
D9F1 00          0 15645 DEFB 00h
D9F2 00          0 15646 DEFB 00h
D9F3 00          0 15647 DEFB 00h
D9F4 00          0 15648 DEFB 00h
D9F5 00          0 15649 DEFB 00h
D9F6 00          0 15650 DEFB 00h
D9F7 00          0 15651 DEFB 00h
D9F8 00          0 15652 DEFB 00h
D9F9 00          0 15653 DEFB 00h
D9FA 00          0 15654 DEFB 00h
D9FB 00          0 15655 DEFB 00h
D9FC 00          0 15656 DEFB 00h
D9FD 00          0 15657 DEFB 00h
D9FE 00          0 15658 DEFB 00h
D9FF 00          0 15659 DEFB 00h
DA00 00          0 15660 DEFB 00h
DA01 00          0 15661 DEFB 00h
DA02 00          0 15662 DEFB 00h
DA03 00          0 15663 DEFB 00h
DA04 00          0 15664 DEFB 00h
DA05 00          0 15665 DEFB 00h
DA06 00          0 15666 DEFB 00h
DA07 00          0 15667 DEFB 00h
DA08 00          0 15668 DEFB 00h
DA09 00          0 15669 DEFB 00h
DA0A 00          0 15670 DEFB 00h
DA0B 00          0 15671 DEFB 00h
DA0C 00          0 15672 DEFB 00h
DA0D 00          0 15673 DEFB 00h
DA0E 00          0 15674 DEFB 00h
DA0F 00          0 15675 DEFB 00h
DA10 00          0 15676 DEFB 00h
DA11 00          0 15677 DEFB 00h
DA12 00          0 15678 DEFB 00h
DA13 00          0 15679 DEFB 00h
DA14 00          0 15680 DEFB 00h
DA15 00          0 15681 DEFB 00h
DA16 00          0 15682 DEFB 00h
DA17 00          0 15683 DEFB 00h
DA18 00          0 15684 DEFB 00h
DA19 00          0 15685 DEFB 00h
DA1A 00          0 15686 DEFB 00h
DA1B 00          0 15687 DEFB 00h
DA1C 00          0 15688 DEFB 00h
DA1D 00          0 15689 DEFB 00h
DA1E 00          0 15690 DEFB 00h
DA1F 00          0 15691 DEFB 00h
DA20 00          0 15692 DEFB 00h
DA21 00          0 15693 DEFB 00h
DA22 00          0 15694 DEFB 00h
DA23 00          0 15695 DEFB 00h
DA24 00          0 15696 DEFB 00h
DA25 00          0 15697 DEFB 00h
DA26 00          0 15698 DEFB 00h
DA27 00          0 15699 DEFB 00h
DA28 00          0 15700 DEFB 00h
DA29 00          0 15701 DEFB 00h
DA2A 00          0 15702 DEFB 00h
DA2B 00          0 15703 DEFB 00h
DA2C 00          0 15704 DEFB 00h
DA2D 00          0 15705 DEFB 00h
DA2E 00          0 15706 DEFB 00h
DA2F 00          0 15707 DEFB 00h
DA30 00          0 15708 DEFB 00h
DA31 00          0 15709 DEFB 00h
DA32 00          0 15710 DEFB 00h
DA33 00          0 15711 DEFB 00h
DA34 00          0 15712 DEFB 00h
DA35 00          0 15713 DEFB 00h
DA36 00          0 15714 DEFB 00h
DA37 00          0 15715 DEFB 00h
DA38 00          0 15716 DEFB 00h
DA39 00          0 15717 DEFB 00h
DA3A 00          0 15718 DEFB 00h
DA3B 00          0 15719 DEFB 00h
DA3C 00          0 15720 DEFB 00h
DA3D 00          0 15721 DEFB 00h
DA3E 00          0 15722 DEFB 00h
DA3F 00          0 15723 DEFB 00h
DA40 00          0 15724 DEFB 00h
DA41 00          0 15725 DEFB 00h
DA42 00          0 15726 DEFB 00h
DA43 00          0 15727 DEFB 00h
DA44 00          0 15728 DEFB 00h
DA45 00          0 15729 DEFB 00h
DA46 00          0 15730 DEFB 00h
DA47 00          0 15731 DEFB 00h
DA48 00          0 15732 DEFB 00h
DA49 00          0 15733 DEFB 00h
DA4A 00          0 15734 DEFB 00h
DA4B 00          0 15735 DEFB 00h
DA4C 00          0 15736 DEFB 00h
DA4D 00          0 15737 DEFB 00h
DA4E 00          0 15738 DEFB 00h
DA4F 00          0 15739 DEFB 00h
DA50 00          0 15740 DEFB 00h
DA51 00          0 15741 DEFB 00h
DA52 00          0 15742 DEFB 00h
DA53 00          0 15743 DEFB 00h
DA54 00          0 15744 DEFB 00h
DA55 00          0 15745 DEFB 00h
DA56 00          0 15746 DEFB 00h
DA57 00          0 15747 DEFB 00h
DA58 00          0 15748 DEFB 00h
DA59 00          0 15749 DEFB 00h
DA5A 00          0 15750 DEFB 00h
DA5B 00          0 15751 DEFB 00h
DA5C 00          0 15752 DEFB 00h
DA5D 00          0 15753 DEFB 00h
DA5E 00          0 15754 DEFB 00h
DA5F 00          0 15755 DEFB 00h
DA60 00          0 15756 DEFB 00h
DA61 00          0 15757 DEFB 00h
DA62 00          0 15758 DEFB 00h
DA63 00          0 15759 DEFB 00h
DA64 00          0 15760 DEFB 00h
DA65 00          0 15761 DEFB 00h
DA66 00          0 15762 DEFB 00h
DA67 00          0 15763 DEFB 00h
DA68 00          0 15764 DEFB 00h
DA69 00          0 15765 DEFB 00h
DA6A 00          0 15766 DEFB 00h
DA6B 00          0 15767 DEFB 00h
DA6C 00          0 15768 DEFB 00h
DA6D 00          0 15769 DEFB 00h
DA6E 00          0 15770 DEFB 00h
DA6F 00          0 15771 DEFB 00h
DA70 00          0 15772 DEFB 00h
DA71 00          0 15773 DEFB 00h
DA72 00          0 15774 DEFB 00h
DA73 00          0 15775 DEFB 00h
DA74 00          0 15776 DEFB 00h
DA75 00          0 15777 DEFB 00h
DA76 00          0 15778 DEFB 00h
DA77 00          0 15779 DEFB 00h
DA78 00          0 15780 DEFB 00h
DA79 00          0 15781 DEFB 00h
DA7A 00          0 15782 DEFB 00h
DA7B 00          0 15783 DEFB 00h
DA7C 00          0 15784 DEFB 00h
DA7D 00          0 15785 DEFB 00h
DA7E 00          0 15786 DEFB 00h
DA7F 00          0 15787 DEFB 00h
DA80 00          0 15788 DEFB 00h
DA81 00          0 15789 DEFB 00h
DA82 00          0 15790 DEFB 00h
DA83 00          0 15791 DEFB 00h
DA84 00          0 15792 DEFB 00h
DA85 00          0 15793 DEFB 00h
DA86 00          0 15794 DEFB 00h
DA87 00          0 15795 DEFB 00h
DA88 00          0 15796 DEFB 00h
DA89 00          0 15797 DEFB 00h
DA8A 00          0 15798 DEFB 00h
DA8B 00          0 15799 DEFB 00h
DA8C 00          0 15800 DEFB 00h
DA8D 00          0 15801 DEFB 00h
DA8E 00          0 15802 DEFB 00h
DA8F 00          0 15803 DEFB 00h
DA90 00          0 15804 DEFB 00h
DA91 00          0 15805 DEFB 00h
DA92 00          0 15806 DEFB 00h
DA93 00          0 15807 DEFB 00h
DA94 00          0 15808 DEFB 00h
DA95 00          0 15809 DEFB 00h
DA96 00          0 15810 DEFB 00h
DA97 00          0 15811 DEFB 00h
DA98 00          0 15812 DEFB 00h
DA99 00          0 15813 DEFB 00h
DA9A 00          0 15814 DEFB 00h
DA9B 00          0 15815 DEFB 00h
DA9C 00          0 15816 DEFB 00h
DA9D 00          0 15817 DEFB 00h
DA9E 00          0 15818 DEFB 00h
DA9F 00          0 15819 DEFB 00h
DAA0 00          0 15820 DEFB 00h
DAA1 00          0 15821 DEFB 00h
DAA2 00          0 15822 DEFB 00h
DAA3 00          0 15823 DEFB 00h
DAA4 00          0 15824 DEFB 00h
DAA5 00          0 15825 DEFB 00h
DAA6 00          0 15826 DEFB 00h
DAA7 00          0 15827 DEFB 00h
DAA8 00          0 15828 DEFB 00h
DAA9 00          0 15829 DEFB 00h
DAAA 00          0 15830 DEFB 00h
DAAB 00          0 15831 DEFB 00h
DAAC 00          0 15832 DEFB 00h
DAAD 00          0 15833 DEFB 00h
DAAE 00          0 15834 DEFB 00h
DAAF 00          0 15835 DEFB 00h
DAB0 00          0 15836 DEFB 00h
DAB1 00          0 15837 DEFB 00h
DAB2 00          0 15838 DEFB 00h
DAB3 00          0 15839 DEFB 00h
DAB4 00          0 15840 DEFB 00h
DAB5 00          0 15841 DEFB 00h
DAB6 00          0 15842 DEFB 00h
DAB7 00          0 15843 DEFB 00h
DAB8 00          0 15844 DEFB 00h
DAB9 00          0 15845 DEFB 00h
DABA 00          0 15846 DEFB 00h
DABB 00          0 15847 DEFB 00h
DABC 00          0 15848 DEFB 00h
DABD 00          0 15849 DEFB 00h
DABE 00          0 15850 DEFB 00h
DABF 00          0 15851 DEFB 00h
DAC0 00          0 15852 DEFB 00h
DAC1 00          0 15853 DEFB 00h
DAC2 00          0 15854 DEFB 00h
DAC3 00          0 15855 DEFB 00h
DAC4 00          0 15856 DEFB 00h
DAC5 00          0 15857 DEFB 00h
DAC6 00          0 15858 DEFB 00h
DAC7 00          0 15859 DEFB 00h
DAC8 00          0 15860 DEFB 00h
DAC9 00          0 15861 DEFB 00h
DACA 00          0 15862 DEFB 00h
DACB 00          0 15863 DEFB 00h
DACC 00          0 15864 DEFB 00h
DACD 00          0 15865 DEFB 00h
DACE 00          0 15866 DEFB 00h
DACF 00          0 15867 DEFB 00h
DAD0 00          0 15868 DEFB 00h
DAD1 00          0 15869 DEFB 00h
DAD2 00          0 15870 DEFB 00h
DAD3 00          0 15871 DEFB 00h
DAD4 00          0 15872 DEFB 00h
DAD5 00          0 15873 DEFB 00h
DAD6 00          0 15874 DEFB 00h
DAD7 00          0 15875 DEFB 00h
DAD8 00          0 15876 DEFB 00h
DAD9 00          0 15877 DEFB 00h
DADA 00          0 15878 DEFB 00h
DADB 00          0 15879 DEFB 00h
DADC 00          0 15880 DEFB 00h
DADD 00          0 15881 DEFB 00h
DADE 00          0 15882 DEFB 00h
DADF 00          0 15883 DEFB 00h
DAE0 00          0 15884 DEFB 00h
DAE1 00          0 15885 DEFB 00h
DAE2 00          0 15886 DEFB 00h
DAE3 00          0 15887 DEFB 00h
DAE4 00          0 15888 DEFB 00h
DAE5 00          0 15889 DEFB 00h
DAE6 00          0 15890 DEFB 00h
DAE7 00          0 15891 DEFB 00h
DAE8 00          0 15892 DEFB 00h
DAE9 00          0 15893 DEFB 00h
DAEA 00          0 15894 DEFB 00h
DAEB 00          0 15895 DEFB 00h
DAEC 00          0 15896 DEFB 00h
DAED 00          0 15897 DEFB 00h
DAEE 00          0 15898 DEFB 00h
DAEF 00          0 15899 DEFB 00h
DAF0 00          0 15900 DEFB 00h
DAF1 00          0 15901 DEFB 00h
DAF2 00          0 15902 DEFB 00h
DAF3 00          0 15903 DEFB 00h
DAF4 00          0 15904 DEFB 00h
DAF5 00          0 15905 DEFB 00h
DAF6 00          0 15906 DEFB 00h
DAF7 00          0 15907 DEFB 00h
DAF8 00          0 15908 DEFB 00h
DAF9 00          0 15909 DEFB 00h
DAFA 00          0 15910 DEFB 00h
DAFB 00          0 15911 DEFB 00h
DAFC 00          0 15912 DEFB 00h
DAFD 00          0 15913 DEFB 00h
DAFE 00          0 15914 DEFB 00h
DAFF 00          0 15915 DEFB 00h
DB00 00          0 15916 DEFB 00h
DB01 00          0 15917 DEFB 00h
DB02 00          0 15918 DEFB 00h
DB03 00          0 15919 DEFB 00h
DB04 00          0 15920 DEFB 00h
DB05 00          0 15921 DEFB 00h
DB06 00          0 15922 DEFB 00h
DB07 00          0 15923 DEFB 00h
DB08 00          0 15924 DEFB 00h
DB09 00          0 15925 DEFB 00h
DB0A 00          0 15926 DEFB 00h
DB0B 00          0 15927 DEFB 00h
DB0C 00          0 15928 DEFB 00h
DB0D 00          0 15929 DEFB 00h
DB0E 00          0 15930 DEFB 00h
DB0F 00          0 15931 DEFB 00h
DB10 00          0 15932 DEFB 00h
DB11 00          0 15933 DEFB 00h
DB12 00          0 15934 DEFB 00h
DB13 00          0 15935 DEFB 00h
DB14 00          0 15936 DEFB 00h
DB15 00          0 15937 DEFB 00h
DB16 00          0 15938 DEFB 00h
DB17 00          0 15939 DEFB 00h
DB18 00          0 15940 DEFB 00h
DB19 00          0 15941 DEFB 00h
DB1A 00          0 15942 DEFB 00h
DB1B 00          0 15943 DEFB 00h
DB1C 00          0 15944 DEFB 00h
DB1D 00          0 15945 DEFB 00h
DB1E 00          0 15946 DEFB 00h
DB1F 00          0 15947 DEFB 00h
DB20 00          0 15948 DEFB 00h
DB21 00          0 15949 DEFB 00h
DB22 00          0 15950 DEFB 00h
DB23 00          0 15951 DEFB 00h
DB24 00          0 15952 DEFB 00h
DB25 00          0 15953 DEFB 00h
DB26 00          0 15954 DEFB 00h
DB27 00          0 15955 DEFB 00h
DB28 00          0 15956 DEFB 00h
DB29 00          0 15957 DEFB 00h
DB2A 00          0 15958 DEFB 00h
DB2B 00          0 15959 DEFB 00h
DB2C 00          0 15960 DEFB 00h
DB2D 00          0 15961 DEFB 00h
DB2E 00          0 15962 DEFB 00h
DB2F 00          0 15963 DEFB 00h
DB30 00          0 15964 DEFB 00h
DB31 00          0 15965 DEFB 00h
DB32 00          0 15966 DEFB 00h
DB33 00          0 15967 DEFB 00h
DB34 00          0 15968 DEFB 00h
DB35 00          0 15969 DEFB 00h
DB36 00          0 15970 DEFB 00h
DB37 00          0 15971 DEFB 00h
DB38 00          0 15972 DEFB 00h
DB39 00          0 15973 DEFB 00h
DB3A 00          0 15974 DEFB 00h
DB3B 00          0 15975 DEFB 00h
DB3C 00          0 15976 DEFB 00h
DB3D 00          0 15977 DEFB 00h
DB3E 00          0 15978 DEFB 00h
DB3F 00          0 15979 DEFB 00h
DB40 00          0 15980 DEFB 00h
DB41 00          0 15981 DEFB 00h
DB42 00          0 15982 DEFB 00h
DB43 00          0 15983 DEFB 00h
DB44 00          0 15984 DEFB 00h
DB45 00          0 15985 DEFB 00h
DB46 00          0 15986 DEFB 00h
DB47 00          0 15987 DEFB 00h
DB48 00          0 15988 DEFB 00h
DB49 00          0 15989 DEFB 00h
DB4A 00          0 15990 DEFB 00h
DB4B 00          0 15991 DEFB 00h
DB4C 00          0 15992 DEFB 00h
DB4D 00          0 15993 DEFB 00h
DB4E 00          0 15994 DEFB 00h
DB4F 00          0 15995 DEFB 00h
DB50 00          0 15996 DEFB 00h
DB51 00          0 15997 DEFB 00h
DB52 00          0 15998 DEFB 00h
DB53 00          0 15999 DEFB 00h
DB54 00          0 16000 DEFB 00h
DB55 00          0 16001 DEFB 00h
DB56 00          0 16002 DEFB 00h
DB57 00          0 16003 DEFB 00h
DB58 00          0 16004 DEFB 00h
DB59 00          0 16005 DEFB 00h
DB5A 00          0 16006 DEFB 00h
DB5B 00          0 16007 DEFB 00h
DB5C 00          0 16008 DEFB 00h
DB5D 00          0 16009 DEFB 00h
DB5E 00          0 16010 DEFB 00h
DB5F 00          0 16011 DEFB 00h
DB60 00          0 16012 DEFB 00h
DB61 00          0 16013 DEFB 00h
DB62 00          0 16014 DEFB 00h
DB63 00          0 16015 DEFB 00h
DB64 00          0 16016 DEFB 00h
DB65 00          0 16017 DEFB 00h
DB66 00          0 16018 DEFB 00h
DB67 00          0 16019 DEFB 00h
DB68 00          0 16020 DEFB 00h
DB69 00          0 16021 DEFB 00h
DB6A 00          0 16022 DEFB 00h
DB6B 00          0 16023 DEFB 00h
DB6C 00          0 16024 DEFB 00h
DB6D 00          0 16025 DEFB 00h
DB6E 00          0 16026 DEFB 00h
DB6F 00          0 16027 DEFB 00h
DB70 00          0 16028 DEFB 00h
DB71 00          0 16029 DEFB 00h
DB72 00          0 16030 DEFB 00h
DB73 00          0 16031 DEFB 00h
DB74 00          0 16032 DEFB 00h
DB75 00          0 16033 DEFB 00h
DB76 00          0 16034 DEFB 00h
DB77 00          0 16035 DEFB 00h
DB78 00          0 16036 DEFB 00h
DB79 00          0 16037 DEFB 00h
DB7A 00          0 16038 DEFB 00h
DB7B 00          0 16039 DEFB 00h
DB7C 00          0 16040 DEFB 00h
DB7D 00          0 16041 DEFB 00h
DB7E 00          0 16042 DEFB 00h
DB7F 00          0 16043 DEFB 00h
DB80 00          0 16044 DEFB 00h
DB81 00          0 16045 DEFB 00h
DB82 00          0 16046 DEFB 00h
DB83 00          0 16047 DEFB 00h
DB84 00          0 16048 DEFB 00h
DB85 00          0 16049 DEFB 00h
DB86 00          0 16050 DEFB 00h
DB87 00          0 16051 DEFB 00h
DB88 00          0 16052 DEFB 00h
DB89 00          0 16053 DEFB 00h
DB8A 00          0 16054 DEFB 00h
DB8B 00          0 16055 DEFB 00h
DB8C 00          0 16056 DEFB 00h
DB8D 00          0 16057 DEFB 00h
DB8E 00          0 16058 DEFB 00h
DB8F 00          0 16059 DEFB 00h
DB90 00          0 16060 DEFB 00h
DB91 00          0 16061 DEFB 00h
DB92 00          0 16062 DEFB 00h
DB93 00          0 16063 DEFB 00h
DB94 00          0 16064 DEFB 00h
DB95 00          0 16065 DEFB 00h
DB96 00          0 16066 DEFB 00h
DB97 00          0 16067 DEFB 00h
DB98 00          0 16068 DEFB 00h
DB99 00          0 16069 DEFB 00h
DB9A 00          0 16070 DEFB 00h
DB9B 00          0 16071 DEFB 00h
DB9C 00          0 16072 DEFB 00h
DB9D 00          0 16073 DEFB 00h
DB9E 00          0 16074 DEFB 00h
DB9F 00          0 16075 DEFB 00h
DBA0 00          0 16076 DEFB 00h
DBA1 00          0 16077 DEFB 00h
DBA2 00          0 16078 DEFB 00h
DBA3 00          0 16079 DEFB 00h
DBA4 00          0 16080 DEFB 00h
DBA5 00          0 16081 DEFB 00h
DBA6 00          0 16082 DEFB 00h
DBA7 00          0 16083 DEFB 00h
DBA8 00          0 16084 DEFB 00h
DBA9 00          0 16085 DEFB 00h
DBAA 00          0 16086 DEFB 00h
DBAB 00          0 16087 DEFB 00h
DBAC 00          0 16088 DEFB 00h
DBAD 00          0 16089 DEFB 00h
DBAE 00          0 16090 DEFB 00h
DBAF 00          0 16091 DEFB 00h
DBB0 00          0 16092 DEFB 00h
DBB1 00          0 16093 DEFB 00h
DBB2 00          0 16094 DEFB 00h
DBB3 00          0 16095 DEFB 00h
DBB4 00          0 16096 DEFB 00h
DBB5 00          0 16097 DEFB 00h
DBB6 00          0 16098 DEFB 00h
DBB7 00          0 16099 DEFB 00h
DBB8 00          0 16100 DEFB 00h
DBB9 00          0 16101 DEFB 00h
DBBA 00          0 16102 DEFB 00h
DBBB 00          0 16103 DEFB 00h
DBBC 00          0 16104 DEFB 00h
DBBD 00          0 16105 DEFB 00h
DBBE 00          0 16106 DEFB 00h
DBBF 00          0 16107 DEFB 00h
DBC0 00          0 16108 DEFB 00h
DBC1 00          0 16109 DEFB 00h
DBC2 00          0 16110 DEFB 00h
DBC3 00          0 16111 DEFB 00h
DBC4 00          0 16112 DEFB 00h
DBC5 00          0 16113 DEFB 00h
DBC6 00          0 16114 DEFB 00h
DBC7 00          0 16115 DEFB 00h
DBC8 00          0 16116 DEFB 00h
DBC9 00          0 16117 DEFB 00h
DBCA 00          0 16118 DEFB 00h
DBCB 00          0 16119 DEFB 00h
DBCC 00          0 16120 DEFB 00h
DBCD 00          0 16121 DEFB 00h
DBCE 00          0 16122 DEFB 00h
DBCF 00          0 16123 DEFB 00h
DBD0 00          0 16124 DEFB 00h
DBD1 00          0 16125 DEFB 00h
DBD2 00          0 16126 DEFB 00h
DBD3 00          0 16127 DEFB 00h
DBD4 00          0 16128 DEFB 00h
DBD5 00          0 16129 DEFB 00h
DBD6 00          0 16130 DEFB 00h
DBD7 00          0 16131 DEFB 00h
DBD8 00          0 16132 DEFB 00h
DBD9 00          0 16133 DEFB 00h
DBDA 00          0 16134 DEFB 00h
DBDB 00          0 16135 DEFB 00h
DBDC 00          0 16136 DEFB 00h
DBDD 00          0 16137 DEFB 00h
DBDE 00          0 16138 DEFB 00h
DBDF 00          0 16139 DEFB 00h
DBE0 00          0 16140 DEFB 00h
DBE1 00          0 16141 DEFB 00h
DBE2 00          0 16142 DEFB 00h
DBE3 00          0 16143 DEFB 00h
DBE4 00          0 16144 DEFB 00h
DBE5 00          0 16145 DEFB 00h
DBE6 00          0 16146 DEFB 00h
DBE7 00          0 16147 DEFB 00h
DBE8 00          0 16148 DEFB 00h
DBE9 00          0 16149 DEFB 00h
DBEA 00          0 16150 DEFB 00h
DBEB 00          0 16151 DEFB 00h
DBEC 00          0 16152 DEFB 00h
DBED 00          0 16153 DEFB 00h
DBEE 00          0 16154 DEFB 00h
DBEF 00          0 16155 DEFB 00h
DBF0 00          0 16156 DEFB 00h
DBF1 00          0 16157 DEFB 00h
DBF2 00          0 16158 DEFB 00h
DBF3 00          0 16159 DEFB 00h
DBF4 00          0 16160 DEFB 00h
DBF5 00          0 16161 DEFB 00h
DBF6 00          0 16162 DEFB 00h
DBF7 00          0 16163 DEFB 00h
DBF8 00          0 16164 DEFB 00h
DBF9 00          0 16165 DEFB 00h
DBFA 00          0 16166 DEFB 00h
DBFB 00          0 16167 DEFB 00h
DBFC 00          0 16168 DEFB 00h
DBFD 00          0 16169 DEFB 00h
DBFE 00          0 16170 DEFB 00h
DBFF 00          0 16171 DEFB 00h
DC00 00          0 16172 DEFB 00h
DC01 00          0 16173 DEFB 00h
DC02 00          0 16174 DEFB 00h
DC03 00          0 16175 DEFB 00h
DC04 00          0 16176 DEFB 00h
DC05 00          0 16177 DEFB 00h
DC06 00          0 16178 DEFB 00h
DC07 00          0 16179 DEFB 00h
DC08 00          0 16180 DEFB 00h
DC09 00          0 16181 DEFB 00h
DC0A 00          0 16182 DEFB 00h
DC0B 00          0 16183 DEFB 00h
DC0C 00          0 16184 DEFB 00h
DC0D 00          0 16185 DEFB 00h
DC0E 00          0 16186 DEFB 00h
DC0F 00          0 16187 DEFB 00h
DC10 00          0 16188 DEFB 00h
DC11 00          0 16189 DEFB 00h
DC12 00          0 16190 DEFB 00h
DC13 00          0 16191 DEFB 00h
DC14 00          0 16192 DEFB 00h
DC15 00          0 16193 DEFB 00h
DC16 00          0 16194 DEFB 00h
DC17 00          0 16195 DEFB 00h
DC18 00          0 16196 DEFB 00h
DC19 00          0 16197 DEFB 00h
DC1A 00          0 16198 DEFB 00h
DC1B 00          0 16199 DEFB 00h
DC1C 00          0 16200 DEFB 00h
DC1D 00          0 16201 DEFB 00h
DC1E 00          0 16202 DEFB 00h
DC1F 00          0 16203 DEFB 00h
DC20 00          0 16204 DEFB 00h
DC21 00          0 16205 DEFB 00h
DC22 00          0 16206 DEFB 00h
DC23 00          0 16207 DEFB 00h
DC24 00          0 16208 DEFB 00h
DC25 00          0 16209 DEFB 00h
DC26 00          0 16210 DEFB 00h
DC27 00          0 16211 DEFB 00h
DC28 00          0 16212 DEFB 00h
DC29 00          0 16213 DEFB 00h
DC2A 00          0 16214 DEFB 00h
DC2B 00          0 16215 DEFB 00h
DC2C 00          0 16216 DEFB 00h
DC2D 00          0 16217 DEFB 00h
DC2E 00          0 16218 DEFB 00h
DC2F 00          0 16219 DEFB 00h
DC30 00          0 16220 DEFB 00h
DC31 00          0 16221 DEFB 00h
DC32 00          0 16222 DEFB 00h
DC33 00          0 16223 DEFB 00h
DC34 00          0 16224 DEFB 00h
DC35 00          0 16225 DEFB 00h
DC36 00          0 16226 DEFB 00h
DC37 00          0 16227 DEFB 00h
DC38 00          0 16228 DEFB 00h
DC39 00          0 16229 DEFB 00h
DC3A 00          0 16230 DEFB 00h
DC3B 00          0 16231 DEFB 00h
DC3C 00          0 16232 DEFB 00h
DC3D 00          0 16233 DEFB 00h
DC3E 00          0 16234 DEFB 00h
DC3F 00          0 16235 DEFB 00h
DC40 00          0 16236 DEFB 00h
DC41 00          0 16237 DEFB 00h
DC42 00          0 16238 DEFB 00h
DC43 00          0 16239 DEFB 00h
DC44 00          0 16240 DEFB 00h
DC45 00          0 16241 DEFB 00h
DC46 00          0 16242 DEFB 00h
DC47 00          0 16243 DEFB 00h
DC48 00          0 16244 DEFB 00h
DC49 00          0 16245 DEFB 00h
DC4A 00          0 16246 DEFB 00h
DC4B 00          0 16247 DEFB 00h
DC4C 00          0 16248 DEFB 00h
DC4D 00          0 16249 DEFB 00h
DC4E 00          0 16250 DEFB 00h
DC4F 00          0 16251 DEFB 00h
DC50 00          0 16252 DEFB 00h
DC51 00          0 16253 DEFB 00h
DC52 00          0 16254 DEFB 00h
DC53 00          0 16255 DEFB 00h
DC54 00          0 16256 DEFB 00h
DC55 00          0 16257 DEFB 00h
DC56 00          0 16258 DEFB 00h
DC57 00          0 16259 DEFB 00h
DC58 00          0 16260 DEFB 00h
DC59 00          0 16261 DEFB 00h
DC5A 00          0 16262 DEFB 00h
DC5B 00          0 16263 DEFB 00h
DC5C 00          0 16264 DEFB 00h
DC5D 00          0 16265 DEFB 00h
DC5E 00          0 16266 DEFB 00h
DC5F 00          0 16267 DEFB 00h
DC60 00          0 16268 DEFB 00h
DC61 00          0 16269 DEFB 00h
DC62 00          0 16270 DEFB 00h
DC63 00          0 16271 DEFB 00h
DC64 00          0 16272 DEFB 00h
DC65 00          0 16273 DEFB 00h
DC66 00          0 16274 DEFB 00h
DC67 00          0 16275 DEFB 00h
DC68 00          0 16276 DEFB 00h
DC69 00          0 16277 DEFB 00h
DC6A 00          0 16278 DEFB 00h
DC6B 00          0 16279 DEFB 00h
DC6C 00          0 16280 DEFB 00h
DC6D 00          0 16281 DEFB 00h
DC6E 00          0 16282 DEFB 00h
DC6F 00          0 16283 DEFB 00h
DC70 00          0 16284 DEFB 00h
DC71 00          0 16285 DEFB 00h
DC72 00          0 16286 DEFB 00h
DC73 00          0 16287 DEFB 00h
DC74 00          0 16288 DEFB 00h
DC75 00          0 16289 DEFB 00h
DC76 00          0 16290 DEFB 00h
DC77 00          0 16291 DEFB 00h
DC78 00          0 16292 DEFB 00h
DC79 00          0 16293 DEFB 00h
DC7A 00          0 16294 DEFB 00h
DC7B 00          0 16295 DEFB 00h
DC7C 00          0 16296 DEFB 00h
DC7D 00          0 16297 DEFB 00h
DC7E 00          0 16298 DEFB 00h
DC7F 00          0 16299 DEFB 00h
DC80 00          0 16300 DEFB 00h
DC81 00          0 16301 DEFB 00h
DC82 00          0 16302 DEFB 00h
DC83 00          0 16303 DEFB 00h
DC84 00          0 16304 DEFB 00h
DC85 00          0 16305 DEFB 00h
DC86 00          0 16306 DEFB 00h
DC87 00          0 16307 DEFB 00h
DC88 00          0 16308 DEFB 00h
DC89 00          0 16309 DEFB 00h
DC8A 00          0 16310 DEFB 00h
DC8B 00          0 16311 DEFB 00h
DC8C 00          0 16312 DEFB 00h
DC8D 00          0 16313 DEFB 00h
DC8E 00          0 16314 DEFB 00h
DC8F 00          0 16315 DEFB 00h
DC90 00          0 16316 DEFB 00h
DC91 00          0 16317 DEFB 00h
DC92 00          0 16318 DEFB 00h
DC93 00          0 16319 DEFB 00h
DC94 00          0 16320 DEFB 00h
DC95 00          0 16321 DEFB 00h
DC96 00          0 16322 DEFB 00h
DC97 00          0 16323 DEFB 00h
DC98 00          0 16324 DEFB 00h
DC99 00          0 16325 DEFB 00h
DC9A 00          0 16326 DEFB 00h
DC9B 00          0 16327 DEFB 00h
DC9C 00          0 16328 DEFB 00h
DC9D 00          0 16329 DEFB 00h
DC9E 00          0 16330 DEFB 00h
DC9F 00          0 16331 DEFB 00h
DCA0 00          0 16332 DEFB 00h
DCA1 00          0 16333 DEFB 00h
DCA2 00          0 16334 DEFB 00h
DCA3 00          0 16335 DEFB 00h
DCA4 00          0 16336 DEFB 00h
DCA5 00          0 16337 DEFB 00h
DCA6 00          0 16338 DEFB 00h
DCA7 00          0 16339 DEFB 00h
DCA8 00          0 16340 DEFB 00h
DCA9 00          0 16341 DEFB 00h
DCAA 00          0 16342 DEFB 00h
DCAB 00          0 16343 DEFB 00h
DCAC 00          0 16344 DEFB 00h
DCAD 00          0 16345 DEFB 00h
DCAE 00          0 16346 DEFB 00h
DCAF 00          0 16347 DEFB 00h
DCB0 00          0 16348 DEFB 00h
DCB1 00          0 16349 DEFB 00h
DCB2 00          0 16350 DEFB 00h
DCB3 00          0 16351 DEFB 00h
DCB4 00          0 16352 DEFB 00h
DCB5 00          0 16353 DEFB 00h
DCB6 00          0 16354 DEFB 00h
DCB7 00          0 16355 DEFB 00h
DCB8 00          0 16356 DEFB 00h
DCB9 00          0 16357 DEFB 00h
DCBA 00          0 16358 DEFB 00h
DCBB 00          0 16359 DEFB 00h
DCBC 00          0 16360 DEFB 00h
DCBD 00          0 16361 DEFB 00h
DCBE 00          0 16362 DEFB 00h
DCBF 00          0 16363 DEFB 00h
DCC0 00          0 16364 DEFB 00h
DCC1 00          0 16365 DEFB 00h
DCC2 00          0 16366 DEFB 00h
DCC3 00          0 16367 DEFB 00h
DCC4 00          0 16368 DEFB 00h
DCC5 00          0 16369 DEFB 00h
DCC6 00          0 16370 DEFB 00h
DCC7 00          0 16371 DEFB 00h
DCC8 00          0 16372 DEFB 00h
DCC9 00          0 16373 DEFB 00h
DCCA 00          0 16374 DEFB 00h
DCCB 00          0 16375 DEFB 00h
DCCC 00          0 16376 DEFB 00h
DCCD 00          0 16377 DEFB 00h
DCCE 00          0 16378 DEFB 00h
DCCF 00          0 16379 DEFB 00h
DCD0 00          0 16380 DEFB 00h
DCD1 00          0 16381 DEFB 00h
DCD2 00          0 16382 DEFB 00h
DCD3 00          0 16383 DEFB 00h
DCD4 00          0 16384 DEFB 00h
DCD5 00          0 16385 DEFB 00h
DCD6 00          0 16386 DEFB 00h
DCD7 00          0 16387 DEFB 00h
DCD8 00          0 16388 DEFB 00h
DCD9 00          0 16389 DEFB 00h
DCDA 00          0 16390 DEFB 00h
DCDB 00          0 16391 DEFB 00h
DCDC 00          0 16392 DEFB 00h
DCDD 00          0 16393 DEFB 00h
DCDE 00          0 16394 DEFB 00h
DCDF 00          0 16395 DEFB 00h
DCE0 00          0 16396 DEFB 00h
DCE1 00          0 16397 DEFB 00h
DCE2 00          0 16398 DEFB 00h
DCE3 00          0 16399 DEFB 00h
DCE4 00          0 16400 DEFB 00h
DCE5 00          0 16401 DEFB 00h
DCE6 00          0 16402 DEFB 00h
DCE7 00          0 16403 DEFB 00h
DCE8 00          0 16404 DEFB 00h
DCE9 00          0 16405 DEFB 00h
DCEA 00          0 16406 DEFB 00h
DCEB 00          0 16407 DEFB 00h
DCEC 00          0 16408 DEFB 00h
DCED 00          0 16409 DEFB 00h
DCEE 00          0 16410 DEFB 00h
DCEF 00          0 16411 DEFB 00h
DCF0 00          0 16412 DEFB 00h
DCF1 00          0 16413 DEFB 00h
DCF2 00          0 16414 DEFB 00h
DCF3 00          0 16415 DEFB 00h
DCF4 00          0 16416 DEFB 00h
DCF5 00          0 16417 DEFB 00h
DCF6 00          0 16418 DEFB 00h
DCF7 00          0 16419 DEFB 00h
DCF8 00          0 16420 DEFB 00h
DCF9 00          0 16421 DEFB 00h
DCFA 00          0 16422 DEFB 00h
DCFB 00          0 16423 DEFB 00h
DCFC 00          0 16424 DEFB 00h
DCFD 00          0 16425 DEFB 00h
DCFE 00          0 16426 DEFB 00h
DCFF 00          0 16427 DEFB 00h
DD00 00          0 16428 DEFB 00h
DD01 00          0 16429 DEFB 00h
DD02 00          0 16430 DEFB 00h
DD03 00          0 16431 DEFB 00h
DD04 00          0 16432 DEFB 00h
DD05 00          0 16433 DEFB 00h
DD06 00          0 16434 DEFB 00h
DD07 00          0 16435 DEFB 00h
DD08 00          0 16436 DEFB 00h
DD09 00          0 16437 DEFB 00h
DD0A 00          0 16438 DEFB 00h
DD0B 00          0 16439 DEFB 00h
DD0C 00          0 16440 DEFB 00h
DD0D 00          0 16441 DEFB 00h
DD0E 00          0 16442 DEFB 00h
DD0F 00          0 16443 DEFB 00h
DD10 00          0 16444 DEFB 00h
DD11 00          0 16445 DEFB 00h
DD12 00          0 16446 DEFB 00h
DD13 00          0 16447 DEFB 00h
DD14 00          0 16448 DEFB 00h
DD15 00          0 16449 DEFB 00h
DD16 00          0 16450 DEFB 00h
DD17 00          0 16451 DEFB 00h
DD18 00          0 16452 DEFB 00h
DD19 00          0 16453 DEFB 00h
DD1A 00          0 16454 DEFB 00h
DD1B 00          0 16455 DEFB 00h
DD1C 00          0 16456 DEFB 00h
DD1D 00          0 16457 DEFB 00h
DD1E 00          0 16458 DEFB 00h
DD1F 00          0 16459 DEFB 00h
DD20 00          0 16460 DEFB 00h
DD21 00          0 16461 DEFB 00h
DD22 00          0 16462 DEFB 00h
DD23 00          0 16463 DEFB 00h
DD24 00          0 16464 DEFB 00h
DD25 00          0 16465 DEFB 00h
DD26 00          0 16466 DEFB 00h
DD27 00          0 16467 DEFB 00h
DD28 00          0 16468 DEFB 00h
DD29 00          0 16469 DEFB 00h
DD2A 00          0 16470 DEFB 00h
DD2B 00          0 16471 DEFB 00h
DD2C 00          0 16472 DEFB 00h
DD2D 00          0 16473 DEFB 00h
DD2E 00          0 16474 DEFB 00h
DD2F 00          0 16475 DEFB 00h
DD30 00          0 16476 DEFB 00h
DD31 00          0 16477 DEFB 00h
DD32 00          0 16478 DEFB 00h
DD33 00          0 16479 DEFB 00h
DD34 00          0 16480 DEFB 00h
DD35 00          0 16481 DEFB 00h
DD36 00          0 16482 DEFB 00h
DD37 00          0 16483 DEFB 00h
DD38 00          0 16484 DEFB 00h
DD39 00          0 16485 DEFB 00h
DD3A 00          0 16486 DEFB 00h
DD3B 00          0 16487 DEFB 00h
DD3C 00          0 16488 DEFB 00h
DD3D 00          0 16489 DEFB 00h
DD3E 00          0 16490 DEFB 00h
DD3F 00          0 16491 DEFB 00h
DD40 00          0 16492 DEFB 00h
DD41 00          0 16493 DEFB 00h
DD42 00          0 16494 DEFB 00h
DD43 00          0 16495 DEFB 00h
DD44 00          0 16496 DEFB 00h
DD45 00          0 16497 DEFB 00h
DD46 00          0 16498 DEFB 00h
DD47 00          0 16499 DEFB 00h
DD48 00          0 16500 DEFB 00h
DD49 00          0 16501 DEFB 00h
DD4A 00          0 16502 DEFB 00h
DD4B 00          0 16503 DEFB 00h
DD4C 00          0 16504 DEFB 00h
DD4D 00          0 16505 DEFB 00h
DD4E 00          0 16506 DEFB 00h
DD4F 00          0 16507 DEFB 00h
DD50 00          0 16508 DEFB 00h
DD51 00          0 16509 DEFB 00h
DD52 00          0 16510 DEFB 00h
DD53 00          0 16511 DEFB 00h
DD54 00          0 16512 DEFB 00h
DD55 00          0 16513 DEFB 00h
DD56 00          0 16514 DEFB 00h
DD57 00          0 16515 DEFB 00h
DD58 00          0 16516 DEFB 00h
DD59 00          0 16517 DEFB 00h
DD5A 00          0 16518 DEFB 00h
DD5B 00          0 16519 DEFB 00h
DD5C 00          0 16520 DEFB 00h
DD5D 00          0 16521 DEFB 00h
DD5E 00          0 16522 DEFB 00h
DD5F 00          0 16523 DEFB 00h
DD60 00          0 16524 DEFB 00h
DD61 00          0 16525 DEFB 00h
DD62 00          0 16526 DEFB 00h
DD63 00          0 16527 DEFB 00h
DD64 00          0 16528 DEFB 00h
DD65 00          0 16529 DEFB 00h
DD66 00          0 16530 DEFB 00h
DD67 00          0 16531 DEFB 00h
DD68 00          0 16532 DEFB 00h
DD69 00          0 16533 DEFB 00h
DD6A 00          0 16534 DEFB 00h
DD6B 00          0 16535 DEFB 00h
DD6C 00          0 16536 DEFB 00h
DD6D 00          0 16537 DEFB 00h
DD6E 00          0 16538 DEFB 00h
DD6F 00          0 16539 DEFB 00h
DD70 00          0 16540 DEFB 00h
DD71 00          0 16541 DEFB 00h
DD72 00          0 16542 DEFB 00h
DD73 00          0 16543 DEFB 00h
DD74 00          0 16544 DEFB 00h
DD75 00          0 16545 DEFB 00h
DD76 00          0 16546 DEFB 00h
DD77 00          0 16547 DEFB 00h
DD78 00          0 16548 DEFB 00h
DD79 00          0 16549 DEFB 00h
DD7A 00          0 16550 DEFB 00h
DD7B 00          0 16551 DEFB 00h
DD7C 00          0 16552 DEFB 00h
DD7D 00          0 16553 DEFB 00h
DD7E 00          0 16554 DEFB 00h
DD7F 00          0 16555 DEFB 00h
DD80 00          0 16556 DEFB 00h
DD81 00          0 16557 DEFB 00h
DD82 00          0 16558 DEFB 00h
DD83 00          0 16559 DEFB 00h
DD84 00          0 16560 DEFB 00h
DD85 00          0 16561 DEFB 00h
DD86 00          0 16562 DEFB 00h
DD87 00          0 16563 DEFB 00h
DD88 00          0 16564 DEFB 00h
DD89 00          0 16565 DEFB 00h
DD8A 00          0 16566 DEFB 00h
DD8B 00          0 16567 DEFB 00h
DD8C 00          0 16568 DEFB 00h
DD8D 00          0 16569 DEFB 00h
DD8E 00          0 16570 DEFB 00h
DD8F 00          0 16571 DEFB 00h
DD90 00          0 16572 DEFB 00h
DD91 00          0 16573 DEFB 00h
DD92 00          0 16574 DEFB 00h
DD93 00          0 16575 DEFB 00h
DD94 00          0 16576 DEFB 00h
DD95 00          0 16577 DEFB 00h
DD96 00          0 16578 DEFB 00h
DD97 00          0 16579 DEFB 00h
DD98 00          0 16580 DEFB 00h
DD99 00          0 16581 DEFB 00h
DD9A 00          0 16582 DEFB 00h
DD9B 00          0 16583 DEFB 00h
DD9C 00          0 16584 DEFB 00h
DD9D 00          0 16585 DEFB 00h
DD9E 00          0 16586 DEFB 00h
DD9F 00          0 16587 DEFB 00h
DDA0 00          0 16588 DEFB 00h
DDA1 00          0 16589 DEFB 00h
DDA2 00          0 16590 DEFB 00h
DDA3 00          0 16591 DEFB 00h
DDA4 00          0 16592 DEFB 00h
DDA5 00          0 16593 DEFB 00h
DDA6 00          0 16594 DEFB 00h
DDA7 00          0 16595 DEFB 00h
DDA8 00          0 16596 DEFB 00h
DDA9 00          0 16597 DEFB 00h
DDAA 00          0 16598 DEFB 00h
DDAB 00          0 16599 DEFB 00h
DDAC 00          0 16600 DEFB 00h
DDAD 00          0 16601 DEFB 00h
DDAE 00          0 16602 DEFB 00h
DDAF 00          0 16603 DEFB 00h
DDB0 00          0 16604 DEFB 00h
DDB1 00          0 16605 DEFB 00h
DDB2 00          0 16606 DEFB 00h
DDB3 00          0 16607 DEFB 00h
DDB4 00          0 16608 DEFB 00h
DDB5 00          0 16609 DEFB 00h
DDB6 00          0 16610 DEFB 00h
DDB7 00          0 16611 DEFB 00h
DDB8 00          0 16612 DEFB 00h
DDB9 00          0 16613 DEFB 00h
DDBA 00          0 16614 DEFB 00h
DDBB 00          0 16615 DEFB 00h
DDBC 00          0 16616 DEFB 00h
DDBD 00          0 16617 DEFB 00h
DDBE 00          0 16618 DEFB 00h
DDBF 00          0 16619 DEFB 00h
DDC0 00          0 16620 DEFB 00h
DDC1 00          0 16621 DEFB 00h
DDC2 00          0 16622 DEFB 00h
DDC3 00          0 16623 DEFB 00h
DDC4 00          0 16624 DEFB 00h
DDC5 00          0 16625 DEFB 00h
DDC6 00          0 16626 DEFB 00h
DDC7 00          0 16627 DEFB 00h
DDC8 00          0 16628 DEFB 00h
DDC9 00          0 16629 DEFB 00h
DDCA 00          0 16630 DEFB 00h
DDCB 00          0 16631 DEFB 00h
DDCC 00          0 16632 DEFB 00h
DDCD 00          0 16633 DEFB 00h
DDCE 00          0 16634 DEFB 00h
DDCF 00          0 16635 DEFB 00h
DDD0 00          0 16636 DEFB 00h
DDD1 00          0 16637 DEFB 00h
DDD2 00          0 16638 DEFB 00h
DDD3 00          0 16639 DEFB 00h
DDD4 00          0 16640 DEFB 00h
DDD5 00          0 16641 DEFB 00h
DDD6 00          0 16642 DEFB 00h
DDD7 00          0 16643 DEFB 00h
DDD8 00          0 16644 DEFB 00h
DDD9 00          0 16645 DEFB 00h
DDDA 00          0 16646 DEFB 00h
DDDB 00          0 16647 DEFB 00h
DDDC 00          0 16648 DEFB 00h
DDDD 00          0 16649 DEFB 00h
DDDE 00          0 16650 DEFB 00h
DDDF 00          0 16651 DEFB 00h
DDE0 00          0 16652 DEFB 00h
DDE1 00          0 16653 DEFB 00h
DDE2 00          0 16654 DEFB 00h
DDE3 00          0 16655 DEFB 00h
DDE4 00          0 16656 DEFB 00h
DDE5 00          0 16657 DEFB 00h
DDE6 00          0 16658 DEFB 00h
DDE7 00          0 16659 DEFB 00h
DDE8 00          0 16660 DEFB 00h
DDE9 00          0 16661 DEFB 00h
DDEA 00          0 16662 DEFB 00h
DDEB 00          0 16663 DEFB 00h
DDEC 00          0 16664 DEFB 00h
DDED 00          0 16665 DEFB 00h
DDEE 00          0 16666 DEFB 00h
DDEF 00          0 16667 DEFB 00h
DDF0 00          0 16668 DEFB 00h
DDF1 00          0 16669 DEFB 00h
DDF2 00          0 16670 DEFB 00h
DDF3 00          0 16671 DEFB 00h
DDF4 00          0 16672 DEFB 00h
DDF5 00          0 16673 DEFB 00h
DDF6 00          0 16674 DEFB 00h
DDF7 00          0 16675 DEFB 00h
DDF8 00          0 16676 DEFB 00h
DDF9 00          0 16677 DEFB 00h
DDFA 00          0 16678 DEFB 00h
DDFB 00          0 16679 DEFB 00h
DDFC 00          0 16680 DEFB 00h
DDFD 00          0 16681 DEFB 00h
DDFE 00          0 16682 DEFB 00h
DDFF 00          0 16683 DEFB 00h
DE00 00          0 16684 DEFB 00h
DE01 00          0 16685 DEFB 00h
DE02 00          0 16686 DEFB 00h
DE03 00          0 16687 DEFB 00h
DE04 00          0 16688 DEFB 00h
DE05 00          0 16689 DEFB 00h
DE06 00          0 16690 DEFB 00h
DE07 00          0 16691 DEFB 00h
DE08 00          0 16692 DEFB 00h
DE09 00          0 16693 DEFB 00h
DE0A 00          0 16694 DEFB 00h
DE0B 00          0 16695 DEFB 00h
DE0C 00          0 16696 DEFB 00h
DE0D 00          0 16697 DEFB 00h
DE0E 00          0 16698 DEFB 00h
DE0F 00          0 16699 DEFB 00h
DE10 00          0 16700 DEFB 00h
DE11 00          0 16701 DEFB 00h
DE12 00          0 16702 DEFB 00h
DE13 00          0 16703 DEFB 00h
DE14 00          0 16704 DEFB 00h
DE15 00          0 16705 DEFB 00h
DE16 00          0 16706 DEFB 00h
DE17 00          0 16707 DEFB 00h
DE18 00          0 16708 DEFB 00h
DE19 00          0 16709 DEFB 00h
DE1A 00          0 16710 DEFB 00h
DE1B 00          0 16711 DEFB 00h
DE1C 00          0 16712 DEFB 00h
DE1D 00          0 16713 DEFB 00h
DE1E 00          0 16714 DEFB 00h
DE1F 00          0 16715 DEFB 00h
DE20 00          0 16716 DEFB 00h
DE21 00          0 16717 DEFB 00h
DE22 00          0 16718 DEFB 00h
DE23 00          0 16719 DEFB 00h
DE24 00          0 16720 DEFB 00h
DE25 00          0 16721 DEFB 00h
DE26 00          0 16722 DEFB 00h
DE27 00          0 16723 DEFB 00h
DE28 00          0 16724 DEFB 00h
DE29 00          0 16725 DEFB 00h
DE2A 00          0 16726 DEFB 00h
DE2B 00          0 16727 DEFB 00h
DE2C 00          0 16728 DEFB 00h
DE2D 00          0 16729 DEFB 00h
DE2E 00          0 16730 DEFB 00h
DE2F 00          0 16731 DEFB 00h
DE30 00          0 16732 DEFB 00h
DE31 00          0 16733 DEFB 00h
DE32 00          0 16734 DEFB 00h
DE33 00          0 16735 DEFB 00h
DE34 00          0 16736 DEFB 00h
DE35 00          0 16737 DEFB 00h
DE36 00          0 16738 DEFB 00h
DE37 00          0 16739 DEFB 00h
DE38 00          0 16740 DEFB 00h
DE39 00          0 16741 DEFB 00h
DE3A 00          0 16742 DEFB 00h
DE3B 00          0 16743 DEFB 00h
DE3C 00          0 16744 DEFB 00h
DE3D 00          0 16745 DEFB 00h
DE3E 00          0 16746 DEFB 00h
DE3F 00          0 16747 DEFB 00h
DE40 00          0 16748 DEFB 00h
DE41 00          0 16749 DEFB 00h
DE42 00          0 16750 DEFB 00h
DE43 00          0 16751 DEFB 00h
DE44 00          0 16752 DEFB 00h
DE45 00          0 16753 DEFB 00h
DE46 00          0 16754 DEFB 00h
DE47 00          0 16755 DEFB 00h
DE48 00          0 16756 DEFB 00h
DE49 00          0 16757 DEFB 00h
DE4A 00          0 16758 DEFB 00h
DE4B 00          0 16759 DEFB 00h
DE4C 00          0 16760 DEFB 00h
DE4D 00          0 16761 DEFB 00h
DE4E 00          0 16762 DEFB 00h
DE4F 00          0 16763 DEFB 00h
DE50 00          0 16764 DEFB 00h
DE51 00          0 16765 DEFB 00h
DE52 00          0 16766 DEFB 00h
DE53 00          0 16767 DEFB 00h
DE54 00          0 16768 DEFB 00h
DE55 00          0 16769 DEFB 00h
DE56 00          0 16770 DEFB 00h
DE57 00          0 16771 DEFB 00h
DE58 00          0 16772 DEFB 00h
DE59 00          0 16773 DEFB 00h
DE5A 00          0 16774 DEFB 00h
DE5B 00          0 16775 DEFB 00h
DE5C 00          0 16776 DEFB 00h
DE5D 00          0 16777 DEFB 00h
DE5E 00          0 16778 DEFB 00h
DE5F 00          0 16779 DEFB 00h
DE60 00          0 16780 DEFB 00h
DE61 00          0 16781 DEFB 00h
DE62 00          0 16782 DEFB 00h
DE63 00          0 16783 DEFB 00h
DE64 00          0 16784 DEFB 00h
DE65 00          0 16785 DEFB 00h
DE66 00          0 16786 DEFB 00h
DE67 00          0 16787 DEFB 00h
DE68 00          0 16788 DEFB 00h
DE69 00          0 16789 DEFB 00h
DE6A 00          0 16790 DEFB 00h
DE6B 00          0 16791 DEFB 00h
DE6C 00          0 16792 DEFB 00h
DE6D 00          0 16793 DEFB 00h
DE6E 00          0 16794 DEFB 00h
DE6F 00          0 16795 DEFB 00h
DE70 00          0 16796 DEFB 00h
DE71 00          0 16797 DEFB 00h
DE72 00          0 16798 DEFB 00h
DE73 00          0 16799 DEFB 00h
DE74 00          0 16800 DEFB 00h
DE75 00          0 16801 DEFB 00h
DE76 00          0 16802 DEFB 00h
DE77 00          0 16803 DEFB 00h
DE78 00          0 16804 DEFB 00h
DE79 00          0 16805 DEFB 00h
DE7A 00          0 16806 DEFB 00h
DE7B 00          0 16807 DEFB 00h
DE7C 00          0 16808 DEFB 00h
DE7D 00          0 16809 DEFB 00h
DE7E 00          0 16810 DEFB 00h
DE7F 00          0 16811 DEFB 00h
DE80 00          0 16812 DEFB 00h
DE81 00          0 16813 DEFB 00h
DE82 00          0 16814 DEFB 00h
DE83 00          0 16815 DEFB 00h
DE84 00          0 16816 DEFB 00h
DE85 00          0 16817 DEFB 00h
DE86 00          0 16818 DEFB 00h
DE87 00          0 16819 DEFB 00h
DE88 00          0 16820 DEFB 00h
DE89 00          0 16821 DEFB 00h
DE8A 00          0 16822 DEFB 00h
DE8B 00          0 16823 DEFB 00h
DE8C 00          0 16824 DEFB 00h
DE8D 00          0 16825 DEFB 00h
DE8E 00          0 16826 DEFB 00h
DE8F 00          0 16827 DEFB 00h
DE90 00          0 16828 DEFB 00h
DE91 00          0 16829 DEFB 00h
DE92 00          0 16830 DEFB 00h
DE93 00          0 16831 DEFB 00h
DE94 00          0 16832 DEFB 00h
DE95 00          0 16833 DEFB 00h
DE96 00          0 16834 DEFB 00h
DE97 00          0 16835 DEFB 00h
DE98 00          0 16836 DEFB 00h
DE99 00          0 16837 DEFB 00h
DE9A 00          0 16838 DEFB 00h
DE9B 00          0 16839 DEFB 00h
DE9C 00          0 16840 DEFB 00h
DE9D 00          0 16841 DEFB 00h
DE9E 00          0 16842 DEFB 00h
DE9F 00          0 16843 DEFB 00h
DEA0 00          0 16844 DEFB 00h
DEA1 00          0 16845 DEFB 00h
DEA2 00          0 16846 DEFB 00h
DEA3 00          0 16847 DEFB 00h
DEA4 00          0 16848 DEFB 00h
DEA5 00          0 16849 DEFB 00h
DEA6 00          0 16850 DEFB 00h
DEA7 00          0 16851 DEFB 00h
DEA8 00          0 16852 DEFB 00h
DEA9 00          0 16853 DEFB 00h
DEAA 00          0 16854 DEFB 00h
DEAB 00          0 16855 DEFB 00h
DEAC 00          0 16856 DEFB 00h
DEAD 00          0 16857 DEFB 00h
DEAE 00          0 16858 DEFB 00h
DEAF 00          0 16859 DEFB 00h
DEB0 00          0 16860 DEFB 00h
DEB1 00          0 16861 DEFB 00h
DEB2 00          0 16862 DEFB 00h
DEB3 00          0 16863 DEFB 00h
DEB4 00          0 16864 DEFB 00h
DEB5 00          0 16865 DEFB 00h
DEB6 00          0 16866 DEFB 00h
DEB7 00          0 16867 DEFB 00h
DEB8 00          0 16868 DEFB 00h
DEB9 00          0 16869 DEFB 00h
DEBA 00          0 16870 DEFB 00h
DEBB 00          0 16871 DEFB 00h
DEBC 00          0 16872 DEFB 00h
DEBD 00          0 16873 DEFB 00h
DEBE 00          0 16874 DEFB 00h
DEBF 00          0 16875 DEFB 00h
DEC0 00          0 16876 DEFB 00h
DEC1 00          0 16877 DEFB 00h
DEC2 00          0 16878 DEFB 00h
DEC3 00          0 16879 DEFB 00h
DEC4 00          0 16880 DEFB 00h
DEC5 00          0 16881 DEFB 00h
DEC6 00          0 16882 DEFB 00h
DEC7 00          0 16883 DEFB 00h
DEC8 00          0 16884 DEFB 00h
DEC9 00          0 16885 DEFB 00h
DECA 00          0 16886 DEFB 00h
DECB 00          0 16887 DEFB 00h
DECC 00          0 16888 DEFB 00h
DECD 00          0 16889 DEFB 00h
DECE 00          0 16890 DEFB 00h
DECF 00          0 16891 DEFB 00h
DED0 00          0 16892 DEFB 00h
DED1 00          0 16893 DEFB 00h
DED2 00          0 16894 DEFB 00h
DED3 00          0 16895 DEFB 00h
DED4 00          0 16896 DEFB 00h
DED5 00          0 16897 DEFB 00h
DED6 00          0 16898 DEFB 00h
DED7 00          0 16899 DEFB 00h
DED8 00          0 16900 DEFB 00h
DED9 00          0 16901 DEFB 00h
DEDA 00          0 16902 DEFB 00h
DEDB 00          0 16903 DEFB 00h
DEDC 00          0 16904 DEFB 00h
DEDD 00          0 16905 DEFB 00h
DEDE 00          0 16906 DEFB 00h
DEDF 00          0 16907 DEFB 00h
DEE0 00          0 16908 DEFB 00h
DEE1 00          0 16909 DEFB 00h
DEE2 00          0 16910 DEFB 00h
DEE3 00          0 16911 DEFB 00h
DEE4 00          0 16912 DEFB 00h
DEE5 00          0 16913 DEFB 00h
DEE6 00          0 16914 DEFB 00h
DEE7 00          0 16915 DEFB 00h
DEE8 00          0 16916 DEFB 00h
DEE9 00          0 16917 DEFB 00h
DEEA 00          0 16918 DEFB 00h
DEEB 00          0 16919 DEFB 00h
DEEC 00          0 16920 DEFB 00h
DEED 00          0 16921 DEFB 00h
DEEE 00          0 16922 DEFB 00h
DEEF 00          0 16923 DEFB 00h
DEF0 00          0 16924 DEFB 00h
DEF1 00          0 16925 DEFB 00h
DEF2 00          0 16926 DEFB 00h
DEF3 00          0 16927 DEFB 00h
DEF4 00          0 16928 DEFB 00h
DEF5 00          0 16929 DEFB 00h
DEF6 00          0 16930 DEFB 00h
DEF7 00          0 16931 DEFB 00h
DEF8 00          0 16932 DEFB 00h
DEF9 00          0 16933 DEFB 00h
DEFA 00          0 16934 DEFB 00h
DEFB 00          0 16935 DEFB 00h
DEFC 00          0 16936 DEFB 00h
DEFD 00          0 16937 DEFB 00h
DEFE 00          0 16938 DEFB 00h
DEFF 00          0 16939 DEFB 00h
DF00 00          0 16940 DEFB 00h
DF01 00          0 16941 DEFB 00h
DF02 00          0 16942 DEFB 00h
DF03 00          0 16943 DEFB 00h
DF04 00          0 16944 DEFB 00h
DF05 00          0 16945 DEFB 00h
DF06 00          0 16946 DEFB 00h
DF07 00          0 16947 DEFB 00h
DF08 00          0 16948 DEFB 00h
DF09 00          0 16949 DEFB 00h
DF0A 00          0 16950 DEFB 00h
DF0B 00          0 16951 DEFB 00h
DF0C 00          0 16952 DEFB 00h
DF0D 00          0 16953 DEFB 00h
DF0E 00          0 16954 DEFB 00h
DF0F 00          0 16955 DEFB 00h
DF10 00          0 16956 DEFB 00h
DF11 00          0 16957 DEFB 00h
DF12 00          0 16958 DEFB 00h
DF13 00          0 16959 DEFB 00h
DF14 00          0 16960 DEFB 00h
DF15 00          0 16961 DEFB 00h
DF16 00          0 16962 DEFB 00h
DF17 00          0 16963 DEFB 00h
DF18 00          0 16964 DEFB 00h
DF19 00          0 16965 DEFB 00h
DF1A 00          0 16966 DEFB 00h
DF1B 00          0 16967 DEFB 00h
DF1C 00          0 16968 DEFB 00h
DF1D 00          0 16969 DEFB 00h
DF1E 00          0 16970 DEFB 00h
DF1F 00          0 16971 DEFB 00h
DF20 00          0 16972 DEFB 00h
DF21 00          0 16973 DEFB 00h
DF22 00          0 16974 DEFB 00h
DF23 00          0 16975 DEFB 00h
DF24 00          0 16976 DEFB 00h
DF25 00          0 16977 DEFB 00h
DF26 00          0 16978 DEFB 00h
DF27 00          0 16979 DEFB 00h
DF28 00          0 16980 DEFB 00h
DF29 00          0 16981 DEFB 00h
DF2A 00          0 16982 DEFB 00h
DF2B 00          0 16983 DEFB 00h
DF2C 00          0 16984 DEFB 00h
DF2D 00          0 16985 DEFB 00h
DF2E 00          0 16986 DEFB 00h
DF2F 00          0 16987 DEFB 00h
DF30 00          0 16988 DEFB 00h
DF31 00          0 16989 DEFB 00h
DF32 00          0 16990 DEFB 00h
DF33 00          0 16991 DEFB 00h
DF34 00          0 16992 DEFB 00h
DF35 00          0 16993 DEFB 00h
DF36 00          0 16994 DEFB 00h
DF37 00          0 16995 DEFB 00h
DF38 00          0 16996 DEFB 00h
DF39 00          0 16997 DEFB 00h
DF3A 00          0 16998 DEFB 00h
DF3B 00          0 16999 DEFB 00h
DF3C 00          0 17000 DEFB 00h
DF3D 00          0 17001 DEFB 00h
DF3E 00          0 17002 DEFB 00h
DF3F 00          0 17003 DEFB 00h
DF40 00          0 17004 DEFB 00h
DF41 00          0 17005 DEFB 00h
DF42 00          0 17006 DEFB 00h
DF43 00          0 17007 DEFB 00h
DF44 00          0 17008 DEFB 00h
DF45 00          0 17009 DEFB 00h
DF46 00          0 17010 DEFB 00h
DF47 00          0 17011 DEFB 00h
DF48 00          0 17012 DEFB 00h
DF49 00          0 17013 DEFB 00h
DF4A 00          0 17014 DEFB 00h
DF4B 00          0 17015 DEFB 00h
DF4C 00          0 17016 DEFB 00h
DF4D 00          0 17017 DEFB 00h
DF4E 00          0 17018 DEFB 00h
DF4F 00          0 17019 DEFB 00h
DF50 00          0 17020 DEFB 00h
DF51 00          0 17021 DEFB 00h
DF52 00          0 17022 DEFB 00h
DF53 00          0 17023 DEFB 00h
DF54 00          0 17024 DEFB 00h
DF55 00          0 17025 DEFB 00h
DF56 00          0 17026 DEFB 00h
DF57 00          0 17027 DEFB 00h
DF58 00          0 17028 DEFB 00h
DF59 00          0 17029 DEFB 00h
DF5A 00          0 17030 DEFB 00h
DF5B 00          0 17031 DEFB 00h
DF5C 00          0 17032 DEFB 00h
DF5D 00          0 17033 DEFB 00h
DF5E 00          0 17034 DEFB 00h
DF5F 00          0 17035 DEFB 00h
DF60 00          0 17036 DEFB 00h
DF61 00          0 17037 DEFB 00h
DF62 00          0 17038 DEFB 00h
DF63 00          0 17039 DEFB 00h
DF64 00          0 17040 DEFB 00h
DF65 00          0 17041 DEFB 00h
DF66 00          0 17042 DEFB 00h
DF67 00          0 17043 DEFB 00h
DF68 00          0 17044 DEFB 00h
DF69 00          0 17045 DEFB 00h
DF6A 00          0 17046 DEFB 00h
DF6B 00          0 17047 DEFB 00h
DF6C 00          0 17048 DEFB 00h
DF6D 00          0 17049 DEFB 00h
DF6E 00          0 17050 DEFB 00h
DF6F 00          0 17051 DEFB 00h
DF70 00          0 17052 DEFB 00h
DF71 00          0 17053 DEFB 00h
DF72 00          0 17054 DEFB 00h
DF73 00          0 17055 DEFB 00h
DF74 00          0 17056 DEFB 00h
DF75 00          0 17057 DEFB 00h
DF76 00          0 17058 DEFB 00h
DF77 00          0 17059 DEFB 00h
DF78 00          0 17060 DEFB 00h
DF79 00          0 17061 DEFB 00h
DF7A 00          0 17062 DEFB 00h
DF7B 00          0 17063 DEFB 00h
DF7C 00          0 17064 DEFB 00h
DF7D 00          0 17065 DEFB 00h
DF7E 00          0 17066 DEFB 00h
DF7F 00          0 17067 DEFB 00h
DF80 00          0 17068 DEFB 00h
DF81 00          0 17069 DEFB 00h
DF82 00          0 17070 DEFB 00h
DF83 00          0 17071 DEFB 00h
DF84 00          0 17072 DEFB 00h
DF85 00          0 17073 DEFB 00h
DF86 00          0 17074 DEFB 00h
DF87 00          0 17075 DEFB 00h
DF88 00          0 17076 DEFB 00h
DF89 00          0 17077 DEFB 00h
DF8A 00          0 17078 DEFB 00h
DF8B 00          0 17079 DEFB 00h
DF8C 00          0 17080 DEFB 00h
DF8D 00          0 17081 DEFB 00h
DF8E 00          0 17082 DEFB 00h
DF8F 00          0 17083 DEFB 00h
DF90 00          0 17084 DEFB 00h
DF91 00          0 17085 DEFB 00h
DF92 00          0 17086 DEFB 00h
DF93 00          0 17087 DEFB 00h
DF94 00          0 17088 DEFB 00h
DF95 00          0 17089 DEFB 00h
DF96 00          0 17090 DEFB 00h
DF97 00          0 17091 DEFB 00h
DF98 00          0 17092 DEFB 00h
DF99 00          0 17093 DEFB 00h
DF9A 00          0 17094 DEFB 00h
DF9B 00          0 17095 DEFB 00h
DF9C 00          0 17096 DEFB 00h
DF9D 00          0 17097 DEFB 00h
DF9E 00          0 17098 DEFB 00h
DF9F 00          0 17099 DEFB 00h
DFA0 00          0 17100 DEFB 00h
DFA1 00          0 17101 DEFB 00h
DFA2 00          0 17102 DEFB 00h
DFA3 00          0 17103 DEFB 00h
DFA4 00          0 17104 DEFB 00h
DFA5 00          0 17105 DEFB 00h
DFA6 00          0 17106 DEFB 00h
DFA7 00          0 17107 DEFB 00h
DFA8 00          0 17108 DEFB 00h
DFA9 00          0 17109 DEFB 00h
DFAA 00          0 17110 DEFB 00h
DFAB 00          0 17111 DEFB 00h
DFAC 00          0 17112 DEFB 00h
DFAD 00          0 17113 DEFB 00h
DFAE 00          0 17114 DEFB 00h
DFAF 00          0 17115 DEFB 00h
DFB0 00          0 17116 DEFB 00h
DFB1 00          0 17117 DEFB 00h
DFB2 00          0 17118 DEFB 00h
DFB3 00          0 17119 DEFB 00h
DFB4 00          0 17120 DEFB 00h
DFB5 00          0 17121 DEFB 00h
DFB6 00          0 17122 DEFB 00h
DFB7 00          0 17123 DEFB 00h
DFB8 00          0 17124 DEFB 00h
DFB9 00          0 17125 DEFB 00h
DFBA 00          0 17126 DEFB 00h
DFBB 00          0 17127 DEFB 00h
DFBC 00          0 17128 DEFB 00h
DFBD 00          0 17129 DEFB 00h
DFBE 00          0 17130 DEFB 00h
DFBF 00          0 17131 DEFB 00h
DFC0 00          0 17132 DEFB 00h
DFC1 00          0 17133 DEFB 00h
DFC2 00          0 17134 DEFB 00h
DFC3 00          0 17135 DEFB 00h
DFC4 00          0 17136 DEFB 00h
DFC5 00          0 17137 DEFB 00h
DFC6 00          0 17138 DEFB 00h
DFC7 00          0 17139 DEFB 00h
DFC8 00          0 17140 DEFB 00h
DFC9 00          0 17141 DEFB 00h
DFCA 00          0 17142 DEFB 00h
DFCB 00          0 17143 DEFB 00h
DFCC 00          0 17144 DEFB 00h
DFCD 00          0 17145 DEFB 00h
DFCE 00          0 17146 DEFB 00h
DFCF 00          0 17147 DEFB 00h
DFD0 00          0 17148 DEFB 00h
DFD1 00          0 17149 DEFB 00h
DFD2 00          0 17150 DEFB 00h
DFD3 00          0 17151 DEFB 00h
DFD4 00          0 17152 DEFB 00h
DFD5 00          0 17153 DEFB 00h
DFD6 00          0 17154 DEFB 00h
DFD7 00          0 17155 DEFB 00h
DFD8 00          0 17156 DEFB 00h
DFD9 00          0 17157 DEFB 00h
DFDA 00          0 17158 DEFB 00h
DFDB 00          0 17159 DEFB 00h
DFDC 00          0 17160 DEFB 00h
DFDD 00          0 17161 DEFB 00h
DFDE 00          0 17162 DEFB 00h
DFDF 00          0 17163 DEFB 00h
DFE0 00          0 17164 DEFB 00h
DFE1 00          0 17165 DEFB 00h
DFE2 00          0 17166 DEFB 00h
DFE3 00          0 17167 DEFB 00h
DFE4 00          0 17168 DEFB 00h
DFE5 00          0 17169 DEFB 00h
DFE6 00          0 17170 DEFB 00h
DFE7 00          0 17171 DEFB 00h
DFE8 00          0 17172 DEFB 00h
DFE9 00          0 17173 DEFB 00h
DFEA 00          0 17174 DEFB 00h
DFEB 00          0 17175 DEFB 00h
DFEC 00          0 17176 DEFB 00h
DFED 00          0 17177 DEFB 00h
DFEE 00          0 17178 DEFB 00h
DFEF 00          0 17179 DEFB 00h
DFF0 00          0 17180 DEFB 00h
DFF1 00          0 17181 DEFB 00h
DFF2 00          0 17182 DEFB 00h
DFF3 00          0 17183 DEFB 00h
DFF4 00          0 17184 DEFB 00h
DFF5 00          0 17185 DEFB 00h
DFF6 00          0 17186 DEFB 00h
DFF7 00          0 17187 DEFB 00h
DFF8 00          0 17188 DEFB 00h
DFF9 00          0 17189 DEFB 00h
DFFA 00          0 17190 DEFB 00h
DFFB 00          0 17191 DEFB 00h
DFFC 00          0 17192 DEFB 00h
DFFD 00          0 17193 DEFB 00h
DFFE 00          0 17194 DEFB 00h
DFFF 00          0 17195 DEFB 00h
E000 00          0 17196 DEFB 00h
E001 00          0 17197 DEFB 00h
E002 00          0 17198 DEFB 00h
E003 00          0 17199 DEFB 00h
E004 00          0 17200 DEFB 00h
E005 00          0 17201 DEFB 00h
E006 00          0 17202 DEFB 00h
E007 00          0 17203 DEFB 00h
E008 00          0 17204 DEFB 00h
E009 00          0 17205 DEFB 00h
E00A 00          0 17206 DEFB 00h
E00B 00          0 17207 DEFB 00h
E00C 00          0 17208 DEFB 00h
E00D 00          0 17209 DEFB 00h
E00E 00          0 17210 DEFB 00h
E00F 00          0 17211 DEFB 00h
E010 00          0 17212 DEFB 00h
E011 00          0 17213 DEFB 00h
E012 00          0 17214 DEFB 00h
E013 00          0 17215 DEFB 00h
E014 00          0 17216 DEFB 00h
E015 00          0 17217 DEFB 00h
E016 00          0 17218 DEFB 00h
E017 00          0 17219 DEFB 00h
E018 00          0 17220 DEFB 00h
E019 00          0 17221 DEFB 00h
E01A 00          0 17222 DEFB 00h
E01B 00          0 17223 DEFB 00h
E01C 00          0 17224 DEFB 00h
E01D 00          0 17225 DEFB 00h
E01E 00          0 17226 DEFB 00h
E01F 00          0 17227 DEFB 00h
E020 00          0 17228 DEFB 00h
E021 00          0 17229 DEFB 00h
E022 00          0 17230 DEFB 00h
E023 00          0 17231 DEFB 00h
E024 00          0 17232 DEFB 00h
E025 00          0 17233 DEFB 00h
E026 00          0 17234 DEFB 00h
E027 00          0 17235 DEFB 00h
E028 00          0 17236 DEFB 00h
E029 00          0 17237 DEFB 00h
E02A 00          0 17238 DEFB 00h
E02B 00          0 17239 DEFB 00h
E02C 00          0 17240 DEFB 00h
E02D 00          0 17241 DEFB 00h
E02E 00          0 17242 DEFB 00h
E02F 00          0 17243 DEFB 00h
E030 00          0 17244 DEFB 00h
E031 00          0 17245 DEFB 00h
E032 00          0 17246 DEFB 00h
E033 00          0 17247 DEFB 00h
E034 00          0 17248 DEFB 00h
E035 00          0 17249 DEFB 00h
E036 00          0 17250 DEFB 00h
E037 00          0 17251 DEFB 00h
E038 00          0 17252 DEFB 00h
E039 00          0 17253 DEFB 00h
E03A 00          0 17254 DEFB 00h
E03B 00          0 17255 DEFB 00h
E03C 00          0 17256 DEFB 00h
E03D 00          0 17257 DEFB 00h
E03E 00          0 17258 DEFB 00h
E03F 00          0 17259 DEFB 00h
E040 00          0 17260 DEFB 00h
E041 00          0 17261 DEFB 00h
E042 00          0 17262 DEFB 00h
E043 00          0 17263 DEFB 00h
E044 00          0 17264 DEFB 00h
E045 00          0 17265 DEFB 00h
E046 00          0 17266 DEFB 00h
E047 00          0 17267 DEFB 00h
E048 00          0 17268 DEFB 00h
E049 00          0 17269 DEFB 00h
E04A 00          0 17270 DEFB 00h
E04B 00          0 17271 DEFB 00h
E04C 00          0 17272 DEFB 00h
E04D 00          0 17273 DEFB 00h
E04E 00          0 17274 DEFB 00h
E04F 00          0 17275 DEFB 00h
E050 00          0 17276 DEFB 00h
E051 00          0 17277 DEFB 00h
E052 00          0 17278 DEFB 00h
E053 00          0 17279 DEFB 00h
E054 00          0 17280 DEFB 00h
E055 00          0 17281 DEFB 00h
E056 00          0 17282 DEFB 00h
E057 00          0 17283 DEFB 00h
E058 00          0 17284 DEFB 00h
E059 00          0 17285 DEFB 00h
E05A 00          0 17286 DEFB 00h
E05B 00          0 17287 DEFB 00h
E05C 00          0 17288 DEFB 00h
E05D 00          0 17289 DEFB 00h
E05E 00          0 17290 DEFB 00h
E05F 00          0 17291 DEFB 00h
E060 00          0 17292 DEFB 00h
E061 00          0 17293 DEFB 00h
E062 00          0 17294 DEFB 00h
E063 00          0 17295 DEFB 00h
E064 00          0 17296 DEFB 00h
E065 00          0 17297 DEFB 00h
E066 00          0 17298 DEFB 00h
E067 00          0 17299 DEFB 00h
E068 00          0 17300 DEFB 00h
E069 00          0 17301 DEFB 00h
E06A 00          0 17302 DEFB 00h
E06B 00          0 17303 DEFB 00h
E06C 00          0 17304 DEFB 00h
E06D 00          0 17305 DEFB 00h
E06E 00          0 17306 DEFB 00h
E06F 00          0 17307 DEFB 00h
E070 00          0 17308 DEFB 00h
E071 00          0 17309 DEFB 00h
E072 00          0 17310 DEFB 00h
E073 00          0 17311 DEFB 00h
E074 00          0 17312 DEFB 00h
E075 00          0 17313 DEFB 00h
E076 00          0 17314 DEFB 00h
E077 00          0 17315 DEFB 00h
E078 00          0 17316 DEFB 00h
E079 00          0 17317 DEFB 00h
E07A 00          0 17318 DEFB 00h
E07B 00          0 17319 DEFB 00h
E07C 00          0 17320 DEFB 00h
E07D 00          0 17321 DEFB 00h
E07E 00          0 17322 DEFB 00h
E07F 00          0 17323 DEFB 00h
E080 00          0 17324 DEFB 00h
E081 00          0 17325 DEFB 00h
E082 00          0 17326 DEFB 00h
E083 00          0 17327 DEFB 00h
E084 00          0 17328 DEFB 00h
E085 00          0 17329 DEFB 00h
E086 00          0 17330 DEFB 00h
E087 00          0 17331 DEFB 00h
E088 00          0 17332 DEFB 00h
E089 00          0 17333 DEFB 00h
E08A 00          0 17334 DEFB 00h
E08B 00          0 17335 DEFB 00h
E08C 00          0 17336 DEFB 00h
E08D 00          0 17337 DEFB 00h
E08E 00          0 17338 DEFB 00h
E08F 00          0 17339 DEFB 00h
E090 00          0 17340 DEFB 00h
E091 00          0 17341 DEFB 00h
E092 00          0 17342 DEFB 00h
E093 00          0 17343 DEFB 00h
E094 00          0 17344 DEFB 00h
E095 00          0 17345 DEFB 00h
E096 00          0 17346 DEFB 00h
E097 00          0 17347 DEFB 00h
E098 00          0 17348 DEFB 00h
E099 00          0 17349 DEFB 00h
E09A 00          0 17350 DEFB 00h
E09B 00          0 17351 DEFB 00h
E09C 00          0 17352 DEFB 00h
E09D 00          0 17353 DEFB 00h
E09E 00          0 17354 DEFB 00h
E09F 00          0 17355 DEFB 00h
E0A0 00          0 17356 DEFB 00h
E0A1 00          0 17357 DEFB 00h
E0A2 00          0 17358 DEFB 00h
E0A3 00          0 17359 DEFB 00h
E0A4 00          0 17360 DEFB 00h
E0A5 00          0 17361 DEFB 00h
E0A6 00          0 17362 DEFB 00h
E0A7 00          0 17363 DEFB 00h
E0A8 00          0 17364 DEFB 00h
E0A9 00          0 17365 DEFB 00h
E0AA 00          0 17366 DEFB 00h
E0AB 00          0 17367 DEFB 00h
E0AC 00          0 17368 DEFB 00h
E0AD 00          0 17369 DEFB 00h
E0AE 00          0 17370 DEFB 00h
E0AF 00          0 17371 DEFB 00h
E0B0 00          0 17372 DEFB 00h
E0B1 00          0 17373 DEFB 00h
E0B2 00          0 17374 DEFB 00h
E0B3 00          0 17375 DEFB 00h
E0B4 00          0 17376 DEFB 00h
E0B5 00          0 17377 DEFB 00h
E0B6 00          0 17378 DEFB 00h
E0B7 00          0 17379 DEFB 00h
E0B8 00          0 17380 DEFB 00h
E0B9 00          0 17381 DEFB 00h
E0BA 00          0 17382 DEFB 00h
E0BB 00          0 17383 DEFB 00h
E0BC 00          0 17384 DEFB 00h
E0BD 00          0 17385 DEFB 00h
E0BE 00          0 17386 DEFB 00h
E0BF 00          0 17387 DEFB 00h
E0C0 00          0 17388 DEFB 00h
E0C1 00          0 17389 DEFB 00h
E0C2 00          0 17390 DEFB 00h
E0C3 00          0 17391 DEFB 00h
E0C4 00          0 17392 DEFB 00h
E0C5 00          0 17393 DEFB 00h
E0C6 00          0 17394 DEFB 00h
E0C7 00          0 17395 DEFB 00h
E0C8 00          0 17396 DEFB 00h
E0C9 00          0 17397 DEFB 00h
E0CA 00          0 17398 DEFB 00h
E0CB 00          0 17399 DEFB 00h
E0CC 00          0 17400 DEFB 00h
E0CD 00          0 17401 DEFB 00h
E0CE 00          0 17402 DEFB 00h
E0CF 00          0 17403 DEFB 00h
E0D0 00          0 17404 DEFB 00h
E0D1 00          0 17405 DEFB 00h
E0D2 00          0 17406 DEFB 00h
E0D3 00          0 17407 DEFB 00h
E0D4 00          0 17408 DEFB 00h
E0D5 00          0 17409 DEFB 00h
E0D6 00          0 17410 DEFB 00h
E0D7 00          0 17411 DEFB 00h
E0D8 00          0 17412 DEFB 00h
E0D9 00          0 17413 DEFB 00h
E0DA 00          0 17414 DEFB 00h
E0DB 00          0 17415 DEFB 00h
E0DC 00          0 17416 DEFB 00h
E0DD 00          0 17417 DEFB 00h
E0DE 00          0 17418 DEFB 00h
E0DF 00          0 17419 DEFB 00h
E0E0 00          0 17420 DEFB 00h
E0E1 00          0 17421 DEFB 00h
E0E2 00          0 17422 DEFB 00h
E0E3 00          0 17423 DEFB 00h
E0E4 00          0 17424 DEFB 00h
E0E5 00          0 17425 DEFB 00h
E0E6 00          0 17426 DEFB 00h
E0E7 00          0 17427 DEFB 00h
E0E8 00          0 17428 DEFB 00h
E0E9 00          0 17429 DEFB 00h
E0EA 00          0 17430 DEFB 00h
E0EB 00          0 17431 DEFB 00h
E0EC 00          0 17432 DEFB 00h
E0ED 00          0 17433 DEFB 00h
E0EE 00          0 17434 DEFB 00h
E0EF 00          0 17435 DEFB 00h
E0F0 00          0 17436 DEFB 00h
E0F1 00          0 17437 DEFB 00h
E0F2 00          0 17438 DEFB 00h
E0F3 00          0 17439 DEFB 00h
E0F4 00          0 17440 DEFB 00h
E0F5 00          0 17441 DEFB 00h
E0F6 00          0 17442 DEFB 00h
E0F7 00          0 17443 DEFB 00h
E0F8 00          0 17444 DEFB 00h
E0F9 00          0 17445 DEFB 00h
E0FA 00          0 17446 DEFB 00h
E0FB 00          0 17447 DEFB 00h
E0FC 00          0 17448 DEFB 00h
E0FD 00          0 17449 DEFB 00h
E0FE 00          0 17450 DEFB 00h
E0FF 00          0 17451 DEFB 00h
E100 00          0 17452 DEFB 00h
E101 00          0 17453 DEFB 00h
E102 00          0 17454 DEFB 00h
E103 00          0 17455 DEFB 00h
E104 00          0 17456 DEFB 00h
E105 00          0 17457 DEFB 00h
E106 00          0 17458 DEFB 00h
E107 00          0 17459 DEFB 00h
E108 00          0 17460 DEFB 00h
E109 00          0 17461 DEFB 00h
E10A 00          0 17462 DEFB 00h
E10B 00          0 17463 DEFB 00h
E10C 00          0 17464 DEFB 00h
E10D 00          0 17465 DEFB 00h
E10E 00          0 17466 DEFB 00h
E10F 00          0 17467 DEFB 00h
E110 00          0 17468 DEFB 00h
E111 00          0 17469 DEFB 00h
E112 00          0 17470 DEFB 00h
E113 00          0 17471 DEFB 00h
E114 00          0 17472 DEFB 00h
E115 00          0 17473 DEFB 00h
E116 00          0 17474 DEFB 00h
E117 00          0 17475 DEFB 00h
E118 00          0 17476 DEFB 00h
E119 00          0 17477 DEFB 00h
E11A 00          0 17478 DEFB 00h
E11B 00          0 17479 DEFB 00h
E11C 00          0 17480 DEFB 00h
E11D 00          0 17481 DEFB 00h
E11E 00          0 17482 DEFB 00h
E11F 00          0 17483 DEFB 00h
E120 00          0 17484 DEFB 00h
E121 00          0 17485 DEFB 00h
E122 00          0 17486 DEFB 00h
E123 00          0 17487 DEFB 00h
E124 00          0 17488 DEFB 00h
E125 00          0 17489 DEFB 00h
E126 00          0 17490 DEFB 00h
E127 00          0 17491 DEFB 00h
E128 00          0 17492 DEFB 00h
E129 00          0 17493 DEFB 00h
E12A 00          0 17494 DEFB 00h
E12B 00          0 17495 DEFB 00h
E12C 00          0 17496 DEFB 00h
E12D 00          0 17497 DEFB 00h
E12E 00          0 17498 DEFB 00h
E12F 00          0 17499 DEFB 00h
E130 00          0 17500 DEFB 00h
E131 00          0 17501 DEFB 00h
E132 00          0 17502 DEFB 00h
E133 00          0 17503 DEFB 00h
E134 00          0 17504 DEFB 00h
E135 00          0 17505 DEFB 00h
E136 00          0 17506 DEFB 00h
E137 00          0 17507 DEFB 00h
E138 00          0 17508 DEFB 00h
E139 00          0 17509 DEFB 00h
E13A 00          0 17510 DEFB 00h
E13B 00          0 17511 DEFB 00h
E13C 00          0 17512 DEFB 00h
E13D 00          0 17513 DEFB 00h
E13E 00          0 17514 DEFB 00h
E13F 00          0 17515 DEFB 00h
E140 00          0 17516 DEFB 00h
E141 00          0 17517 DEFB 00h
E142 00          0 17518 DEFB 00h
E143 00          0 17519 DEFB 00h
E144 00          0 17520 DEFB 00h
E145 00          0 17521 DEFB 00h
E146 00          0 17522 DEFB 00h
E147 00          0 17523 DEFB 00h
E148 00          0 17524 DEFB 00h
E149 00          0 17525 DEFB 00h
E14A 00          0 17526 DEFB 00h
E14B 00          0 17527 DEFB 00h
E14C 00          0 17528 DEFB 00h
E14D 00          0 17529 DEFB 00h
E14E 00          0 17530 DEFB 00h
E14F 00          0 17531 DEFB 00h
E150 00          0 17532 DEFB 00h
E151 00          0 17533 DEFB 00h
E152 00          0 17534 DEFB 00h
E153 00          0 17535 DEFB 00h
E154 00          0 17536 DEFB 00h
E155 00          0 17537 DEFB 00h
E156 00          0 17538 DEFB 00h
E157 00          0 17539 DEFB 00h
E158 00          0 17540 DEFB 00h
E159 00          0 17541 DEFB 00h
E15A 00          0 17542 DEFB 00h
E15B 00          0 17543 DEFB 00h
E15C 00          0 17544 DEFB 00h
E15D 00          0 17545 DEFB 00h
E15E 00          0 17546 DEFB 00h
E15F 00          0 17547 DEFB 00h
E160 00          0 17548 DEFB 00h
E161 00          0 17549 DEFB 00h
E162 00          0 17550 DEFB 00h
E163 00          0 17551 DEFB 00h
E164 00          0 17552 DEFB 00h
E165 00          0 17553 DEFB 00h
E166 00          0 17554 DEFB 00h
E167 00          0 17555 DEFB 00h
E168 00          0 17556 DEFB 00h
E169 00          0 17557 DEFB 00h
E16A 00          0 17558 DEFB 00h
E16B 00          0 17559 DEFB 00h
E16C 00          0 17560 DEFB 00h
E16D 00          0 17561 DEFB 00h
E16E 00          0 17562 DEFB 00h
E16F 00          0 17563 DEFB 00h
E170 00          0 17564 DEFB 00h
E171 00          0 17565 DEFB 00h
E172 00          0 17566 DEFB 00h
E173 00          0 17567 DEFB 00h
E174 00          0 17568 DEFB 00h
E175 00          0 17569 DEFB 00h
E176 00          0 17570 DEFB 00h
E177 00          0 17571 DEFB 00h
E178 00          0 17572 DEFB 00h
E179 00          0 17573 DEFB 00h
E17A 00          0 17574 DEFB 00h
E17B 00          0 17575 DEFB 00h
E17C 00          0 17576 DEFB 00h
E17D 00          0 17577 DEFB 00h
E17E 00          0 17578 DEFB 00h
E17F 00          0 17579 DEFB 00h
E180 00          0 17580 DEFB 00h
E181 00          0 17581 DEFB 00h
E182 00          0 17582 DEFB 00h
E183 00          0 17583 DEFB 00h
E184 00          0 17584 DEFB 00h
E185 00          0 17585 DEFB 00h
E186 00          0 17586 DEFB 00h
E187 00          0 17587 DEFB 00h
E188 00          0 17588 DEFB 00h
E189 00          0 17589 DEFB 00h
E18A 00          0 17590 DEFB 00h
E18B 00          0 17591 DEFB 00h
E18C 00          0 17592 DEFB 00h
E18D 00          0 17593 DEFB 00h
E18E 00          0 17594 DEFB 00h
E18F 00          0 17595 DEFB 00h
E190 00          0 17596 DEFB 00h
E191 00          0 17597 DEFB 00h
E192 00          0 17598 DEFB 00h
E193 00          0 17599 DEFB 00h
E194 00          0 17600 DEFB 00h
E195 00          0 17601 DEFB 00h
E196 00          0 17602 DEFB 00h
E197 00          0 17603 DEFB 00h
E198 00          0 17604 DEFB 00h
E199 00          0 17605 DEFB 00h
E19A 00          0 17606 DEFB 00h
E19B 00          0 17607 DEFB 00h
E19C 00          0 17608 DEFB 00h
E19D 00          0 17609 DEFB 00h
E19E 00          0 17610 DEFB 00h
E19F 00          0 17611 DEFB 00h
E1A0 00          0 17612 DEFB 00h
E1A1 00          0 17613 DEFB 00h
E1A2 00          0 17614 DEFB 00h
E1A3 00          0 17615 DEFB 00h
E1A4 00          0 17616 DEFB 00h
E1A5 00          0 17617 DEFB 00h
E1A6 00          0 17618 DEFB 00h
E1A7 00          0 17619 DEFB 00h
E1A8 00          0 17620 DEFB 00h
E1A9 00          0 17621 DEFB 00h
E1AA 00          0 17622 DEFB 00h
E1AB 00          0 17623 DEFB 00h
E1AC 00          0 17624 DEFB 00h
E1AD 00          0 17625 DEFB 00h
E1AE 00          0 17626 DEFB 00h
E1AF 00          0 17627 DEFB 00h
E1B0 00          0 17628 DEFB 00h
E1B1 00          0 17629 DEFB 00h
E1B2 00          0 17630 DEFB 00h
E1B3 00          0 17631 DEFB 00h
E1B4 00          0 17632 DEFB 00h
E1B5 00          0 17633 DEFB 00h
E1B6 00          0 17634 DEFB 00h
E1B7 00          0 17635 DEFB 00h
E1B8 00          0 17636 DEFB 00h
E1B9 00          0 17637 DEFB 00h
E1BA 00          0 17638 DEFB 00h
E1BB 00          0 17639 DEFB 00h
E1BC 00          0 17640 DEFB 00h
E1BD 00          0 17641 DEFB 00h
E1BE 00          0 17642 DEFB 00h
E1BF 00          0 17643 DEFB 00h
E1C0 00          0 17644 DEFB 00h
E1C1 00          0 17645 DEFB 00h
E1C2 00          0 17646 DEFB 00h
E1C3 00          0 17647 DEFB 00h
E1C4 00          0 17648 DEFB 00h
E1C5 00          0 17649 DEFB 00h
E1C6 00          0 17650 DEFB 00h
E1C7 00          0 17651 DEFB 00h
E1C8 00          0 17652 DEFB 00h
E1C9 00          0 17653 DEFB 00h
E1CA 00          0 17654 DEFB 00h
E1CB 00          0 17655 DEFB 00h
E1CC 00          0 17656 DEFB 00h
E1CD 00          0 17657 DEFB 00h
E1CE 00          0 17658 DEFB 00h
E1CF 00          0 17659 DEFB 00h
E1D0 00          0 17660 DEFB 00h
E1D1 00          0 17661 DEFB 00h
E1D2 00          0 17662 DEFB 00h
E1D3 00          0 17663 DEFB 00h
E1D4 00          0 17664 DEFB 00h
E1D5 00          0 17665 DEFB 00h
E1D6 00          0 17666 DEFB 00h
E1D7 00          0 17667 DEFB 00h
E1D8 00          0 17668 DEFB 00h
E1D9 00          0 17669 DEFB 00h
E1DA 00          0 17670 DEFB 00h
E1DB 00          0 17671 DEFB 00h
E1DC 00          0 17672 DEFB 00h
E1DD 00          0 17673 DEFB 00h
E1DE 00          0 17674 DEFB 00h
E1DF 00          0 17675 DEFB 00h
E1E0 00          0 17676 DEFB 00h
E1E1 00          0 17677 DEFB 00h
E1E2 00          0 17678 DEFB 00h
E1E3 00          0 17679 DEFB 00h
E1E4 00          0 17680 DEFB 00h
E1E5 00          0 17681 DEFB 00h
E1E6 00          0 17682 DEFB 00h
E1E7 00          0 17683 DEFB 00h
E1E8 00          0 17684 DEFB 00h
E1E9 00          0 17685 DEFB 00h
E1EA 00          0 17686 DEFB 00h
E1EB 00          0 17687 DEFB 00h
E1EC 00          0 17688 DEFB 00h
E1ED 00          0 17689 DEFB 00h
E1EE 00          0 17690 DEFB 00h
E1EF 00          0 17691 DEFB 00h
E1F0 00          0 17692 DEFB 00h
E1F1 00          0 17693 DEFB 00h
E1F2 00          0 17694 DEFB 00h
E1F3 00          0 17695 DEFB 00h
E1F4 00          0 17696 DEFB 00h
E1F5 00          0 17697 DEFB 00h
E1F6 00          0 17698 DEFB 00h
E1F7 00          0 17699 DEFB 00h
E1F8 00          0 17700 DEFB 00h
E1F9 00          0 17701 DEFB 00h
E1FA 00          0 17702 DEFB 00h
E1FB 00          0 17703 DEFB 00h
E1FC 00          0 17704 DEFB 00h
E1FD 00          0 17705 DEFB 00h
E1FE 00          0 17706 DEFB 00h
E1FF 00          0 17707 DEFB 00h
E200 00          0 17708 DEFB 00h
E201 00          0 17709 DEFB 00h
E202 00          0 17710 DEFB 00h
E203 00          0 17711 DEFB 00h
E204 00          0 17712 DEFB 00h
E205 00          0 17713 DEFB 00h
E206 00          0 17714 DEFB 00h
E207 00          0 17715 DEFB 00h
E208 00          0 17716 DEFB 00h
E209 00          0 17717 DEFB 00h
E20A 00          0 17718 DEFB 00h
E20B 00          0 17719 DEFB 00h
E20C 00          0 17720 DEFB 00h
E20D 00          0 17721 DEFB 00h
E20E 00          0 17722 DEFB 00h
E20F 00          0 17723 DEFB 00h
E210 00          0 17724 DEFB 00h
E211 00          0 17725 DEFB 00h
E212 00          0 17726 DEFB 00h
E213 00          0 17727 DEFB 00h
E214 00          0 17728 DEFB 00h
E215 00          0 17729 DEFB 00h
E216 00          0 17730 DEFB 00h
E217 00          0 17731 DEFB 00h
E218 00          0 17732 DEFB 00h
E219 00          0 17733 DEFB 00h
E21A 00          0 17734 DEFB 00h
E21B 00          0 17735 DEFB 00h
E21C 00          0 17736 DEFB 00h
E21D 00          0 17737 DEFB 00h
E21E 00          0 17738 DEFB 00h
E21F 00          0 17739 DEFB 00h
E220 00          0 17740 DEFB 00h
E221 00          0 17741 DEFB 00h
E222 00          0 17742 DEFB 00h
E223 00          0 17743 DEFB 00h
E224 00          0 17744 DEFB 00h
E225 00          0 17745 DEFB 00h
E226 00          0 17746 DEFB 00h
E227 00          0 17747 DEFB 00h
E228 00          0 17748 DEFB 00h
E229 00          0 17749 DEFB 00h
E22A 00          0 17750 DEFB 00h
E22B 00          0 17751 DEFB 00h
E22C 00          0 17752 DEFB 00h
E22D 00          0 17753 DEFB 00h
E22E 00          0 17754 DEFB 00h
E22F 00          0 17755 DEFB 00h
E230 00          0 17756 DEFB 00h
E231 00          0 17757 DEFB 00h
E232 00          0 17758 DEFB 00h
E233 00          0 17759 DEFB 00h
E234 00          0 17760 DEFB 00h
E235 00          0 17761 DEFB 00h
E236 00          0 17762 DEFB 00h
E237 00          0 17763 DEFB 00h
E238 00          0 17764 DEFB 00h
E239 00          0 17765 DEFB 00h
E23A 00          0 17766 DEFB 00h
E23B 00          0 17767 DEFB 00h
E23C 00          0 17768 DEFB 00h
E23D 00          0 17769 DEFB 00h
E23E 00          0 17770 DEFB 00h
E23F 00          0 17771 DEFB 00h
E240 00          0 17772 DEFB 00h
E241 00          0 17773 DEFB 00h
E242 00          0 17774 DEFB 00h
E243 00          0 17775 DEFB 00h
E244 00          0 17776 DEFB 00h
E245 00          0 17777 DEFB 00h
E246 00          0 17778 DEFB 00h
E247 00          0 17779 DEFB 00h
E248 00          0 17780 DEFB 00h
E249 00          0 17781 DEFB 00h
E24A 00          0 17782 DEFB 00h
E24B 00          0 17783 DEFB 00h
E24C 00          0 17784 DEFB 00h
E24D 00          0 17785 DEFB 00h
E24E 00          0 17786 DEFB 00h
E24F 00          0 17787 DEFB 00h
E250 00          0 17788 DEFB 00h
E251 00          0 17789 DEFB 00h
E252 00          0 17790 DEFB 00h
E253 00          0 17791 DEFB 00h
E254 00          0 17792 DEFB 00h
E255 00          0 17793 DEFB 00h
E256 00          0 17794 DEFB 00h
E257 00          0 17795 DEFB 00h
E258 00          0 17796 DEFB 00h
E259 00          0 17797 DEFB 00h
E25A 00          0 17798 DEFB 00h
E25B 00          0 17799 DEFB 00h
E25C 00          0 17800 DEFB 00h
E25D 00          0 17801 DEFB 00h
E25E 00          0 17802 DEFB 00h
E25F 00          0 17803 DEFB 00h
E260 00          0 17804 DEFB 00h
E261 00          0 17805 DEFB 00h
E262 00          0 17806 DEFB 00h
E263 00          0 17807 DEFB 00h
E264 00          0 17808 DEFB 00h
E265 00          0 17809 DEFB 00h
E266 00          0 17810 DEFB 00h
E267 00          0 17811 DEFB 00h
E268 00          0 17812 DEFB 00h
E269 00          0 17813 DEFB 00h
E26A 00          0 17814 DEFB 00h
E26B 00          0 17815 DEFB 00h
E26C 00          0 17816 DEFB 00h
E26D 00          0 17817 DEFB 00h
E26E 00          0 17818 DEFB 00h
E26F 00          0 17819 DEFB 00h
E270 00          0 17820 DEFB 00h
E271 00          0 17821 DEFB 00h
E272 00          0 17822 DEFB 00h
E273 00          0 17823 DEFB 00h
E274 00          0 17824 DEFB 00h
E275 00          0 17825 DEFB 00h
E276 00          0 17826 DEFB 00h
E277 00          0 17827 DEFB 00h
E278 00          0 17828 DEFB 00h
E279 00          0 17829 DEFB 00h
E27A 00          0 17830 DEFB 00h
E27B 00          0 17831 DEFB 00h
E27C 00          0 17832 DEFB 00h
E27D 00          0 17833 DEFB 00h
E27E 00          0 17834 DEFB 00h
E27F 00          0 17835 DEFB 00h
E280 00          0 17836 DEFB 00h
E281 00          0 17837 DEFB 00h
E282 00          0 17838 DEFB 00h
E283 00          0 17839 DEFB 00h
E284 00          0 17840 DEFB 00h
E285 00          0 17841 DEFB 00h
E286 00          0 17842 DEFB 00h
E287 00          0 17843 DEFB 00h
E288 00          0 17844 DEFB 00h
E289 00          0 17845 DEFB 00h
E28A 00          0 17846 DEFB 00h
E28B 00          0 17847 DEFB 00h
E28C 00          0 17848 DEFB 00h
E28D 00          0 17849 DEFB 00h
E28E 00          0 17850 DEFB 00h
E28F 00          0 17851 DEFB 00h
E290 00          0 17852 DEFB 00h
E291 00          0 17853 DEFB 00h
E292 00          0 17854 DEFB 00h
E293 00          0 17855 DEFB 00h
E294 00          0 17856 DEFB 00h
E295 00          0 17857 DEFB 00h
E296 00          0 17858 DEFB 00h
E297 00          0 17859 DEFB 00h
E298 00          0 17860 DEFB 00h
E299 00          0 17861 DEFB 00h
E29A 00          0 17862 DEFB 00h
E29B 00          0 17863 DEFB 00h
E29C 00          0 17864 DEFB 00h
E29D 00          0 17865 DEFB 00h
E29E 00          0 17866 DEFB 00h
E29F 00          0 17867 DEFB 00h
E2A0 00          0 17868 DEFB 00h
E2A1 00          0 17869 DEFB 00h
E2A2 00          0 17870 DEFB 00h
E2A3 00          0 17871 DEFB 00h
E2A4 00          0 17872 DEFB 00h
E2A5 00          0 17873 DEFB 00h
E2A6 00          0 17874 DEFB 00h
E2A7 00          0 17875 DEFB 00h
E2A8 00          0 17876 DEFB 00h
E2A9 00          0 17877 DEFB 00h
E2AA 00          0 17878 DEFB 00h
E2AB 00          0 17879 DEFB 00h
E2AC 00          0 17880 DEFB 00h
E2AD 00          0 17881 DEFB 00h
E2AE 00          0 17882 DEFB 00h
E2AF 00          0 17883 DEFB 00h
E2B0 00          0 17884 DEFB 00h
E2B1 00          0 17885 DEFB 00h
E2B2 00          0 17886 DEFB 00h
E2B3 00          0 17887 DEFB 00h
E2B4 00          0 17888 DEFB 00h
E2B5 00          0 17889 DEFB 00h
E2B6 00          0 17890 DEFB 00h
E2B7 00          0 17891 DEFB 00h
E2B8 00          0 17892 DEFB 00h
E2B9 00          0 17893 DEFB 00h
E2BA 00          0 17894 DEFB 00h
E2BB 00          0 17895 DEFB 00h
E2BC 00          0 17896 DEFB 00h
E2BD 00          0 17897 DEFB 00h
E2BE 00          0 17898 DEFB 00h
E2BF 00          0 17899 DEFB 00h
E2C0 00          0 17900 DEFB 00h
E2C1 00          0 17901 DEFB 00h
E2C2 00          0 17902 DEFB 00h
E2C3 00          0 17903 DEFB 00h
E2C4 00          0 17904 DEFB 00h
E2C5 00          0 17905 DEFB 00h
E2C6 00          0 17906 DEFB 00h
E2C7 00          0 17907 DEFB 00h
E2C8 00          0 17908 DEFB 00h
E2C9 00          0 17909 DEFB 00h
E2CA 00          0 17910 DEFB 00h
E2CB 00          0 17911 DEFB 00h
E2CC 00          0 17912 DEFB 00h
E2CD 00          0 17913 DEFB 00h
E2CE 00          0 17914 DEFB 00h
E2CF 00          0 17915 DEFB 00h
E2D0 00          0 17916 DEFB 00h
E2D1 00          0 17917 DEFB 00h
E2D2 00          0 17918 DEFB 00h
E2D3 00          0 17919 DEFB 00h
E2D4 00          0 17920 DEFB 00h
E2D5 00          0 17921 DEFB 00h
E2D6 00          0 17922 DEFB 00h
E2D7 00          0 17923 DEFB 00h
E2D8 00          0 17924 DEFB 00h
E2D9 00          0 17925 DEFB 00h
E2DA 00          0 17926 DEFB 00h
E2DB 00          0 17927 DEFB 00h
E2DC 00          0 17928 DEFB 00h
E2DD 00          0 17929 DEFB 00h
E2DE 00          0 17930 DEFB 00h
E2DF 00          0 17931 DEFB 00h
E2E0 00          0 17932 DEFB 00h
E2E1 00          0 17933 DEFB 00h
E2E2 00          0 17934 DEFB 00h
E2E3 00          0 17935 DEFB 00h
E2E4 00          0 17936 DEFB 00h
E2E5 00          0 17937 DEFB 00h
E2E6 00          0 17938 DEFB 00h
E2E7 00          0 17939 DEFB 00h
E2E8 00          0 17940 DEFB 00h
E2E9 00          0 17941 DEFB 00h
E2EA 00          0 17942 DEFB 00h
E2EB 00          0 17943 DEFB 00h
E2EC 00          0 17944 DEFB 00h
E2ED 00          0 17945 DEFB 00h
E2EE 00          0 17946 DEFB 00h
E2EF 00          0 17947 DEFB 00h
E2F0 00          0 17948 DEFB 00h
E2F1 00          0 17949 DEFB 00h
E2F2 00          0 17950 DEFB 00h
E2F3 00          0 17951 DEFB 00h
E2F4 00          0 17952 DEFB 00h
E2F5 00          0 17953 DEFB 00h
E2F6 00          0 17954 DEFB 00h
E2F7 00          0 17955 DEFB 00h
E2F8 00          0 17956 DEFB 00h
E2F9 00          0 17957 DEFB 00h
E2FA 00          0 17958 DEFB 00h
E2FB 00          0 17959 DEFB 00h
E2FC 00          0 17960 DEFB 00h
E2FD 00          0 17961 DEFB 00h
E2FE 00          0 17962 DEFB 00h
E2FF 00          0 17963 DEFB 00h
E300 00          0 17964 DEFB 00h
E301 00          0 17965 DEFB 00h
E302 00          0 17966 DEFB 00h
E303 00          0 17967 DEFB 00h
E304 00          0 17968 DEFB 00h
E305 00          0 17969 DEFB 00h
E306 00          0 17970 DEFB 00h
E307 00          0 17971 DEFB 00h
E308 00          0 17972 DEFB 00h
E309 00          0 17973 DEFB 00h
E30A 00          0 17974 DEFB 00h
E30B 00          0 17975 DEFB 00h
E30C 00          0 17976 DEFB 00h
E30D 00          0 17977 DEFB 00h
E30E 00          0 17978 DEFB 00h
E30F 00          0 17979 DEFB 00h
E310 00          0 17980 DEFB 00h
E311 00          0 17981 DEFB 00h
E312 00          0 17982 DEFB 00h
E313 00          0 17983 DEFB 00h
E314 00          0 17984 DEFB 00h
E315 00          0 17985 DEFB 00h
E316 00          0 17986 DEFB 00h
E317 00          0 17987 DEFB 00h
E318 00          0 17988 DEFB 00h
E319 00          0 17989 DEFB 00h
E31A 00          0 17990 DEFB 00h
E31B 00          0 17991 DEFB 00h
E31C 00          0 17992 DEFB 00h
E31D 00          0 17993 DEFB 00h
E31E 00          0 17994 DEFB 00h
E31F 00          0 17995 DEFB 00h
E320 00          0 17996 DEFB 00h
E321 00          0 17997 DEFB 00h
E322 00          0 17998 DEFB 00h
E323 00          0 17999 DEFB 00h
E324 00          0 18000 DEFB 00h
E325 00          0 18001 DEFB 00h
E326 00          0 18002 DEFB 00h
E327 00          0 18003 DEFB 00h
E328 00          0 18004 DEFB 00h
E329 00          0 18005 DEFB 00h
E32A 00          0 18006 DEFB 00h
E32B 00          0 18007 DEFB 00h
E32C 00          0 18008 DEFB 00h
E32D 00          0 18009 DEFB 00h
E32E 00          0 18010 DEFB 00h
E32F 00          0 18011 DEFB 00h
E330 00          0 18012 DEFB 00h
E331 00          0 18013 DEFB 00h
E332 00          0 18014 DEFB 00h
E333 00          0 18015 DEFB 00h
E334 00          0 18016 DEFB 00h
E335 00          0 18017 DEFB 00h
E336 00          0 18018 DEFB 00h
E337 00          0 18019 DEFB 00h
E338 00          0 18020 DEFB 00h
E339 00          0 18021 DEFB 00h
E33A 00          0 18022 DEFB 00h
E33B 00          0 18023 DEFB 00h
E33C 00          0 18024 DEFB 00h
E33D 00          0 18025 DEFB 00h
E33E 00          0 18026 DEFB 00h
E33F 00          0 18027 DEFB 00h
E340 00          0 18028 DEFB 00h
E341 00          0 18029 DEFB 00h
E342 00          0 18030 DEFB 00h
E343 00          0 18031 DEFB 00h
E344 00          0 18032 DEFB 00h
E345 00          0 18033 DEFB 00h
E346 00          0 18034 DEFB 00h
E347 00          0 18035 DEFB 00h
E348 00          0 18036 DEFB 00h
E349 00          0 18037 DEFB 00h
E34A 00          0 18038 DEFB 00h
E34B 00          0 18039 DEFB 00h
E34C 00          0 18040 DEFB 00h
E34D 00          0 18041 DEFB 00h
E34E 00          0 18042 DEFB 00h
E34F 00          0 18043 DEFB 00h
E350 00          0 18044 DEFB 00h
E351 00          0 18045 DEFB 00h
E352 00          0 18046 DEFB 00h
E353 00          0 18047 DEFB 00h
E354 00          0 18048 DEFB 00h
E355 00          0 18049 DEFB 00h
E356 00          0 18050 DEFB 00h
E357 00          0 18051 DEFB 00h
E358 00          0 18052 DEFB 00h
E359 00          0 18053 DEFB 00h
E35A 00          0 18054 DEFB 00h
E35B 00          0 18055 DEFB 00h
E35C 00          0 18056 DEFB 00h
E35D 00          0 18057 DEFB 00h
E35E 00          0 18058 DEFB 00h
E35F 00          0 18059 DEFB 00h
E360 00          0 18060 DEFB 00h
E361 00          0 18061 DEFB 00h
E362 00          0 18062 DEFB 00h
E363 00          0 18063 DEFB 00h
E364 00          0 18064 DEFB 00h
E365 00          0 18065 DEFB 00h
E366 00          0 18066 DEFB 00h
E367 00          0 18067 DEFB 00h
E368 00          0 18068 DEFB 00h
E369 00          0 18069 DEFB 00h
E36A 00          0 18070 DEFB 00h
E36B 00          0 18071 DEFB 00h
E36C 00          0 18072 DEFB 00h
E36D 00          0 18073 DEFB 00h
E36E 00          0 18074 DEFB 00h
E36F 00          0 18075 DEFB 00h
E370 00          0 18076 DEFB 00h
E371 00          0 18077 DEFB 00h
E372 00          0 18078 DEFB 00h
E373 00          0 18079 DEFB 00h
E374 00          0 18080 DEFB 00h
E375 00          0 18081 DEFB 00h
E376 00          0 18082 DEFB 00h
E377 00          0 18083 DEFB 00h
E378 00          0 18084 DEFB 00h
E379 00          0 18085 DEFB 00h
E37A 00          0 18086 DEFB 00h
E37B 00          0 18087 DEFB 00h
E37C 00          0 18088 DEFB 00h
E37D 00          0 18089 DEFB 00h
E37E 00          0 18090 DEFB 00h
E37F 00          0 18091 DEFB 00h
E380 00          0 18092 DEFB 00h
E381 00          0 18093 DEFB 00h
E382 00          0 18094 DEFB 00h
E383 00          0 18095 DEFB 00h
E384 00          0 18096 DEFB 00h
E385 00          0 18097 DEFB 00h
E386 00          0 18098 DEFB 00h
E387 00          0 18099 DEFB 00h
E388 00          0 18100 DEFB 00h
E389 00          0 18101 DEFB 00h
E38A 00          0 18102 DEFB 00h
E38B 00          0 18103 DEFB 00h
E38C 00          0 18104 DEFB 00h
E38D 00          0 18105 DEFB 00h
E38E 00          0 18106 DEFB 00h
E38F 00          0 18107 DEFB 00h
E390 00          0 18108 DEFB 00h
E391 00          0 18109 DEFB 00h
E392 00          0 18110 DEFB 00h
E393 00          0 18111 DEFB 00h
E394 00          0 18112 DEFB 00h
E395 00          0 18113 DEFB 00h
E396 00          0 18114 DEFB 00h
E397 00          0 18115 DEFB 00h
E398 00          0 18116 DEFB 00h
E399 00          0 18117 DEFB 00h
E39A 00          0 18118 DEFB 00h
E39B 00          0 18119 DEFB 00h
E39C 00          0 18120 DEFB 00h
E39D 00          0 18121 DEFB 00h
E39E 00          0 18122 DEFB 00h
E39F 00          0 18123 DEFB 00h
E3A0 00          0 18124 DEFB 00h
E3A1 00          0 18125 DEFB 00h
E3A2 00          0 18126 DEFB 00h
E3A3 00          0 18127 DEFB 00h
E3A4 00          0 18128 DEFB 00h
E3A5 00          0 18129 DEFB 00h
E3A6 00          0 18130 DEFB 00h
E3A7 00          0 18131 DEFB 00h
E3A8 00          0 18132 DEFB 00h
E3A9 00          0 18133 DEFB 00h
E3AA 00          0 18134 DEFB 00h
E3AB 00          0 18135 DEFB 00h
E3AC 00          0 18136 DEFB 00h
E3AD 00          0 18137 DEFB 00h
E3AE 00          0 18138 DEFB 00h
E3AF 00          0 18139 DEFB 00h
E3B0 00          0 18140 DEFB 00h
E3B1 00          0 18141 DEFB 00h
E3B2 00          0 18142 DEFB 00h
E3B3 00          0 18143 DEFB 00h
E3B4 00          0 18144 DEFB 00h
E3B5 00          0 18145 DEFB 00h
E3B6 00          0 18146 DEFB 00h
E3B7 00          0 18147 DEFB 00h
E3B8 00          0 18148 DEFB 00h
E3B9 00          0 18149 DEFB 00h
E3BA 00          0 18150 DEFB 00h
E3BB 00          0 18151 DEFB 00h
E3BC 00          0 18152 DEFB 00h
E3BD 00          0 18153 DEFB 00h
E3BE 00          0 18154 DEFB 00h
E3BF 00          0 18155 DEFB 00h
E3C0 00          0 18156 DEFB 00h
E3C1 00          0 18157 DEFB 00h
E3C2 00          0 18158 DEFB 00h
E3C3 00          0 18159 DEFB 00h
E3C4 00          0 18160 DEFB 00h
E3C5 00          0 18161 DEFB 00h
E3C6 00          0 18162 DEFB 00h
E3C7 00          0 18163 DEFB 00h
E3C8 00          0 18164 DEFB 00h
E3C9 00          0 18165 DEFB 00h
E3CA 00          0 18166 DEFB 00h
E3CB 00          0 18167 DEFB 00h
E3CC 00          0 18168 DEFB 00h
E3CD 00          0 18169 DEFB 00h
E3CE 00          0 18170 DEFB 00h
E3CF 00          0 18171 DEFB 00h
E3D0 00          0 18172 DEFB 00h
E3D1 00          0 18173 DEFB 00h
E3D2 00          0 18174 DEFB 00h
E3D3 00          0 18175 DEFB 00h
E3D4 00          0 18176 DEFB 00h
E3D5 00          0 18177 DEFB 00h
E3D6 00          0 18178 DEFB 00h
E3D7 00          0 18179 DEFB 00h
E3D8 00          0 18180 DEFB 00h
E3D9 00          0 18181 DEFB 00h
E3DA 00          0 18182 DEFB 00h
E3DB 00          0 18183 DEFB 00h
E3DC 00          0 18184 DEFB 00h
E3DD 00          0 18185 DEFB 00h
E3DE 00          0 18186 DEFB 00h
E3DF 00          0 18187 DEFB 00h
E3E0 00          0 18188 DEFB 00h
E3E1 00          0 18189 DEFB 00h
E3E2 00          0 18190 DEFB 00h
E3E3 00          0 18191 DEFB 00h
E3E4 00          0 18192 DEFB 00h
E3E5 00          0 18193 DEFB 00h
E3E6 00          0 18194 DEFB 00h
E3E7 00          0 18195 DEFB 00h
E3E8 00          0 18196 DEFB 00h
E3E9 00          0 18197 DEFB 00h
E3EA 00          0 18198 DEFB 00h
E3EB 00          0 18199 DEFB 00h
E3EC 00          0 18200 DEFB 00h
E3ED 00          0 18201 DEFB 00h
E3EE 00          0 18202 DEFB 00h
E3EF 00          0 18203 DEFB 00h
E3F0 00          0 18204 DEFB 00h
E3F1 00          0 18205 DEFB 00h
E3F2 00          0 18206 DEFB 00h
E3F3 00          0 18207 DEFB 00h
E3F4 00          0 18208 DEFB 00h
E3F5 00          0 18209 DEFB 00h
E3F6 00          0 18210 DEFB 00h
E3F7 00          0 18211 DEFB 00h
E3F8 00          0 18212 DEFB 00h
E3F9 00          0 18213 DEFB 00h
E3FA 00          0 18214 DEFB 00h
E3FB 00          0 18215 DEFB 00h
E3FC 00          0 18216 DEFB 00h
E3FD 00          0 18217 DEFB 00h
E3FE 00          0 18218 DEFB 00h
E3FF 00          0 18219 DEFB 00h
E400 00          0 18220 DEFB 00h
E401 00          0 18221 DEFB 00h
E402 00          0 18222 DEFB 00h
E403 00          0 18223 DEFB 00h
E404 00          0 18224 DEFB 00h
E405 00          0 18225 DEFB 00h
E406 00          0 18226 DEFB 00h
E407 00          0 18227 DEFB 00h
E408 00          0 18228 DEFB 00h
E409 00          0 18229 DEFB 00h
E40A 00          0 18230 DEFB 00h
E40B 00          0 18231 DEFB 00h
E40C 00          0 18232 DEFB 00h
E40D 00          0 18233 DEFB 00h
E40E 00          0 18234 DEFB 00h
E40F 00          0 18235 DEFB 00h
E410 00          0 18236 DEFB 00h
E411 00          0 18237 DEFB 00h
E412 00          0 18238 DEFB 00h
E413 00          0 18239 DEFB 00h
E414 00          0 18240 DEFB 00h
E415 00          0 18241 DEFB 00h
E416 00          0 18242 DEFB 00h
E417 00          0 18243 DEFB 00h
E418 00          0 18244 DEFB 00h
E419 00          0 18245 DEFB 00h
E41A 00          0 18246 DEFB 00h
E41B 00          0 18247 DEFB 00h
E41C 00          0 18248 DEFB 00h
E41D 00          0 18249 DEFB 00h
E41E 00          0 18250 DEFB 00h
E41F 00          0 18251 DEFB 00h
E420 00          0 18252 DEFB 00h
E421 00          0 18253 DEFB 00h
E422 00          0 18254 DEFB 00h
E423 00          0 18255 DEFB 00h
E424 00          0 18256 DEFB 00h
E425 00          0 18257 DEFB 00h
E426 00          0 18258 DEFB 00h
E427 00          0 18259 DEFB 00h
E428 00          0 18260 DEFB 00h
E429 00          0 18261 DEFB 00h
E42A 00          0 18262 DEFB 00h
E42B 00          0 18263 DEFB 00h
E42C 00          0 18264 DEFB 00h
E42D 00          0 18265 DEFB 00h
E42E 00          0 18266 DEFB 00h
E42F 00          0 18267 DEFB 00h
E430 00          0 18268 DEFB 00h
E431 00          0 18269 DEFB 00h
E432 00          0 18270 DEFB 00h
E433 00          0 18271 DEFB 00h
E434 00          0 18272 DEFB 00h
E435 00          0 18273 DEFB 00h
E436 00          0 18274 DEFB 00h
E437 00          0 18275 DEFB 00h
E438 00          0 18276 DEFB 00h
E439 00          0 18277 DEFB 00h
E43A 00          0 18278 DEFB 00h
E43B 00          0 18279 DEFB 00h
E43C 00          0 18280 DEFB 00h
E43D 00          0 18281 DEFB 00h
E43E 00          0 18282 DEFB 00h
E43F 00          0 18283 DEFB 00h
E440 00          0 18284 DEFB 00h
E441 00          0 18285 DEFB 00h
E442 00          0 18286 DEFB 00h
E443 00          0 18287 DEFB 00h
E444 00          0 18288 DEFB 00h
E445 00          0 18289 DEFB 00h
E446 00          0 18290 DEFB 00h
E447 00          0 18291 DEFB 00h
E448 00          0 18292 DEFB 00h
E449 00          0 18293 DEFB 00h
E44A 00          0 18294 DEFB 00h
E44B 00          0 18295 DEFB 00h
E44C 00          0 18296 DEFB 00h
E44D 00          0 18297 DEFB 00h
E44E 00          0 18298 DEFB 00h
E44F 00          0 18299 DEFB 00h
E450 00          0 18300 DEFB 00h
E451 00          0 18301 DEFB 00h
E452 00          0 18302 DEFB 00h
E453 00          0 18303 DEFB 00h
E454 00          0 18304 DEFB 00h
E455 00          0 18305 DEFB 00h
E456 00          0 18306 DEFB 00h
E457 00          0 18307 DEFB 00h
E458 00          0 18308 DEFB 00h
E459 00          0 18309 DEFB 00h
E45A 00          0 18310 DEFB 00h
E45B 00          0 18311 DEFB 00h
E45C 00          0 18312 DEFB 00h
E45D 00          0 18313 DEFB 00h
E45E 00          0 18314 DEFB 00h
E45F 00          0 18315 DEFB 00h
E460 00          0 18316 DEFB 00h
E461 00          0 18317 DEFB 00h
E462 00          0 18318 DEFB 00h
E463 00          0 18319 DEFB 00h
E464 00          0 18320 DEFB 00h
E465 00          0 18321 DEFB 00h
E466 00          0 18322 DEFB 00h
E467 00          0 18323 DEFB 00h
E468 00          0 18324 DEFB 00h
E469 00          0 18325 DEFB 00h
E46A 00          0 18326 DEFB 00h
E46B 00          0 18327 DEFB 00h
E46C 00          0 18328 DEFB 00h
E46D 00          0 18329 DEFB 00h
E46E 00          0 18330 DEFB 00h
E46F 00          0 18331 DEFB 00h
E470 00          0 18332 DEFB 00h
E471 00          0 18333 DEFB 00h
E472 00          0 18334 DEFB 00h
E473 00          0 18335 DEFB 00h
E474 00          0 18336 DEFB 00h
E475 00          0 18337 DEFB 00h
E476 00          0 18338 DEFB 00h
E477 00          0 18339 DEFB 00h
E478 00          0 18340 DEFB 00h
E479 00          0 18341 DEFB 00h
E47A 00          0 18342 DEFB 00h
E47B 00          0 18343 DEFB 00h
E47C 00          0 18344 DEFB 00h
E47D 00          0 18345 DEFB 00h
E47E 00          0 18346 DEFB 00h
E47F 00          0 18347 DEFB 00h
E480 00          0 18348 DEFB 00h
E481 00          0 18349 DEFB 00h
E482 00          0 18350 DEFB 00h
E483 00          0 18351 DEFB 00h
E484 00          0 18352 DEFB 00h
E485 00          0 18353 DEFB 00h
E486 00          0 18354 DEFB 00h
E487 00          0 18355 DEFB 00h
E488 00          0 18356 DEFB 00h
E489 00          0 18357 DEFB 00h
E48A 00          0 18358 DEFB 00h
E48B 00          0 18359 DEFB 00h
E48C 00          0 18360 DEFB 00h
E48D 00          0 18361 DEFB 00h
E48E 00          0 18362 DEFB 00h
E48F 00          0 18363 DEFB 00h
E490 00          0 18364 DEFB 00h
E491 00          0 18365 DEFB 00h
E492 00          0 18366 DEFB 00h
E493 00          0 18367 DEFB 00h
E494 00          0 18368 DEFB 00h
E495 00          0 18369 DEFB 00h
E496 00          0 18370 DEFB 00h
E497 00          0 18371 DEFB 00h
E498 00          0 18372 DEFB 00h
E499 00          0 18373 DEFB 00h
E49A 00          0 18374 DEFB 00h
E49B 00          0 18375 DEFB 00h
E49C 00          0 18376 DEFB 00h
E49D 00          0 18377 DEFB 00h
E49E 00          0 18378 DEFB 00h
E49F 00          0 18379 DEFB 00h
E4A0 00          0 18380 DEFB 00h
E4A1 00          0 18381 DEFB 00h
E4A2 00          0 18382 DEFB 00h
E4A3 00          0 18383 DEFB 00h
E4A4 00          0 18384 DEFB 00h
E4A5 00          0 18385 DEFB 00h
E4A6 00          0 18386 DEFB 00h
E4A7 00          0 18387 DEFB 00h
E4A8 00          0 18388 DEFB 00h
E4A9 00          0 18389 DEFB 00h
E4AA 00          0 18390 DEFB 00h
E4AB 00          0 18391 DEFB 00h
E4AC 00          0 18392 DEFB 00h
E4AD 00          0 18393 DEFB 00h
E4AE 00          0 18394 DEFB 00h
E4AF 00          0 18395 DEFB 00h
E4B0 00          0 18396 DEFB 00h
E4B1 00          0 18397 DEFB 00h
E4B2 00          0 18398 DEFB 00h
E4B3 00          0 18399 DEFB 00h
E4B4 00          0 18400 DEFB 00h
E4B5 00          0 18401 DEFB 00h
E4B6 00          0 18402 DEFB 00h
E4B7 00          0 18403 DEFB 00h
E4B8 00          0 18404 DEFB 00h
E4B9 00          0 18405 DEFB 00h
E4BA 00          0 18406 DEFB 00h
E4BB 00          0 18407 DEFB 00h
E4BC 00          0 18408 DEFB 00h
E4BD 00          0 18409 DEFB 00h
E4BE 00          0 18410 DEFB 00h
E4BF 00          0 18411 DEFB 00h
E4C0 00          0 18412 DEFB 00h
E4C1 00          0 18413 DEFB 00h
E4C2 00          0 18414 DEFB 00h
E4C3 00          0 18415 DEFB 00h
E4C4 00          0 18416 DEFB 00h
E4C5 00          0 18417 DEFB 00h
E4C6 00          0 18418 DEFB 00h
E4C7 00          0 18419 DEFB 00h
E4C8 00          0 18420 DEFB 00h
E4C9 00          0 18421 DEFB 00h
E4CA 00          0 18422 DEFB 00h
E4CB 00          0 18423 DEFB 00h
E4CC 00          0 18424 DEFB 00h
E4CD 00          0 18425 DEFB 00h
E4CE 00          0 18426 DEFB 00h
E4CF 00          0 18427 DEFB 00h
E4D0 00          0 18428 DEFB 00h
E4D1 00          0 18429 DEFB 00h
E4D2 00          0 18430 DEFB 00h
E4D3 00          0 18431 DEFB 00h
E4D4 00          0 18432 DEFB 00h
E4D5 00          0 18433 DEFB 00h
E4D6 00          0 18434 DEFB 00h
E4D7 00          0 18435 DEFB 00h
E4D8 00          0 18436 DEFB 00h
E4D9 00          0 18437 DEFB 00h
E4DA 00          0 18438 DEFB 00h
E4DB 00          0 18439 DEFB 00h
E4DC 00          0 18440 DEFB 00h
E4DD 00          0 18441 DEFB 00h
E4DE 00          0 18442 DEFB 00h
E4DF 00          0 18443 DEFB 00h
E4E0 00          0 18444 DEFB 00h
E4E1 00          0 18445 DEFB 00h
E4E2 00          0 18446 DEFB 00h
E4E3 00          0 18447 DEFB 00h
E4E4 00          0 18448 DEFB 00h
E4E5 00          0 18449 DEFB 00h
E4E6 00          0 18450 DEFB 00h
E4E7 00          0 18451 DEFB 00h
E4E8 00          0 18452 DEFB 00h
E4E9 00          0 18453 DEFB 00h
E4EA 00          0 18454 DEFB 00h
E4EB 00          0 18455 DEFB 00h
E4EC 00          0 18456 DEFB 00h
E4ED 00          0 18457 DEFB 00h
E4EE 00          0 18458 DEFB 00h
E4EF 00          0 18459 DEFB 00h
E4F0 00          0 18460 DEFB 00h
E4F1 00          0 18461 DEFB 00h
E4F2 00          0 18462 DEFB 00h
E4F3 00          0 18463 DEFB 00h
E4F4 00          0 18464 DEFB 00h
E4F5 00          0 18465 DEFB 00h
E4F6 00          0 18466 DEFB 00h
E4F7 00          0 18467 DEFB 00h
E4F8 00          0 18468 DEFB 00h
E4F9 00          0 18469 DEFB 00h
E4FA 00          0 18470 DEFB 00h
E4FB 00          0 18471 DEFB 00h
E4FC 00          0 18472 DEFB 00h
E4FD 00          0 18473 DEFB 00h
E4FE 00          0 18474 DEFB 00h
E4FF 00          0 18475 DEFB 00h
E500 00          0 18476 DEFB 00h
E501 00          0 18477 DEFB 00h
E502 00          0 18478 DEFB 00h
E503 00          0 18479 DEFB 00h
E504 00          0 18480 DEFB 00h
E505 00          0 18481 DEFB 00h
E506 00          0 18482 DEFB 00h
E507 00          0 18483 DEFB 00h
E508 00          0 18484 DEFB 00h
E509 00          0 18485 DEFB 00h
E50A 00          0 18486 DEFB 00h
E50B 00          0 18487 DEFB 00h
E50C 00          0 18488 DEFB 00h
E50D 00          0 18489 DEFB 00h
E50E 00          0 18490 DEFB 00h
E50F 00          0 18491 DEFB 00h
E510 00          0 18492 DEFB 00h
E511 00          0 18493 DEFB 00h
E512 00          0 18494 DEFB 00h
E513 00          0 18495 DEFB 00h
E514 00          0 18496 DEFB 00h
E515 00          0 18497 DEFB 00h
E516 00          0 18498 DEFB 00h
E517 00          0 18499 DEFB 00h
E518 00          0 18500 DEFB 00h
E519 00          0 18501 DEFB 00h
E51A 00          0 18502 DEFB 00h
E51B 00          0 18503 DEFB 00h
E51C 00          0 18504 DEFB 00h
E51D 00          0 18505 DEFB 00h
E51E 00          0 18506 DEFB 00h
E51F 00          0 18507 DEFB 00h
E520 00          0 18508 DEFB 00h
E521 00          0 18509 DEFB 00h
E522 00          0 18510 DEFB 00h
E523 00          0 18511 DEFB 00h
E524 00          0 18512 DEFB 00h
E525 00          0 18513 DEFB 00h
E526 00          0 18514 DEFB 00h
E527 00          0 18515 DEFB 00h
E528 00          0 18516 DEFB 00h
E529 00          0 18517 DEFB 00h
E52A 00          0 18518 DEFB 00h
E52B 00          0 18519 DEFB 00h
E52C 00          0 18520 DEFB 00h
E52D 00          0 18521 DEFB 00h
E52E 00          0 18522 DEFB 00h
E52F 00          0 18523 DEFB 00h
E530 00          0 18524 DEFB 00h
E531 00          0 18525 DEFB 00h
E532 00          0 18526 DEFB 00h
E533 00          0 18527 DEFB 00h
E534 00          0 18528 DEFB 00h
E535 00          0 18529 DEFB 00h
E536 00          0 18530 DEFB 00h
E537 00          0 18531 DEFB 00h
E538 00          0 18532 DEFB 00h
E539 00          0 18533 DEFB 00h
E53A 00          0 18534 DEFB 00h
E53B 00          0 18535 DEFB 00h
E53C 00          0 18536 DEFB 00h
E53D 00          0 18537 DEFB 00h
E53E 00          0 18538 DEFB 00h
E53F 00          0 18539 DEFB 00h
E540 00          0 18540 DEFB 00h
E541 00          0 18541 DEFB 00h
E542 00          0 18542 DEFB 00h
E543 00          0 18543 DEFB 00h
E544 00          0 18544 DEFB 00h
E545 00          0 18545 DEFB 00h
E546 00          0 18546 DEFB 00h
E547 00          0 18547 DEFB 00h
E548 00          0 18548 DEFB 00h
E549 00          0 18549 DEFB 00h
E54A 00          0 18550 DEFB 00h
E54B 00          0 18551 DEFB 00h
E54C 00          0 18552 DEFB 00h
E54D 00          0 18553 DEFB 00h
E54E 00          0 18554 DEFB 00h
E54F 00          0 18555 DEFB 00h
E550 00          0 18556 DEFB 00h
E551 00          0 18557 DEFB 00h
E552 00          0 18558 DEFB 00h
E553 00          0 18559 DEFB 00h
E554 00          0 18560 DEFB 00h
E555 00          0 18561 DEFB 00h
E556 00          0 18562 DEFB 00h
E557 00          0 18563 DEFB 00h
E558 00          0 18564 DEFB 00h
E559 00          0 18565 DEFB 00h
E55A 00          0 18566 DEFB 00h
E55B 00          0 18567 DEFB 00h
E55C 00          0 18568 DEFB 00h
E55D 00          0 18569 DEFB 00h
E55E 00          0 18570 DEFB 00h
E55F 00          0 18571 DEFB 00h
E560 00          0 18572 DEFB 00h
E561 00          0 18573 DEFB 00h
E562 00          0 18574 DEFB 00h
E563 00          0 18575 DEFB 00h
E564 00          0 18576 DEFB 00h
E565 00          0 18577 DEFB 00h
E566 00          0 18578 DEFB 00h
E567 00          0 18579 DEFB 00h
E568 00          0 18580 DEFB 00h
E569 00          0 18581 DEFB 00h
E56A 00          0 18582 DEFB 00h
E56B 00          0 18583 DEFB 00h
E56C 00          0 18584 DEFB 00h
E56D 00          0 18585 DEFB 00h
E56E 00          0 18586 DEFB 00h
E56F 00          0 18587 DEFB 00h
E570 00          0 18588 DEFB 00h
E571 00          0 18589 DEFB 00h
E572 00          0 18590 DEFB 00h
E573 00          0 18591 DEFB 00h
E574 00          0 18592 DEFB 00h
E575 00          0 18593 DEFB 00h
E576 00          0 18594 DEFB 00h
E577 00          0 18595 DEFB 00h
E578 00          0 18596 DEFB 00h
E579 00          0 18597 DEFB 00h
E57A 00          0 18598 DEFB 00h
E57B 00          0 18599 DEFB 00h
E57C 00          0 18600 DEFB 00h
E57D 00          0 18601 DEFB 00h
E57E 00          0 18602 DEFB 00h
E57F 00          0 18603 DEFB 00h
E580 00          0 18604 DEFB 00h
E581 00          0 18605 DEFB 00h
E582 00          0 18606 DEFB 00h
E583 00          0 18607 DEFB 00h
E584 00          0 18608 DEFB 00h
E585 00          0 18609 DEFB 00h
E586 00          0 18610 DEFB 00h
E587 00          0 18611 DEFB 00h
E588 00          0 18612 DEFB 00h
E589 00          0 18613 DEFB 00h
E58A 00          0 18614 DEFB 00h
E58B 00          0 18615 DEFB 00h
E58C 00          0 18616 DEFB 00h
E58D 00          0 18617 DEFB 00h
E58E 00          0 18618 DEFB 00h
E58F 00          0 18619 DEFB 00h
E590 00          0 18620 DEFB 00h
E591 00          0 18621 DEFB 00h
E592 00          0 18622 DEFB 00h
E593 00          0 18623 DEFB 00h
E594 00          0 18624 DEFB 00h
E595 00          0 18625 DEFB 00h
E596 00          0 18626 DEFB 00h
E597 00          0 18627 DEFB 00h
E598 00          0 18628 DEFB 00h
E599 00          0 18629 DEFB 00h
E59A 00          0 18630 DEFB 00h
E59B 00          0 18631 DEFB 00h
E59C 00          0 18632 DEFB 00h
E59D 00          0 18633 DEFB 00h
E59E 00          0 18634 DEFB 00h
E59F 00          0 18635 DEFB 00h
E5A0 00          0 18636 DEFB 00h
E5A1 00          0 18637 DEFB 00h
E5A2 00          0 18638 DEFB 00h
E5A3 00          0 18639 DEFB 00h
E5A4 00          0 18640 DEFB 00h
E5A5 00          0 18641 DEFB 00h
E5A6 00          0 18642 DEFB 00h
E5A7 00          0 18643 DEFB 00h
E5A8 00          0 18644 DEFB 00h
E5A9 00          0 18645 DEFB 00h
E5AA 00          0 18646 DEFB 00h
E5AB 00          0 18647 DEFB 00h
E5AC 00          0 18648 DEFB 00h
E5AD 00          0 18649 DEFB 00h
E5AE 00          0 18650 DEFB 00h
E5AF 00          0 18651 DEFB 00h
E5B0 00          0 18652 DEFB 00h
E5B1 00          0 18653 DEFB 00h
E5B2 00          0 18654 DEFB 00h
E5B3 00          0 18655 DEFB 00h
E5B4 00          0 18656 DEFB 00h
E5B5 00          0 18657 DEFB 00h
E5B6 00          0 18658 DEFB 00h
E5B7 00          0 18659 DEFB 00h
E5B8 00          0 18660 DEFB 00h
E5B9 00          0 18661 DEFB 00h
E5BA 00          0 18662 DEFB 00h
E5BB 00          0 18663 DEFB 00h
E5BC 00          0 18664 DEFB 00h
E5BD 00          0 18665 DEFB 00h
E5BE 00          0 18666 DEFB 00h
E5BF 00          0 18667 DEFB 00h
E5C0 00          0 18668 DEFB 00h
E5C1 00          0 18669 DEFB 00h
E5C2 00          0 18670 DEFB 00h
E5C3 00          0 18671 DEFB 00h
E5C4 00          0 18672 DEFB 00h
E5C5 00          0 18673 DEFB 00h
E5C6 00          0 18674 DEFB 00h
E5C7 00          0 18675 DEFB 00h
E5C8 00          0 18676 DEFB 00h
E5C9 00          0 18677 DEFB 00h
E5CA 00          0 18678 DEFB 00h
E5CB 00          0 18679 DEFB 00h
E5CC 00          0 18680 DEFB 00h
E5CD 00          0 18681 DEFB 00h
E5CE 00          0 18682 DEFB 00h
E5CF 00          0 18683 DEFB 00h
E5D0 00          0 18684 DEFB 00h
E5D1 00          0 18685 DEFB 00h
E5D2 00          0 18686 DEFB 00h
E5D3 00          0 18687 DEFB 00h
E5D4 00          0 18688 DEFB 00h
E5D5 00          0 18689 DEFB 00h
E5D6 00          0 18690 DEFB 00h
E5D7 00          0 18691 DEFB 00h
E5D8 00          0 18692 DEFB 00h
E5D9 00          0 18693 DEFB 00h
E5DA 00          0 18694 DEFB 00h
E5DB 00          0 18695 DEFB 00h
E5DC 00          0 18696 DEFB 00h
E5DD 00          0 18697 DEFB 00h
E5DE 00          0 18698 DEFB 00h
E5DF 00          0 18699 DEFB 00h
E5E0 00          0 18700 DEFB 00h
E5E1 00          0 18701 DEFB 00h
E5E2 00          0 18702 DEFB 00h
E5E3 00          0 18703 DEFB 00h
E5E4 00          0 18704 DEFB 00h
E5E5 00          0 18705 DEFB 00h
E5E6 00          0 18706 DEFB 00h
E5E7 00          0 18707 DEFB 00h
E5E8 00          0 18708 DEFB 00h
E5E9 00          0 18709 DEFB 00h
E5EA 00          0 18710 DEFB 00h
E5EB 00          0 18711 DEFB 00h
E5EC 00          0 18712 DEFB 00h
E5ED 00          0 18713 DEFB 00h
E5EE 00          0 18714 DEFB 00h
E5EF 00          0 18715 DEFB 00h
E5F0 00          0 18716 DEFB 00h
E5F1 00          0 18717 DEFB 00h
E5F2 00          0 18718 DEFB 00h
E5F3 00          0 18719 DEFB 00h
E5F4 00          0 18720 DEFB 00h
E5F5 00          0 18721 DEFB 00h
E5F6 00          0 18722 DEFB 00h
E5F7 00          0 18723 DEFB 00h
E5F8 00          0 18724 DEFB 00h
E5F9 00          0 18725 DEFB 00h
E5FA 00          0 18726 DEFB 00h
E5FB 00          0 18727 DEFB 00h
E5FC 00          0 18728 DEFB 00h
E5FD 00          0 18729 DEFB 00h
E5FE 00          0 18730 DEFB 00h
E5FF 00          0 18731 DEFB 00h
E600 00          0 18732 DEFB 00h
E601 00          0 18733 DEFB 00h
E602 00          0 18734 DEFB 00h
E603 00          0 18735 DEFB 00h
E604 00          0 18736 DEFB 00h
E605 00          0 18737 DEFB 00h
E606 00          0 18738 DEFB 00h
E607 00          0 18739 DEFB 00h
E608 00          0 18740 DEFB 00h
E609 00          0 18741 DEFB 00h
E60A 00          0 18742 DEFB 00h
E60B 00          0 18743 DEFB 00h
E60C 00          0 18744 DEFB 00h
E60D 00          0 18745 DEFB 00h
E60E 00          0 18746 DEFB 00h
E60F 00          0 18747 DEFB 00h
E610 00          0 18748 DEFB 00h
E611 00          0 18749 DEFB 00h
E612 00          0 18750 DEFB 00h
E613 00          0 18751 DEFB 00h
E614 00          0 18752 DEFB 00h
E615 00          0 18753 DEFB 00h
E616 00          0 18754 DEFB 00h
E617 00          0 18755 DEFB 00h
E618 00          0 18756 DEFB 00h
E619 00          0 18757 DEFB 00h
E61A 00          0 18758 DEFB 00h
E61B 00          0 18759 DEFB 00h
E61C 00          0 18760 DEFB 00h
E61D 00          0 18761 DEFB 00h
E61E 00          0 18762 DEFB 00h
E61F 00          0 18763 DEFB 00h
E620 00          0 18764 DEFB 00h
E621 00          0 18765 DEFB 00h
E622 00          0 18766 DEFB 00h
E623 00          0 18767 DEFB 00h
E624 00          0 18768 DEFB 00h
E625 00          0 18769 DEFB 00h
E626 00          0 18770 DEFB 00h
E627 00          0 18771 DEFB 00h
E628 00          0 18772 DEFB 00h
E629 00          0 18773 DEFB 00h
E62A 00          0 18774 DEFB 00h
E62B 00          0 18775 DEFB 00h
E62C 00          0 18776 DEFB 00h
E62D 00          0 18777 DEFB 00h
E62E 00          0 18778 DEFB 00h
E62F 00          0 18779 DEFB 00h
E630 00          0 18780 DEFB 00h
E631 00          0 18781 DEFB 00h
E632 00          0 18782 DEFB 00h
E633 00          0 18783 DEFB 00h
E634 00          0 18784 DEFB 00h
E635 00          0 18785 DEFB 00h
E636 00          0 18786 DEFB 00h
E637 00          0 18787 DEFB 00h
E638 00          0 18788 DEFB 00h
E639 00          0 18789 DEFB 00h
E63A 00          0 18790 DEFB 00h
E63B 00          0 18791 DEFB 00h
E63C 00          0 18792 DEFB 00h
E63D 00          0 18793 DEFB 00h
E63E 00          0 18794 DEFB 00h
E63F 00          0 18795 DEFB 00h
E640 00          0 18796 DEFB 00h
E641 00          0 18797 DEFB 00h
E642 00          0 18798 DEFB 00h
E643 00          0 18799 DEFB 00h
E644 00          0 18800 DEFB 00h
E645 00          0 18801 DEFB 00h
E646 00          0 18802 DEFB 00h
E647 00          0 18803 DEFB 00h
E648 00          0 18804 DEFB 00h
E649 00          0 18805 DEFB 00h
E64A 00          0 18806 DEFB 00h
E64B 00          0 18807 DEFB 00h
E64C 00          0 18808 DEFB 00h
E64D 00          0 18809 DEFB 00h
E64E 00          0 18810 DEFB 00h
E64F 00          0 18811 DEFB 00h
E650 00          0 18812 DEFB 00h
E651 00          0 18813 DEFB 00h
E652 00          0 18814 DEFB 00h
E653 00          0 18815 DEFB 00h
E654 00          0 18816 DEFB 00h
E655 00          0 18817 DEFB 00h
E656 00          0 18818 DEFB 00h
E657 00          0 18819 DEFB 00h
E658 00          0 18820 DEFB 00h
E659 00          0 18821 DEFB 00h
E65A 00          0 18822 DEFB 00h
E65B 00          0 18823 DEFB 00h
E65C 00          0 18824 DEFB 00h
E65D 00          0 18825 DEFB 00h
E65E 00          0 18826 DEFB 00h
E65F 00          0 18827 DEFB 00h
E660 00          0 18828 DEFB 00h
E661 00          0 18829 DEFB 00h
E662 00          0 18830 DEFB 00h
E663 00          0 18831 DEFB 00h
E664 00          0 18832 DEFB 00h
E665 00          0 18833 DEFB 00h
E666 00          0 18834 DEFB 00h
E667 00          0 18835 DEFB 00h
E668 00          0 18836 DEFB 00h
E669 00          0 18837 DEFB 00h
E66A 00          0 18838 DEFB 00h
E66B 00          0 18839 DEFB 00h
E66C 00          0 18840 DEFB 00h
E66D 00          0 18841 DEFB 00h
E66E 00          0 18842 DEFB 00h
E66F 00          0 18843 DEFB 00h
E670 00          0 18844 DEFB 00h
E671 00          0 18845 DEFB 00h
E672 00          0 18846 DEFB 00h
E673 00          0 18847 DEFB 00h
E674 00          0 18848 DEFB 00h
E675 00          0 18849 DEFB 00h
E676 00          0 18850 DEFB 00h
E677 00          0 18851 DEFB 00h
E678 00          0 18852 DEFB 00h
E679 00          0 18853 DEFB 00h
E67A 00          0 18854 DEFB 00h
E67B 00          0 18855 DEFB 00h
E67C 00          0 18856 DEFB 00h
E67D 00          0 18857 DEFB 00h
E67E 00          0 18858 DEFB 00h
E67F 00          0 18859 DEFB 00h
E680 00          0 18860 DEFB 00h
E681 00          0 18861 DEFB 00h
E682 00          0 18862 DEFB 00h
E683 00          0 18863 DEFB 00h
E684 00          0 18864 DEFB 00h
E685 00          0 18865 DEFB 00h
E686 00          0 18866 DEFB 00h
E687 00          0 18867 DEFB 00h
E688 00          0 18868 DEFB 00h
E689 00          0 18869 DEFB 00h
E68A 00          0 18870 DEFB 00h
E68B 00          0 18871 DEFB 00h
E68C 00          0 18872 DEFB 00h
E68D 00          0 18873 DEFB 00h
E68E 00          0 18874 DEFB 00h
E68F 00          0 18875 DEFB 00h
E690 00          0 18876 DEFB 00h
E691 00          0 18877 DEFB 00h
E692 00          0 18878 DEFB 00h
E693 00          0 18879 DEFB 00h
E694 00          0 18880 DEFB 00h
E695 00          0 18881 DEFB 00h
E696 00          0 18882 DEFB 00h
E697 00          0 18883 DEFB 00h
E698 00          0 18884 DEFB 00h
E699 00          0 18885 DEFB 00h
E69A 00          0 18886 DEFB 00h
E69B 00          0 18887 DEFB 00h
E69C 00          0 18888 DEFB 00h
E69D 00          0 18889 DEFB 00h
E69E 00          0 18890 DEFB 00h
E69F 00          0 18891 DEFB 00h
E6A0 00          0 18892 DEFB 00h
E6A1 00          0 18893 DEFB 00h
E6A2 00          0 18894 DEFB 00h
E6A3 00          0 18895 DEFB 00h
E6A4 00          0 18896 DEFB 00h
E6A5 00          0 18897 DEFB 00h
E6A6 00          0 18898 DEFB 00h
E6A7 00          0 18899 DEFB 00h
E6A8 00          0 18900 DEFB 00h
E6A9 00          0 18901 DEFB 00h
E6AA 00          0 18902 DEFB 00h
E6AB 00          0 18903 DEFB 00h
E6AC 00          0 18904 DEFB 00h
E6AD 00          0 18905 DEFB 00h
E6AE 00          0 18906 DEFB 00h
E6AF 00          0 18907 DEFB 00h
E6B0 00          0 18908 DEFB 00h
E6B1 00          0 18909 DEFB 00h
E6B2 00          0 18910 DEFB 00h
E6B3 00          0 18911 DEFB 00h
E6B4 00          0 18912 DEFB 00h
E6B5 00          0 18913 DEFB 00h
E6B6 00          0 18914 DEFB 00h
E6B7 00          0 18915 DEFB 00h
E6B8 00          0 18916 DEFB 00h
E6B9 00          0 18917 DEFB 00h
E6BA 00          0 18918 DEFB 00h
E6BB 00          0 18919 DEFB 00h
E6BC 00          0 18920 DEFB 00h
E6BD 00          0 18921 DEFB 00h
E6BE 00          0 18922 DEFB 00h
E6BF 00          0 18923 DEFB 00h
E6C0 00          0 18924 DEFB 00h
E6C1 00          0 18925 DEFB 00h
E6C2 00          0 18926 DEFB 00h
E6C3 00          0 18927 DEFB 00h
E6C4 00          0 18928 DEFB 00h
E6C5 00          0 18929 DEFB 00h
E6C6 00          0 18930 DEFB 00h
E6C7 00          0 18931 DEFB 00h
E6C8 00          0 18932 DEFB 00h
E6C9 00          0 18933 DEFB 00h
E6CA 00          0 18934 DEFB 00h
E6CB 00          0 18935 DEFB 00h
E6CC 00          0 18936 DEFB 00h
E6CD 00          0 18937 DEFB 00h
E6CE 00          0 18938 DEFB 00h
E6CF 00          0 18939 DEFB 00h
E6D0 00          0 18940 DEFB 00h
E6D1 00          0 18941 DEFB 00h
E6D2 00          0 18942 DEFB 00h
E6D3 00          0 18943 DEFB 00h
E6D4 00          0 18944 DEFB 00h
E6D5 00          0 18945 DEFB 00h
E6D6 00          0 18946 DEFB 00h
E6D7 00          0 18947 DEFB 00h
E6D8 00          0 18948 DEFB 00h
E6D9 00          0 18949 DEFB 00h
E6DA 00          0 18950 DEFB 00h
E6DB 00          0 18951 DEFB 00h
E6DC 00          0 18952 DEFB 00h
E6DD 00          0 18953 DEFB 00h
E6DE 00          0 18954 DEFB 00h
E6DF 00          0 18955 DEFB 00h
E6E0 00          0 18956 DEFB 00h
E6E1 00          0 18957 DEFB 00h
E6E2 00          0 18958 DEFB 00h
E6E3 00          0 18959 DEFB 00h
E6E4 00          0 18960 DEFB 00h
E6E5 00          0 18961 DEFB 00h
E6E6 00          0 18962 DEFB 00h
E6E7 00          0 18963 DEFB 00h
E6E8 00          0 18964 DEFB 00h
E6E9 00          0 18965 DEFB 00h
E6EA 00          0 18966 DEFB 00h
E6EB 00          0 18967 DEFB 00h
E6EC 00          0 18968 DEFB 00h
E6ED 00          0 18969 DEFB 00h
E6EE 00          0 18970 DEFB 00h
E6EF 00          0 18971 DEFB 00h
E6F0 00          0 18972 DEFB 00h
E6F1 00          0 18973 DEFB 00h
E6F2 00          0 18974 DEFB 00h
E6F3 00          0 18975 DEFB 00h
E6F4 00          0 18976 DEFB 00h
E6F5 00          0 18977 DEFB 00h
E6F6 00          0 18978 DEFB 00h
E6F7 00          0 18979 DEFB 00h
E6F8 00          0 18980 DEFB 00h
E6F9 00          0 18981 DEFB 00h
E6FA 00          0 18982 DEFB 00h
E6FB 00          0 18983 DEFB 00h
E6FC 00          0 18984 DEFB 00h
E6FD 00          0 18985 DEFB 00h
E6FE 00          0 18986 DEFB 00h
E6FF 00          0 18987 DEFB 00h
E700 00          0 18988 DEFB 00h
E701 00          0 18989 DEFB 00h
E702 00          0 18990 DEFB 00h
E703 00          0 18991 DEFB 00h
E704 00          0 18992 DEFB 00h
E705 00          0 18993 DEFB 00h
E706 00          0 18994 DEFB 00h
E707 00          0 18995 DEFB 00h
E708 00          0 18996 DEFB 00h
E709 00          0 18997 DEFB 00h
E70A 00          0 18998 DEFB 00h
E70B 00          0 18999 DEFB 00h
E70C 00          0 19000 DEFB 00h
E70D 00          0 19001 DEFB 00h
E70E 00          0 19002 DEFB 00h
E70F 00          0 19003 DEFB 00h
E710 00          0 19004 DEFB 00h
E711 00          0 19005 DEFB 00h
E712 00          0 19006 DEFB 00h
E713 00          0 19007 DEFB 00h
E714 00          0 19008 DEFB 00h
E715 00          0 19009 DEFB 00h
E716 00          0 19010 DEFB 00h
E717 00          0 19011 DEFB 00h
E718 00          0 19012 DEFB 00h
E719 00          0 19013 DEFB 00h
E71A 00          0 19014 DEFB 00h
E71B 00          0 19015 DEFB 00h
E71C 00          0 19016 DEFB 00h
E71D 00          0 19017 DEFB 00h
E71E 00          0 19018 DEFB 00h
E71F 00          0 19019 DEFB 00h
E720 00          0 19020 DEFB 00h
E721 00          0 19021 DEFB 00h
E722 00          0 19022 DEFB 00h
E723 00          0 19023 DEFB 00h
E724 00          0 19024 DEFB 00h
E725 00          0 19025 DEFB 00h
E726 00          0 19026 DEFB 00h
E727 00          0 19027 DEFB 00h
E728 00          0 19028 DEFB 00h
E729 00          0 19029 DEFB 00h
E72A 00          0 19030 DEFB 00h
E72B 00          0 19031 DEFB 00h
E72C 00          0 19032 DEFB 00h
E72D 00          0 19033 DEFB 00h
E72E 00          0 19034 DEFB 00h
E72F 00          0 19035 DEFB 00h
E730 00          0 19036 DEFB 00h
E731 00          0 19037 DEFB 00h
E732 00          0 19038 DEFB 00h
E733 00          0 19039 DEFB 00h
E734 00          0 19040 DEFB 00h
E735 00          0 19041 DEFB 00h
E736 00          0 19042 DEFB 00h
E737 00          0 19043 DEFB 00h
E738 00          0 19044 DEFB 00h
E739 00          0 19045 DEFB 00h
E73A 00          0 19046 DEFB 00h
E73B 00          0 19047 DEFB 00h
E73C 00          0 19048 DEFB 00h
E73D 00          0 19049 DEFB 00h
E73E 00          0 19050 DEFB 00h
E73F 00          0 19051 DEFB 00h
E740 00          0 19052 DEFB 00h
E741 00          0 19053 DEFB 00h
E742 00          0 19054 DEFB 00h
E743 00          0 19055 DEFB 00h
E744 00          0 19056 DEFB 00h
E745 00          0 19057 DEFB 00h
E746 00          0 19058 DEFB 00h
E747 00          0 19059 DEFB 00h
E748 00          0 19060 DEFB 00h
E749 00          0 19061 DEFB 00h
E74A 00          0 19062 DEFB 00h
E74B 00          0 19063 DEFB 00h
E74C 00          0 19064 DEFB 00h
E74D 00          0 19065 DEFB 00h
E74E 00          0 19066 DEFB 00h
E74F 00          0 19067 DEFB 00h
E750 00          0 19068 DEFB 00h
E751 00          0 19069 DEFB 00h
E752 00          0 19070 DEFB 00h
E753 00          0 19071 DEFB 00h
E754 00          0 19072 DEFB 00h
E755 00          0 19073 DEFB 00h
E756 00          0 19074 DEFB 00h
E757 00          0 19075 DEFB 00h
E758 00          0 19076 DEFB 00h
E759 00          0 19077 DEFB 00h
E75A 00          0 19078 DEFB 00h
E75B 00          0 19079 DEFB 00h
E75C 00          0 19080 DEFB 00h
E75D 00          0 19081 DEFB 00h
E75E 00          0 19082 DEFB 00h
E75F 00          0 19083 DEFB 00h
E760 00          0 19084 DEFB 00h
E761 00          0 19085 DEFB 00h
E762 00          0 19086 DEFB 00h
E763 00          0 19087 DEFB 00h
E764 00          0 19088 DEFB 00h
E765 00          0 19089 DEFB 00h
E766 00          0 19090 DEFB 00h
E767 00          0 19091 DEFB 00h
E768 00          0 19092 DEFB 00h
E769 00          0 19093 DEFB 00h
E76A 00          0 19094 DEFB 00h
E76B 00          0 19095 DEFB 00h
E76C 00          0 19096 DEFB 00h
E76D 00          0 19097 DEFB 00h
E76E 00          0 19098 DEFB 00h
E76F 00          0 19099 DEFB 00h
E770 00          0 19100 DEFB 00h
E771 00          0 19101 DEFB 00h
E772 00          0 19102 DEFB 00h
E773 00          0 19103 DEFB 00h
E774 00          0 19104 DEFB 00h
E775 00          0 19105 DEFB 00h
E776 00          0 19106 DEFB 00h
E777 00          0 19107 DEFB 00h
E778 00          0 19108 DEFB 00h
E779 00          0 19109 DEFB 00h
E77A 00          0 19110 DEFB 00h
E77B 00          0 19111 DEFB 00h
E77C 00          0 19112 DEFB 00h
E77D 00          0 19113 DEFB 00h
E77E 00          0 19114 DEFB 00h
E77F 00          0 19115 DEFB 00h
E780 00          0 19116 DEFB 00h
E781 00          0 19117 DEFB 00h
E782 00          0 19118 DEFB 00h
E783 00          0 19119 DEFB 00h
E784 00          0 19120 DEFB 00h
E785 00          0 19121 DEFB 00h
E786 00          0 19122 DEFB 00h
E787 00          0 19123 DEFB 00h
E788 00          0 19124 DEFB 00h
E789 00          0 19125 DEFB 00h
E78A 00          0 19126 DEFB 00h
E78B 00          0 19127 DEFB 00h
E78C 00          0 19128 DEFB 00h
E78D 00          0 19129 DEFB 00h
E78E 00          0 19130 DEFB 00h
E78F 00          0 19131 DEFB 00h
E790 00          0 19132 DEFB 00h
E791 00          0 19133 DEFB 00h
E792 00          0 19134 DEFB 00h
E793 00          0 19135 DEFB 00h
E794 00          0 19136 DEFB 00h
E795 00          0 19137 DEFB 00h
E796 00          0 19138 DEFB 00h
E797 00          0 19139 DEFB 00h
E798 00          0 19140 DEFB 00h
E799 00          0 19141 DEFB 00h
E79A 00          0 19142 DEFB 00h
E79B 00          0 19143 DEFB 00h
E79C 00          0 19144 DEFB 00h
E79D 00          0 19145 DEFB 00h
E79E 00          0 19146 DEFB 00h
E79F 00          0 19147 DEFB 00h
E7A0 00          0 19148 DEFB 00h
E7A1 00          0 19149 DEFB 00h
E7A2 00          0 19150 DEFB 00h
E7A3 00          0 19151 DEFB 00h
E7A4 00          0 19152 DEFB 00h
E7A5 00          0 19153 DEFB 00h
E7A6 00          0 19154 DEFB 00h
E7A7 00          0 19155 DEFB 00h
E7A8 00          0 19156 DEFB 00h
E7A9 00          0 19157 DEFB 00h
E7AA 00          0 19158 DEFB 00h
E7AB 00          0 19159 DEFB 00h
E7AC 00          0 19160 DEFB 00h
E7AD 00          0 19161 DEFB 00h
E7AE 00          0 19162 DEFB 00h
E7AF 00          0 19163 DEFB 00h
E7B0 00          0 19164 DEFB 00h
E7B1 00          0 19165 DEFB 00h
E7B2 00          0 19166 DEFB 00h
E7B3 00          0 19167 DEFB 00h
E7B4 00          0 19168 DEFB 00h
E7B5 00          0 19169 DEFB 00h
E7B6 00          0 19170 DEFB 00h
E7B7 00          0 19171 DEFB 00h
E7B8 00          0 19172 DEFB 00h
E7B9 00          0 19173 DEFB 00h
E7BA 00          0 19174 DEFB 00h
E7BB 00          0 19175 DEFB 00h
E7BC 00          0 19176 DEFB 00h
E7BD 00          0 19177 DEFB 00h
E7BE 00          0 19178 DEFB 00h
E7BF 00          0 19179 DEFB 00h
E7C0 00          0 19180 DEFB 00h
E7C1 00          0 19181 DEFB 00h
E7C2 00          0 19182 DEFB 00h
E7C3 00          0 19183 DEFB 00h
E7C4 00          0 19184 DEFB 00h
E7C5 00          0 19185 DEFB 00h
E7C6 00          0 19186 DEFB 00h
E7C7 00          0 19187 DEFB 00h
E7C8 00          0 19188 DEFB 00h
E7C9 00          0 19189 DEFB 00h
E7CA 00          0 19190 DEFB 00h
E7CB 00          0 19191 DEFB 00h
E7CC 00          0 19192 DEFB 00h
E7CD 00          0 19193 DEFB 00h
E7CE 00          0 19194 DEFB 00h
E7CF 00          0 19195 DEFB 00h
E7D0 00          0 19196 DEFB 00h
E7D1 00          0 19197 DEFB 00h
E7D2 00          0 19198 DEFB 00h
E7D3 00          0 19199 DEFB 00h
E7D4 00          0 19200 DEFB 00h
E7D5 00          0 19201 DEFB 00h
E7D6 00          0 19202 DEFB 00h
E7D7 00          0 19203 DEFB 00h
E7D8 00          0 19204 DEFB 00h
E7D9 00          0 19205 DEFB 00h
E7DA 00          0 19206 DEFB 00h
E7DB 00          0 19207 DEFB 00h
E7DC 00          0 19208 DEFB 00h
E7DD 00          0 19209 DEFB 00h
E7DE 00          0 19210 DEFB 00h
E7DF 00          0 19211 DEFB 00h
E7E0 00          0 19212 DEFB 00h
E7E1 00          0 19213 DEFB 00h
E7E2 00          0 19214 DEFB 00h
E7E3 00          0 19215 DEFB 00h
E7E4 00          0 19216 DEFB 00h
E7E5 00          0 19217 DEFB 00h
E7E6 00          0 19218 DEFB 00h
E7E7 00          0 19219 DEFB 00h
E7E8 00          0 19220 DEFB 00h
E7E9 00          0 19221 DEFB 00h
E7EA 00          0 19222 DEFB 00h
E7EB 00          0 19223 DEFB 00h
E7EC 00          0 19224 DEFB 00h
E7ED 00          0 19225 DEFB 00h
E7EE 00          0 19226 DEFB 00h
E7EF 00          0 19227 DEFB 00h
E7F0 00          0 19228 DEFB 00h
E7F1 00          0 19229 DEFB 00h
E7F2 00          0 19230 DEFB 00h
E7F3 00          0 19231 DEFB 00h
E7F4 00          0 19232 DEFB 00h
E7F5 00          0 19233 DEFB 00h
E7F6 00          0 19234 DEFB 00h
E7F7 00          0 19235 DEFB 00h
E7F8 00          0 19236 DEFB 00h
E7F9 00          0 19237 DEFB 00h
E7FA 00          0 19238 DEFB 00h
E7FB 00          0 19239 DEFB 00h
E7FC 00          0 19240 DEFB 00h
E7FD 00          0 19241 DEFB 00h
E7FE 00          0 19242 DEFB 00h
E7FF 00          0 19243 DEFB 00h
E800 00          0 19244 DEFB 00h
E801 00          0 19245 DEFB 00h
E802 00          0 19246 DEFB 00h
E803 00          0 19247 DEFB 00h
E804 00          0 19248 DEFB 00h
E805 00          0 19249 DEFB 00h
E806 00          0 19250 DEFB 00h
E807 00          0 19251 DEFB 00h
E808 00          0 19252 DEFB 00h
E809 00          0 19253 DEFB 00h
E80A 00          0 19254 DEFB 00h
E80B 00          0 19255 DEFB 00h
E80C 00          0 19256 DEFB 00h
E80D 00          0 19257 DEFB 00h
E80E 00          0 19258 DEFB 00h
E80F 00          0 19259 DEFB 00h
E810 00          0 19260 DEFB 00h
E811 00          0 19261 DEFB 00h
E812 00          0 19262 DEFB 00h
E813 00          0 19263 DEFB 00h
E814 00          0 19264 DEFB 00h
E815 00          0 19265 DEFB 00h
E816 00          0 19266 DEFB 00h
E817 00          0 19267 DEFB 00h
E818 00          0 19268 DEFB 00h
E819 00          0 19269 DEFB 00h
E81A 00          0 19270 DEFB 00h
E81B 00          0 19271 DEFB 00h
E81C 00          0 19272 DEFB 00h
E81D 00          0 19273 DEFB 00h
E81E 00          0 19274 DEFB 00h
E81F 00          0 19275 DEFB 00h
E820 00          0 19276 DEFB 00h
E821 00          0 19277 DEFB 00h
E822 00          0 19278 DEFB 00h
E823 00          0 19279 DEFB 00h
E824 00          0 19280 DEFB 00h
E825 00          0 19281 DEFB 00h
E826 00          0 19282 DEFB 00h
E827 00          0 19283 DEFB 00h
E828 00          0 19284 DEFB 00h
E829 00          0 19285 DEFB 00h
E82A 00          0 19286 DEFB 00h
E82B 00          0 19287 DEFB 00h
E82C 00          0 19288 DEFB 00h
E82D 00          0 19289 DEFB 00h
E82E 00          0 19290 DEFB 00h
E82F 00          0 19291 DEFB 00h
E830 00          0 19292 DEFB 00h
E831 00          0 19293 DEFB 00h
E832 00          0 19294 DEFB 00h
E833 00          0 19295 DEFB 00h
E834 00          0 19296 DEFB 00h
E835 00          0 19297 DEFB 00h
E836 00          0 19298 DEFB 00h
E837 00          0 19299 DEFB 00h
E838 00          0 19300 DEFB 00h
E839 00          0 19301 DEFB 00h
E83A 00          0 19302 DEFB 00h
E83B 00          0 19303 DEFB 00h
E83C 00          0 19304 DEFB 00h
E83D 00          0 19305 DEFB 00h
E83E 00          0 19306 DEFB 00h
E83F 00          0 19307 DEFB 00h
E840 00          0 19308 DEFB 00h
E841 00          0 19309 DEFB 00h
E842 00          0 19310 DEFB 00h
E843 00          0 19311 DEFB 00h
E844 00          0 19312 DEFB 00h
E845 00          0 19313 DEFB 00h
E846 00          0 19314 DEFB 00h
E847 00          0 19315 DEFB 00h
E848 00          0 19316 DEFB 00h
E849 00          0 19317 DEFB 00h
E84A 00          0 19318 DEFB 00h
E84B 00          0 19319 DEFB 00h
E84C 00          0 19320 DEFB 00h
E84D 00          0 19321 DEFB 00h
E84E 00          0 19322 DEFB 00h
E84F 00          0 19323 DEFB 00h
E850 00          0 19324 DEFB 00h
E851 00          0 19325 DEFB 00h
E852 00          0 19326 DEFB 00h
E853 00          0 19327 DEFB 00h
E854 00          0 19328 DEFB 00h
E855 00          0 19329 DEFB 00h
E856 00          0 19330 DEFB 00h
E857 00          0 19331 DEFB 00h
E858 00          0 19332 DEFB 00h
E859 00          0 19333 DEFB 00h
E85A 00          0 19334 DEFB 00h
E85B 00          0 19335 DEFB 00h
E85C 00          0 19336 DEFB 00h
E85D 00          0 19337 DEFB 00h
E85E 00          0 19338 DEFB 00h
E85F 00          0 19339 DEFB 00h
E860 00          0 19340 DEFB 00h
E861 00          0 19341 DEFB 00h
E862 00          0 19342 DEFB 00h
E863 00          0 19343 DEFB 00h
E864 00          0 19344 DEFB 00h
E865 00          0 19345 DEFB 00h
E866 00          0 19346 DEFB 00h
E867 00          0 19347 DEFB 00h
E868 00          0 19348 DEFB 00h
E869 00          0 19349 DEFB 00h
E86A 00          0 19350 DEFB 00h
E86B 00          0 19351 DEFB 00h
E86C 00          0 19352 DEFB 00h
E86D 00          0 19353 DEFB 00h
E86E 00          0 19354 DEFB 00h
E86F 00          0 19355 DEFB 00h
E870 00          0 19356 DEFB 00h
E871 00          0 19357 DEFB 00h
E872 00          0 19358 DEFB 00h
E873 00          0 19359 DEFB 00h
E874 00          0 19360 DEFB 00h
E875 00          0 19361 DEFB 00h
E876 00          0 19362 DEFB 00h
E877 00          0 19363 DEFB 00h
E878 00          0 19364 DEFB 00h
E879 00          0 19365 DEFB 00h
E87A 00          0 19366 DEFB 00h
E87B 00          0 19367 DEFB 00h
E87C 00          0 19368 DEFB 00h
E87D 00          0 19369 DEFB 00h
E87E 00          0 19370 DEFB 00h
E87F 00          0 19371 DEFB 00h
E880 00          0 19372 DEFB 00h
E881 00          0 19373 DEFB 00h
E882 00          0 19374 DEFB 00h
E883 00          0 19375 DEFB 00h
E884 00          0 19376 DEFB 00h
E885 00          0 19377 DEFB 00h
E886 00          0 19378 DEFB 00h
E887 00          0 19379 DEFB 00h
E888 00          0 19380 DEFB 00h
E889 00          0 19381 DEFB 00h
E88A 00          0 19382 DEFB 00h
E88B 00          0 19383 DEFB 00h
E88C 00          0 19384 DEFB 00h
E88D 00          0 19385 DEFB 00h
E88E 00          0 19386 DEFB 00h
E88F 00          0 19387 DEFB 00h
E890 00          0 19388 DEFB 00h
E891 00          0 19389 DEFB 00h
E892 00          0 19390 DEFB 00h
E893 00          0 19391 DEFB 00h
E894 00          0 19392 DEFB 00h
E895 00          0 19393 DEFB 00h
E896 00          0 19394 DEFB 00h
E897 00          0 19395 DEFB 00h
E898 00          0 19396 DEFB 00h
E899 00          0 19397 DEFB 00h
E89A 00          0 19398 DEFB 00h
E89B 00          0 19399 DEFB 00h
E89C 00          0 19400 DEFB 00h
E89D 00          0 19401 DEFB 00h
E89E 00          0 19402 DEFB 00h
E89F 00          0 19403 DEFB 00h
E8A0 00          0 19404 DEFB 00h
E8A1 00          0 19405 DEFB 00h
E8A2 00          0 19406 DEFB 00h
E8A3 00          0 19407 DEFB 00h
E8A4 00          0 19408 DEFB 00h
E8A5 00          0 19409 DEFB 00h
E8A6 00          0 19410 DEFB 00h
E8A7 00          0 19411 DEFB 00h
E8A8 00          0 19412 DEFB 00h
E8A9 00          0 19413 DEFB 00h
E8AA 00          0 19414 DEFB 00h
E8AB 00          0 19415 DEFB 00h
E8AC 00          0 19416 DEFB 00h
E8AD 00          0 19417 DEFB 00h
E8AE 00          0 19418 DEFB 00h
E8AF 00          0 19419 DEFB 00h
E8B0 00          0 19420 DEFB 00h
E8B1 00          0 19421 DEFB 00h
E8B2 00          0 19422 DEFB 00h
E8B3 00          0 19423 DEFB 00h
E8B4 00          0 19424 DEFB 00h
E8B5 00          0 19425 DEFB 00h
E8B6 00          0 19426 DEFB 00h
E8B7 00          0 19427 DEFB 00h
E8B8 00          0 19428 DEFB 00h
E8B9 00          0 19429 DEFB 00h
E8BA 00          0 19430 DEFB 00h
E8BB 00          0 19431 DEFB 00h
E8BC 00          0 19432 DEFB 00h
E8BD 00          0 19433 DEFB 00h
E8BE 00          0 19434 DEFB 00h
E8BF 00          0 19435 DEFB 00h
E8C0 00          0 19436 DEFB 00h
E8C1 00          0 19437 DEFB 00h
E8C2 00          0 19438 DEFB 00h
E8C3 00          0 19439 DEFB 00h
E8C4 00          0 19440 DEFB 00h
E8C5 00          0 19441 DEFB 00h
E8C6 00          0 19442 DEFB 00h
E8C7 00          0 19443 DEFB 00h
E8C8 00          0 19444 DEFB 00h
E8C9 00          0 19445 DEFB 00h
E8CA 00          0 19446 DEFB 00h
E8CB 00          0 19447 DEFB 00h
E8CC 00          0 19448 DEFB 00h
E8CD 00          0 19449 DEFB 00h
E8CE 00          0 19450 DEFB 00h
E8CF 00          0 19451 DEFB 00h
E8D0 00          0 19452 DEFB 00h
E8D1 00          0 19453 DEFB 00h
E8D2 00          0 19454 DEFB 00h
E8D3 00          0 19455 DEFB 00h
E8D4 00          0 19456 DEFB 00h
E8D5 00          0 19457 DEFB 00h
E8D6 00          0 19458 DEFB 00h
E8D7 00          0 19459 DEFB 00h
E8D8 00          0 19460 DEFB 00h
E8D9 00          0 19461 DEFB 00h
E8DA 00          0 19462 DEFB 00h
E8DB 00          0 19463 DEFB 00h
E8DC 00          0 19464 DEFB 00h
E8DD 00          0 19465 DEFB 00h
E8DE 00          0 19466 DEFB 00h
E8DF 00          0 19467 DEFB 00h
E8E0 00          0 19468 DEFB 00h
E8E1 00          0 19469 DEFB 00h
E8E2 00          0 19470 DEFB 00h
E8E3 00          0 19471 DEFB 00h
E8E4 00          0 19472 DEFB 00h
E8E5 00          0 19473 DEFB 00h
E8E6 00          0 19474 DEFB 00h
E8E7 00          0 19475 DEFB 00h
E8E8 00          0 19476 DEFB 00h
E8E9 00          0 19477 DEFB 00h
E8EA 00          0 19478 DEFB 00h
E8EB 00          0 19479 DEFB 00h
E8EC 00          0 19480 DEFB 00h
E8ED 00          0 19481 DEFB 00h
E8EE 00          0 19482 DEFB 00h
E8EF 00          0 19483 DEFB 00h
E8F0 00          0 19484 DEFB 00h
E8F1 00          0 19485 DEFB 00h
E8F2 00          0 19486 DEFB 00h
E8F3 00          0 19487 DEFB 00h
E8F4 00          0 19488 DEFB 00h
E8F5 00          0 19489 DEFB 00h
E8F6 00          0 19490 DEFB 00h
E8F7 00          0 19491 DEFB 00h
E8F8 00          0 19492 DEFB 00h
E8F9 00          0 19493 DEFB 00h
E8FA 00          0 19494 DEFB 00h
E8FB 00          0 19495 DEFB 00h
E8FC 00          0 19496 DEFB 00h
E8FD 00          0 19497 DEFB 00h
E8FE 00          0 19498 DEFB 00h
E8FF 00          0 19499 DEFB 00h
E900 00          0 19500 DEFB 00h
E901 00          0 19501 DEFB 00h
E902 00          0 19502 DEFB 00h
E903 00          0 19503 DEFB 00h
E904 00          0 19504 DEFB 00h
E905 00          0 19505 DEFB 00h
E906 00          0 19506 DEFB 00h
E907 00          0 19507 DEFB 00h
E908 00          0 19508 DEFB 00h
E909 00          0 19509 DEFB 00h
E90A 00          0 19510 DEFB 00h
E90B 00          0 19511 DEFB 00h
E90C 00          0 19512 DEFB 00h
E90D 00          0 19513 DEFB 00h
E90E 00          0 19514 DEFB 00h
E90F 00          0 19515 DEFB 00h
E910 00          0 19516 DEFB 00h
E911 00          0 19517 DEFB 00h
E912 00          0 19518 DEFB 00h
E913 00          0 19519 DEFB 00h
E914 00          0 19520 DEFB 00h
E915 00          0 19521 DEFB 00h
E916 00          0 19522 DEFB 00h
E917 00          0 19523 DEFB 00h
E918 00          0 19524 DEFB 00h
E919 00          0 19525 DEFB 00h
E91A 00          0 19526 DEFB 00h
E91B 00          0 19527 DEFB 00h
E91C 00          0 19528 DEFB 00h
E91D 00          0 19529 DEFB 00h
E91E 00          0 19530 DEFB 00h
E91F 00          0 19531 DEFB 00h
E920 00          0 19532 DEFB 00h
E921 00          0 19533 DEFB 00h
E922 00          0 19534 DEFB 00h
E923 00          0 19535 DEFB 00h
E924 00          0 19536 DEFB 00h
E925 00          0 19537 DEFB 00h
E926 00          0 19538 DEFB 00h
E927 00          0 19539 DEFB 00h
E928 00          0 19540 DEFB 00h
E929 00          0 19541 DEFB 00h
E92A 00          0 19542 DEFB 00h
E92B 00          0 19543 DEFB 00h
E92C 00          0 19544 DEFB 00h
E92D 00          0 19545 DEFB 00h
E92E 00          0 19546 DEFB 00h
E92F 00          0 19547 DEFB 00h
E930 00          0 19548 DEFB 00h
E931 00          0 19549 DEFB 00h
E932 00          0 19550 DEFB 00h
E933 00          0 19551 DEFB 00h
E934 00          0 19552 DEFB 00h
E935 00          0 19553 DEFB 00h
E936 00          0 19554 DEFB 00h
E937 00          0 19555 DEFB 00h
E938 00          0 19556 DEFB 00h
E939 00          0 19557 DEFB 00h
E93A 00          0 19558 DEFB 00h
E93B 00          0 19559 DEFB 00h
E93C 00          0 19560 DEFB 00h
E93D 00          0 19561 DEFB 00h
E93E 00          0 19562 DEFB 00h
E93F 00          0 19563 DEFB 00h
E940 00          0 19564 DEFB 00h
E941 00          0 19565 DEFB 00h
E942 00          0 19566 DEFB 00h
E943 00          0 19567 DEFB 00h
E944 00          0 19568 DEFB 00h
E945 00          0 19569 DEFB 00h
E946 00          0 19570 DEFB 00h
E947 00          0 19571 DEFB 00h
E948 00          0 19572 DEFB 00h
E949 00          0 19573 DEFB 00h
E94A 00          0 19574 DEFB 00h
E94B 00          0 19575 DEFB 00h
E94C 00          0 19576 DEFB 00h
E94D 00          0 19577 DEFB 00h
E94E 00          0 19578 DEFB 00h
E94F 00          0 19579 DEFB 00h
E950 00          0 19580 DEFB 00h
E951 00          0 19581 DEFB 00h
E952 00          0 19582 DEFB 00h
E953 00          0 19583 DEFB 00h
E954 00          0 19584 DEFB 00h
E955 00          0 19585 DEFB 00h
E956 00          0 19586 DEFB 00h
E957 00          0 19587 DEFB 00h
E958 00          0 19588 DEFB 00h
E959 00          0 19589 DEFB 00h
E95A 00          0 19590 DEFB 00h
E95B 00          0 19591 DEFB 00h
E95C 00          0 19592 DEFB 00h
E95D 00          0 19593 DEFB 00h
E95E 00          0 19594 DEFB 00h
E95F 00          0 19595 DEFB 00h
E960 00          0 19596 DEFB 00h
E961 00          0 19597 DEFB 00h
E962 00          0 19598 DEFB 00h
E963 00          0 19599 DEFB 00h
E964 00          0 19600 DEFB 00h
E965 00          0 19601 DEFB 00h
E966 00          0 19602 DEFB 00h
E967 00          0 19603 DEFB 00h
E968 00          0 19604 DEFB 00h
E969 00          0 19605 DEFB 00h
E96A 00          0 19606 DEFB 00h
E96B 00          0 19607 DEFB 00h
E96C 00          0 19608 DEFB 00h
E96D 00          0 19609 DEFB 00h
E96E 00          0 19610 DEFB 00h
E96F 00          0 19611 DEFB 00h
E970 00          0 19612 DEFB 00h
E971 00          0 19613 DEFB 00h
E972 00          0 19614 DEFB 00h
E973 00          0 19615 DEFB 00h
E974 00          0 19616 DEFB 00h
E975 00          0 19617 DEFB 00h
E976 00          0 19618 DEFB 00h
E977 00          0 19619 DEFB 00h
E978 00          0 19620 DEFB 00h
E979 00          0 19621 DEFB 00h
E97A 00          0 19622 DEFB 00h
E97B 00          0 19623 DEFB 00h
E97C 00          0 19624 DEFB 00h
E97D 00          0 19625 DEFB 00h
E97E 00          0 19626 DEFB 00h
E97F 00          0 19627 DEFB 00h
E980 00          0 19628 DEFB 00h
E981 00          0 19629 DEFB 00h
E982 00          0 19630 DEFB 00h
E983 00          0 19631 DEFB 00h
E984 00          0 19632 DEFB 00h
E985 00          0 19633 DEFB 00h
E986 00          0 19634 DEFB 00h
E987 00          0 19635 DEFB 00h
E988 00          0 19636 DEFB 00h
E989 00          0 19637 DEFB 00h
E98A 00          0 19638 DEFB 00h
E98B 00          0 19639 DEFB 00h
E98C 00          0 19640 DEFB 00h
E98D 00          0 19641 DEFB 00h
E98E 00          0 19642 DEFB 00h
E98F 00          0 19643 DEFB 00h
E990 00          0 19644 DEFB 00h
E991 00          0 19645 DEFB 00h
E992 00          0 19646 DEFB 00h
E993 00          0 19647 DEFB 00h
E994 00          0 19648 DEFB 00h
E995 00          0 19649 DEFB 00h
E996 00          0 19650 DEFB 00h
E997 00          0 19651 DEFB 00h
E998 00          0 19652 DEFB 00h
E999 00          0 19653 DEFB 00h
E99A 00          0 19654 DEFB 00h
E99B 00          0 19655 DEFB 00h
E99C 00          0 19656 DEFB 00h
E99D 00          0 19657 DEFB 00h
E99E 00          0 19658 DEFB 00h
E99F 00          0 19659 DEFB 00h
E9A0 00          0 19660 DEFB 00h
E9A1 00          0 19661 DEFB 00h
E9A2 00          0 19662 DEFB 00h
E9A3 00          0 19663 DEFB 00h
E9A4 00          0 19664 DEFB 00h
E9A5 00          0 19665 DEFB 00h
E9A6 00          0 19666 DEFB 00h
E9A7 00          0 19667 DEFB 00h
E9A8 00          0 19668 DEFB 00h
E9A9 00          0 19669 DEFB 00h
E9AA 00          0 19670 DEFB 00h
E9AB 00          0 19671 DEFB 00h
E9AC 00          0 19672 DEFB 00h
E9AD 00          0 19673 DEFB 00h
E9AE 00          0 19674 DEFB 00h
E9AF 00          0 19675 DEFB 00h
E9B0 00          0 19676 DEFB 00h
E9B1 00          0 19677 DEFB 00h
E9B2 00          0 19678 DEFB 00h
E9B3 00          0 19679 DEFB 00h
E9B4 00          0 19680 DEFB 00h
E9B5 00          0 19681 DEFB 00h
E9B6 00          0 19682 DEFB 00h
E9B7 00          0 19683 DEFB 00h
E9B8 00          0 19684 DEFB 00h
E9B9 00          0 19685 DEFB 00h
E9BA 00          0 19686 DEFB 00h
E9BB 00          0 19687 DEFB 00h
E9BC 00          0 19688 DEFB 00h
E9BD 00          0 19689 DEFB 00h
E9BE 00          0 19690 DEFB 00h
E9BF 00          0 19691 DEFB 00h
E9C0 00          0 19692 DEFB 00h
E9C1 00          0 19693 DEFB 00h
E9C2 00          0 19694 DEFB 00h
E9C3 00          0 19695 DEFB 00h
E9C4 00          0 19696 DEFB 00h
E9C5 00          0 19697 DEFB 00h
E9C6 00          0 19698 DEFB 00h
E9C7 00          0 19699 DEFB 00h
E9C8 00          0 19700 DEFB 00h
E9C9 00          0 19701 DEFB 00h
E9CA 00          0 19702 DEFB 00h
E9CB 00          0 19703 DEFB 00h
E9CC 00          0 19704 DEFB 00h
E9CD 00          0 19705 DEFB 00h
E9CE 00          0 19706 DEFB 00h
E9CF 00          0 19707 DEFB 00h
E9D0 00          0 19708 DEFB 00h
E9D1 00          0 19709 DEFB 00h
E9D2 00          0 19710 DEFB 00h
E9D3 00          0 19711 DEFB 00h
E9D4 00          0 19712 DEFB 00h
E9D5 00          0 19713 DEFB 00h
E9D6 00          0 19714 DEFB 00h
E9D7 00          0 19715 DEFB 00h
E9D8 00          0 19716 DEFB 00h
E9D9 00          0 19717 DEFB 00h
E9DA 00          0 19718 DEFB 00h
E9DB 00          0 19719 DEFB 00h
E9DC 00          0 19720 DEFB 00h
E9DD 00          0 19721 DEFB 00h
E9DE 00          0 19722 DEFB 00h
E9DF 00          0 19723 DEFB 00h
E9E0 00          0 19724 DEFB 00h
E9E1 00          0 19725 DEFB 00h
E9E2 00          0 19726 DEFB 00h
E9E3 00          0 19727 DEFB 00h
E9E4 00          0 19728 DEFB 00h
E9E5 00          0 19729 DEFB 00h
E9E6 00          0 19730 DEFB 00h
E9E7 00          0 19731 DEFB 00h
E9E8 00          0 19732 DEFB 00h
E9E9 00          0 19733 DEFB 00h
E9EA 00          0 19734 DEFB 00h
E9EB 00          0 19735 DEFB 00h
E9EC 00          0 19736 DEFB 00h
E9ED 00          0 19737 DEFB 00h
E9EE 00          0 19738 DEFB 00h
E9EF 00          0 19739 DEFB 00h
E9F0 00          0 19740 DEFB 00h
E9F1 00          0 19741 DEFB 00h
E9F2 00          0 19742 DEFB 00h
E9F3 00          0 19743 DEFB 00h
E9F4 00          0 19744 DEFB 00h
E9F5 00          0 19745 DEFB 00h
E9F6 00          0 19746 DEFB 00h
E9F7 00          0 19747 DEFB 00h
E9F8 00          0 19748 DEFB 00h
E9F9 00          0 19749 DEFB 00h
E9FA 00          0 19750 DEFB 00h
E9FB 00          0 19751 DEFB 00h
E9FC 00          0 19752 DEFB 00h
E9FD 00          0 19753 DEFB 00h
E9FE 00          0 19754 DEFB 00h
E9FF 00          0 19755 DEFB 00h
EA00 00          0 19756 DEFB 00h
EA01 00          0 19757 DEFB 00h
EA02 00          0 19758 DEFB 00h
EA03 00          0 19759 DEFB 00h
EA04 00          0 19760 DEFB 00h
EA05 00          0 19761 DEFB 00h
EA06 00          0 19762 DEFB 00h
EA07 00          0 19763 DEFB 00h
EA08 00          0 19764 DEFB 00h
EA09 00          0 19765 DEFB 00h
EA0A 00          0 19766 DEFB 00h
EA0B 00          0 19767 DEFB 00h
EA0C 00          0 19768 DEFB 00h
EA0D 00          0 19769 DEFB 00h
EA0E 00          0 19770 DEFB 00h
EA0F 00          0 19771 DEFB 00h
EA10 00          0 19772 DEFB 00h
EA11 00          0 19773 DEFB 00h
EA12 00          0 19774 DEFB 00h
EA13 00          0 19775 DEFB 00h
EA14 00          0 19776 DEFB 00h
EA15 00          0 19777 DEFB 00h
EA16 00          0 19778 DEFB 00h
EA17 00          0 19779 DEFB 00h
EA18 00          0 19780 DEFB 00h
EA19 00          0 19781 DEFB 00h
EA1A 00          0 19782 DEFB 00h
EA1B 00          0 19783 DEFB 00h
EA1C 00          0 19784 DEFB 00h
EA1D 00          0 19785 DEFB 00h
EA1E 00          0 19786 DEFB 00h
EA1F 00          0 19787 DEFB 00h
EA20 00          0 19788 DEFB 00h
EA21 00          0 19789 DEFB 00h
EA22 00          0 19790 DEFB 00h
EA23 00          0 19791 DEFB 00h
EA24 00          0 19792 DEFB 00h
EA25 00          0 19793 DEFB 00h
EA26 00          0 19794 DEFB 00h
EA27 00          0 19795 DEFB 00h
EA28 00          0 19796 DEFB 00h
EA29 00          0 19797 DEFB 00h
EA2A 00          0 19798 DEFB 00h
EA2B 00          0 19799 DEFB 00h
EA2C 00          0 19800 DEFB 00h
EA2D 00          0 19801 DEFB 00h
EA2E 00          0 19802 DEFB 00h
EA2F 00          0 19803 DEFB 00h
EA30 00          0 19804 DEFB 00h
EA31 00          0 19805 DEFB 00h
EA32 00          0 19806 DEFB 00h
EA33 00          0 19807 DEFB 00h
EA34 00          0 19808 DEFB 00h
EA35 00          0 19809 DEFB 00h
EA36 00          0 19810 DEFB 00h
EA37 00          0 19811 DEFB 00h
EA38 00          0 19812 DEFB 00h
EA39 00          0 19813 DEFB 00h
EA3A 00          0 19814 DEFB 00h
EA3B 00          0 19815 DEFB 00h
EA3C 00          0 19816 DEFB 00h
EA3D 00          0 19817 DEFB 00h
EA3E 00          0 19818 DEFB 00h
EA3F 00          0 19819 DEFB 00h
EA40 00          0 19820 DEFB 00h
EA41 00          0 19821 DEFB 00h
EA42 00          0 19822 DEFB 00h
EA43 00          0 19823 DEFB 00h
EA44 00          0 19824 DEFB 00h
EA45 00          0 19825 DEFB 00h
EA46 00          0 19826 DEFB 00h
EA47 00          0 19827 DEFB 00h
EA48 00          0 19828 DEFB 00h
EA49 00          0 19829 DEFB 00h
EA4A 00          0 19830 DEFB 00h
EA4B 00          0 19831 DEFB 00h
EA4C 00          0 19832 DEFB 00h
EA4D 00          0 19833 DEFB 00h
EA4E 00          0 19834 DEFB 00h
EA4F 00          0 19835 DEFB 00h
EA50 00          0 19836 DEFB 00h
EA51 00          0 19837 DEFB 00h
EA52 00          0 19838 DEFB 00h
EA53 00          0 19839 DEFB 00h
EA54 00          0 19840 DEFB 00h
EA55 00          0 19841 DEFB 00h
EA56 00          0 19842 DEFB 00h
EA57 00          0 19843 DEFB 00h
EA58 00          0 19844 DEFB 00h
EA59 00          0 19845 DEFB 00h
EA5A 00          0 19846 DEFB 00h
EA5B 00          0 19847 DEFB 00h
EA5C 00          0 19848 DEFB 00h
EA5D 00          0 19849 DEFB 00h
EA5E 00          0 19850 DEFB 00h
EA5F 00          0 19851 DEFB 00h
EA60 00          0 19852 DEFB 00h
EA61 00          0 19853 DEFB 00h
EA62 00          0 19854 DEFB 00h
EA63 00          0 19855 DEFB 00h
EA64 00          0 19856 DEFB 00h
EA65 00          0 19857 DEFB 00h
EA66 00          0 19858 DEFB 00h
EA67 00          0 19859 DEFB 00h
EA68 00          0 19860 DEFB 00h
EA69 00          0 19861 DEFB 00h
EA6A 00          0 19862 DEFB 00h
EA6B 00          0 19863 DEFB 00h
EA6C 00          0 19864 DEFB 00h
EA6D 00          0 19865 DEFB 00h
EA6E 00          0 19866 DEFB 00h
EA6F 00          0 19867 DEFB 00h
EA70 00          0 19868 DEFB 00h
EA71 00          0 19869 DEFB 00h
EA72 00          0 19870 DEFB 00h
EA73 00          0 19871 DEFB 00h
EA74 00          0 19872 DEFB 00h
EA75 00          0 19873 DEFB 00h
EA76 00          0 19874 DEFB 00h
EA77 00          0 19875 DEFB 00h
EA78 00          0 19876 DEFB 00h
EA79 00          0 19877 DEFB 00h
EA7A 00          0 19878 DEFB 00h
EA7B 00          0 19879 DEFB 00h
EA7C 00          0 19880 DEFB 00h
EA7D 00          0 19881 DEFB 00h
EA7E 00          0 19882 DEFB 00h
EA7F 00          0 19883 DEFB 00h
EA80 00          0 19884 DEFB 00h
EA81 00          0 19885 DEFB 00h
EA82 00          0 19886 DEFB 00h
EA83 00          0 19887 DEFB 00h
EA84 00          0 19888 DEFB 00h
EA85 00          0 19889 DEFB 00h
EA86 00          0 19890 DEFB 00h
EA87 00          0 19891 DEFB 00h
EA88 00          0 19892 DEFB 00h
EA89 00          0 19893 DEFB 00h
EA8A 00          0 19894 DEFB 00h
EA8B 00          0 19895 DEFB 00h
EA8C 00          0 19896 DEFB 00h
EA8D 00          0 19897 DEFB 00h
EA8E 00          0 19898 DEFB 00h
EA8F 00          0 19899 DEFB 00h
EA90 00          0 19900 DEFB 00h
EA91 00          0 19901 DEFB 00h
EA92 00          0 19902 DEFB 00h
EA93 00          0 19903 DEFB 00h
EA94 00          0 19904 DEFB 00h
EA95 00          0 19905 DEFB 00h
EA96 00          0 19906 DEFB 00h
EA97 00          0 19907 DEFB 00h
EA98 00          0 19908 DEFB 00h
EA99 00          0 19909 DEFB 00h
EA9A 00          0 19910 DEFB 00h
EA9B 00          0 19911 DEFB 00h
EA9C 00          0 19912 DEFB 00h
EA9D 00          0 19913 DEFB 00h
EA9E 00          0 19914 DEFB 00h
EA9F 00          0 19915 DEFB 00h
EAA0 00          0 19916 DEFB 00h
EAA1 00          0 19917 DEFB 00h
EAA2 00          0 19918 DEFB 00h
EAA3 00          0 19919 DEFB 00h
EAA4 00          0 19920 DEFB 00h
EAA5 00          0 19921 DEFB 00h
EAA6 00          0 19922 DEFB 00h
EAA7 00          0 19923 DEFB 00h
EAA8 00          0 19924 DEFB 00h
EAA9 00          0 19925 DEFB 00h
EAAA 00          0 19926 DEFB 00h
EAAB 00          0 19927 DEFB 00h
EAAC 00          0 19928 DEFB 00h
EAAD 00          0 19929 DEFB 00h
EAAE 00          0 19930 DEFB 00h
EAAF 00          0 19931 DEFB 00h
EAB0 00          0 19932 DEFB 00h
EAB1 00          0 19933 DEFB 00h
EAB2 00          0 19934 DEFB 00h
EAB3 00          0 19935 DEFB 00h
EAB4 00          0 19936 DEFB 00h
EAB5 00          0 19937 DEFB 00h
EAB6 00          0 19938 DEFB 00h
EAB7 00          0 19939 DEFB 00h
EAB8 00          0 19940 DEFB 00h
EAB9 00          0 19941 DEFB 00h
EABA 00          0 19942 DEFB 00h
EABB 00          0 19943 DEFB 00h
EABC 00          0 19944 DEFB 00h
EABD 00          0 19945 DEFB 00h
EABE 00          0 19946 DEFB 00h
EABF 00          0 19947 DEFB 00h
EAC0 00          0 19948 DEFB 00h
EAC1 00          0 19949 DEFB 00h
EAC2 00          0 19950 DEFB 00h
EAC3 00          0 19951 DEFB 00h
EAC4 00          0 19952 DEFB 00h
EAC5 00          0 19953 DEFB 00h
EAC6 00          0 19954 DEFB 00h
EAC7 00          0 19955 DEFB 00h
EAC8 00          0 19956 DEFB 00h
EAC9 00          0 19957 DEFB 00h
EACA 00          0 19958 DEFB 00h
EACB 00          0 19959 DEFB 00h
EACC 00          0 19960 DEFB 00h
EACD 00          0 19961 DEFB 00h
EACE 00          0 19962 DEFB 00h
EACF 00          0 19963 DEFB 00h
EAD0 00          0 19964 DEFB 00h
EAD1 00          0 19965 DEFB 00h
EAD2 00          0 19966 DEFB 00h
EAD3 00          0 19967 DEFB 00h
EAD4 00          0 19968 DEFB 00h
EAD5 00          0 19969 DEFB 00h
EAD6 00          0 19970 DEFB 00h
EAD7 00          0 19971 DEFB 00h
EAD8 00          0 19972 DEFB 00h
EAD9 00          0 19973 DEFB 00h
EADA 00          0 19974 DEFB 00h
EADB 00          0 19975 DEFB 00h
EADC 00          0 19976 DEFB 00h
EADD 00          0 19977 DEFB 00h
EADE 00          0 19978 DEFB 00h
EADF 00          0 19979 DEFB 00h
EAE0 00          0 19980 DEFB 00h
EAE1 00          0 19981 DEFB 00h
EAE2 00          0 19982 DEFB 00h
EAE3 00          0 19983 DEFB 00h
EAE4 00          0 19984 DEFB 00h
EAE5 00          0 19985 DEFB 00h
EAE6 00          0 19986 DEFB 00h
EAE7 00          0 19987 DEFB 00h
EAE8 00          0 19988 DEFB 00h
EAE9 00          0 19989 DEFB 00h
EAEA 00          0 19990 DEFB 00h
EAEB 00          0 19991 DEFB 00h
EAEC 00          0 19992 DEFB 00h
EAED 00          0 19993 DEFB 00h
EAEE 00          0 19994 DEFB 00h
EAEF 00          0 19995 DEFB 00h
EAF0 00          0 19996 DEFB 00h
EAF1 00          0 19997 DEFB 00h
EAF2 00          0 19998 DEFB 00h
EAF3 00          0 19999 DEFB 00h
EAF4 00          0 20000 DEFB 00h
EAF5 00          0 20001 DEFB 00h
EAF6 00          0 20002 DEFB 00h
EAF7 00          0 20003 DEFB 00h
EAF8 00          0 20004 DEFB 00h
EAF9 00          0 20005 DEFB 00h
EAFA 00          0 20006 DEFB 00h
EAFB 00          0 20007 DEFB 00h
EAFC 00          0 20008 DEFB 00h
EAFD 00          0 20009 DEFB 00h
EAFE 00          0 20010 DEFB 00h
EAFF 00          0 20011 DEFB 00h
EB00 00          0 20012 DEFB 00h
EB01 00          0 20013 DEFB 00h
EB02 00          0 20014 DEFB 00h
EB03 00          0 20015 DEFB 00h
EB04 00          0 20016 DEFB 00h
EB05 00          0 20017 DEFB 00h
EB06 00          0 20018 DEFB 00h
EB07 00          0 20019 DEFB 00h
EB08 00          0 20020 DEFB 00h
EB09 00          0 20021 DEFB 00h
EB0A 00          0 20022 DEFB 00h
EB0B 00          0 20023 DEFB 00h
EB0C 00          0 20024 DEFB 00h
EB0D 00          0 20025 DEFB 00h
EB0E 00          0 20026 DEFB 00h
EB0F 00          0 20027 DEFB 00h
EB10 00          0 20028 DEFB 00h
EB11 00          0 20029 DEFB 00h
EB12 00          0 20030 DEFB 00h
EB13 00          0 20031 DEFB 00h
EB14 00          0 20032 DEFB 00h
EB15 00          0 20033 DEFB 00h
EB16 00          0 20034 DEFB 00h
EB17 00          0 20035 DEFB 00h
EB18 00          0 20036 DEFB 00h
EB19 00          0 20037 DEFB 00h
EB1A 00          0 20038 DEFB 00h
EB1B 00          0 20039 DEFB 00h
EB1C 00          0 20040 DEFB 00h
EB1D 00          0 20041 DEFB 00h
EB1E 00          0 20042 DEFB 00h
EB1F 00          0 20043 DEFB 00h
EB20 00          0 20044 DEFB 00h
EB21 00          0 20045 DEFB 00h
EB22 00          0 20046 DEFB 00h
EB23 00          0 20047 DEFB 00h
EB24 00          0 20048 DEFB 00h
EB25 00          0 20049 DEFB 00h
EB26 00          0 20050 DEFB 00h
EB27 00          0 20051 DEFB 00h
EB28 00          0 20052 DEFB 00h
EB29 00          0 20053 DEFB 00h
EB2A 00          0 20054 DEFB 00h
EB2B 00          0 20055 DEFB 00h
EB2C 00          0 20056 DEFB 00h
EB2D 00          0 20057 DEFB 00h
EB2E 00          0 20058 DEFB 00h
EB2F 00          0 20059 DEFB 00h
EB30 00          0 20060 DEFB 00h
EB31 00          0 20061 DEFB 00h
EB32 00          0 20062 DEFB 00h
EB33 00          0 20063 DEFB 00h
EB34 00          0 20064 DEFB 00h
EB35 00          0 20065 DEFB 00h
EB36 00          0 20066 DEFB 00h
EB37 00          0 20067 DEFB 00h
EB38 00          0 20068 DEFB 00h
EB39 00          0 20069 DEFB 00h
EB3A 00          0 20070 DEFB 00h
EB3B 00          0 20071 DEFB 00h
EB3C 00          0 20072 DEFB 00h
EB3D 00          0 20073 DEFB 00h
EB3E 00          0 20074 DEFB 00h
EB3F 00          0 20075 DEFB 00h
EB40 00          0 20076 DEFB 00h
EB41 00          0 20077 DEFB 00h
EB42 00          0 20078 DEFB 00h
EB43 00          0 20079 DEFB 00h
EB44 00          0 20080 DEFB 00h
EB45 00          0 20081 DEFB 00h
EB46 00          0 20082 DEFB 00h
EB47 00          0 20083 DEFB 00h
EB48 00          0 20084 DEFB 00h
EB49 00          0 20085 DEFB 00h
EB4A 00          0 20086 DEFB 00h
EB4B 00          0 20087 DEFB 00h
EB4C 00          0 20088 DEFB 00h
EB4D 00          0 20089 DEFB 00h
EB4E 00          0 20090 DEFB 00h
EB4F 00          0 20091 DEFB 00h
EB50 00          0 20092 DEFB 00h
EB51 00          0 20093 DEFB 00h
EB52 00          0 20094 DEFB 00h
EB53 00          0 20095 DEFB 00h
EB54 00          0 20096 DEFB 00h
EB55 00          0 20097 DEFB 00h
EB56 00          0 20098 DEFB 00h
EB57 00          0 20099 DEFB 00h
EB58 00          0 20100 DEFB 00h
EB59 00          0 20101 DEFB 00h
EB5A 00          0 20102 DEFB 00h
EB5B 00          0 20103 DEFB 00h
EB5C 00          0 20104 DEFB 00h
EB5D 00          0 20105 DEFB 00h
EB5E 00          0 20106 DEFB 00h
EB5F 00          0 20107 DEFB 00h
EB60 00          0 20108 DEFB 00h
EB61 00          0 20109 DEFB 00h
EB62 00          0 20110 DEFB 00h
EB63 00          0 20111 DEFB 00h
EB64 00          0 20112 DEFB 00h
EB65 00          0 20113 DEFB 00h
EB66 00          0 20114 DEFB 00h
EB67 00          0 20115 DEFB 00h
EB68 00          0 20116 DEFB 00h
EB69 00          0 20117 DEFB 00h
EB6A 00          0 20118 DEFB 00h
EB6B 00          0 20119 DEFB 00h
EB6C 00          0 20120 DEFB 00h
EB6D 00          0 20121 DEFB 00h
EB6E 00          0 20122 DEFB 00h
EB6F 00          0 20123 DEFB 00h
EB70 00          0 20124 DEFB 00h
EB71 00          0 20125 DEFB 00h
EB72 00          0 20126 DEFB 00h
EB73 00          0 20127 DEFB 00h
EB74 00          0 20128 DEFB 00h
EB75 00          0 20129 DEFB 00h
EB76 00          0 20130 DEFB 00h
EB77 00          0 20131 DEFB 00h
EB78 00          0 20132 DEFB 00h
EB79 00          0 20133 DEFB 00h
EB7A 00          0 20134 DEFB 00h
EB7B 00          0 20135 DEFB 00h
EB7C 00          0 20136 DEFB 00h
EB7D 00          0 20137 DEFB 00h
EB7E 00          0 20138 DEFB 00h
EB7F 00          0 20139 DEFB 00h
EB80 00          0 20140 DEFB 00h
EB81 00          0 20141 DEFB 00h
EB82 00          0 20142 DEFB 00h
EB83 00          0 20143 DEFB 00h
EB84 00          0 20144 DEFB 00h
EB85 00          0 20145 DEFB 00h
EB86 00          0 20146 DEFB 00h
EB87 00          0 20147 DEFB 00h
EB88 00          0 20148 DEFB 00h
EB89 00          0 20149 DEFB 00h
EB8A 00          0 20150 DEFB 00h
EB8B 00          0 20151 DEFB 00h
EB8C 00          0 20152 DEFB 00h
EB8D 00          0 20153 DEFB 00h
EB8E 00          0 20154 DEFB 00h
EB8F 00          0 20155 DEFB 00h
EB90 00          0 20156 DEFB 00h
EB91 00          0 20157 DEFB 00h
EB92 00          0 20158 DEFB 00h
EB93 00          0 20159 DEFB 00h
EB94 00          0 20160 DEFB 00h
EB95 00          0 20161 DEFB 00h
EB96 00          0 20162 DEFB 00h
EB97 00          0 20163 DEFB 00h
EB98 00          0 20164 DEFB 00h
EB99 00          0 20165 DEFB 00h
EB9A 00          0 20166 DEFB 00h
EB9B 00          0 20167 DEFB 00h
EB9C 00          0 20168 DEFB 00h
EB9D 00          0 20169 DEFB 00h
EB9E 00          0 20170 DEFB 00h
EB9F 00          0 20171 DEFB 00h
EBA0 00          0 20172 DEFB 00h
EBA1 00          0 20173 DEFB 00h
EBA2 00          0 20174 DEFB 00h
EBA3 00          0 20175 DEFB 00h
EBA4 00          0 20176 DEFB 00h
EBA5 00          0 20177 DEFB 00h
EBA6 00          0 20178 DEFB 00h
EBA7 00          0 20179 DEFB 00h
EBA8 00          0 20180 DEFB 00h
EBA9 00          0 20181 DEFB 00h
EBAA 00          0 20182 DEFB 00h
EBAB 00          0 20183 DEFB 00h
EBAC 00          0 20184 DEFB 00h
EBAD 00          0 20185 DEFB 00h
EBAE 00          0 20186 DEFB 00h
EBAF 00          0 20187 DEFB 00h
EBB0 00          0 20188 DEFB 00h
EBB1 00          0 20189 DEFB 00h
EBB2 00          0 20190 DEFB 00h
EBB3 00          0 20191 DEFB 00h
EBB4 00          0 20192 DEFB 00h
EBB5 00          0 20193 DEFB 00h
EBB6 00          0 20194 DEFB 00h
EBB7 00          0 20195 DEFB 00h
EBB8 00          0 20196 DEFB 00h
EBB9 00          0 20197 DEFB 00h
EBBA 00          0 20198 DEFB 00h
EBBB 00          0 20199 DEFB 00h
EBBC 00          0 20200 DEFB 00h
EBBD 00          0 20201 DEFB 00h
EBBE 00          0 20202 DEFB 00h
EBBF 00          0 20203 DEFB 00h
EBC0 00          0 20204 DEFB 00h
EBC1 00          0 20205 DEFB 00h
EBC2 00          0 20206 DEFB 00h
EBC3 00          0 20207 DEFB 00h
EBC4 00          0 20208 DEFB 00h
EBC5 00          0 20209 DEFB 00h
EBC6 00          0 20210 DEFB 00h
EBC7 00          0 20211 DEFB 00h
EBC8 00          0 20212 DEFB 00h
EBC9 00          0 20213 DEFB 00h
EBCA 00          0 20214 DEFB 00h
EBCB 00          0 20215 DEFB 00h
EBCC 00          0 20216 DEFB 00h
EBCD 00          0 20217 DEFB 00h
EBCE 00          0 20218 DEFB 00h
EBCF 00          0 20219 DEFB 00h
EBD0 00          0 20220 DEFB 00h
EBD1 00          0 20221 DEFB 00h
EBD2 00          0 20222 DEFB 00h
EBD3 00          0 20223 DEFB 00h
EBD4 00          0 20224 DEFB 00h
EBD5 00          0 20225 DEFB 00h
EBD6 00          0 20226 DEFB 00h
EBD7 00          0 20227 DEFB 00h
EBD8 00          0 20228 DEFB 00h
EBD9 00          0 20229 DEFB 00h
EBDA 00          0 20230 DEFB 00h
EBDB 00          0 20231 DEFB 00h
EBDC 00          0 20232 DEFB 00h
EBDD 00          0 20233 DEFB 00h
EBDE 00          0 20234 DEFB 00h
EBDF 00          0 20235 DEFB 00h
EBE0 00          0 20236 DEFB 00h
EBE1 00          0 20237 DEFB 00h
EBE2 00          0 20238 DEFB 00h
EBE3 00          0 20239 DEFB 00h
EBE4 00          0 20240 DEFB 00h
EBE5 00          0 20241 DEFB 00h
EBE6 00          0 20242 DEFB 00h
EBE7 00          0 20243 DEFB 00h
EBE8 00          0 20244 DEFB 00h
EBE9 00          0 20245 DEFB 00h
EBEA 00          0 20246 DEFB 00h
EBEB 00          0 20247 DEFB 00h
EBEC 00          0 20248 DEFB 00h
EBED 00          0 20249 DEFB 00h
EBEE 00          0 20250 DEFB 00h
EBEF 00          0 20251 DEFB 00h
EBF0 00          0 20252 DEFB 00h
EBF1 00          0 20253 DEFB 00h
EBF2 00          0 20254 DEFB 00h
EBF3 00          0 20255 DEFB 00h
EBF4 00          0 20256 DEFB 00h
EBF5 00          0 20257 DEFB 00h
EBF6 00          0 20258 DEFB 00h
EBF7 00          0 20259 DEFB 00h
EBF8 00          0 20260 DEFB 00h
EBF9 00          0 20261 DEFB 00h
EBFA 00          0 20262 DEFB 00h
EBFB 00          0 20263 DEFB 00h
EBFC 00          0 20264 DEFB 00h
EBFD 00          0 20265 DEFB 00h
EBFE 00          0 20266 DEFB 00h
EBFF 00          0 20267 DEFB 00h
EC00 00          0 20268 DEFB 00h
EC01 00          0 20269 DEFB 00h
EC02 00          0 20270 DEFB 00h
EC03 00          0 20271 DEFB 00h
EC04 00          0 20272 DEFB 00h
EC05 00          0 20273 DEFB 00h
EC06 00          0 20274 DEFB 00h
EC07 00          0 20275 DEFB 00h
EC08 00          0 20276 DEFB 00h
EC09 00          0 20277 DEFB 00h
EC0A 00          0 20278 DEFB 00h
EC0B 00          0 20279 DEFB 00h
EC0C 00          0 20280 DEFB 00h
EC0D 00          0 20281 DEFB 00h
EC0E 00          0 20282 DEFB 00h
EC0F 00          0 20283 DEFB 00h
EC10 00          0 20284 DEFB 00h
EC11 00          0 20285 DEFB 00h
EC12 00          0 20286 DEFB 00h
EC13 00          0 20287 DEFB 00h
EC14 00          0 20288 DEFB 00h
EC15 00          0 20289 DEFB 00h
EC16 00          0 20290 DEFB 00h
EC17 00          0 20291 DEFB 00h
EC18 00          0 20292 DEFB 00h
EC19 00          0 20293 DEFB 00h
EC1A 00          0 20294 DEFB 00h
EC1B 00          0 20295 DEFB 00h
EC1C 00          0 20296 DEFB 00h
EC1D 00          0 20297 DEFB 00h
EC1E 00          0 20298 DEFB 00h
EC1F 00          0 20299 DEFB 00h
EC20 00          0 20300 DEFB 00h
EC21 00          0 20301 DEFB 00h
EC22 00          0 20302 DEFB 00h
EC23 00          0 20303 DEFB 00h
EC24 00          0 20304 DEFB 00h
EC25 00          0 20305 DEFB 00h
EC26 00          0 20306 DEFB 00h
EC27 00          0 20307 DEFB 00h
EC28 00          0 20308 DEFB 00h
EC29 00          0 20309 DEFB 00h
EC2A 00          0 20310 DEFB 00h
EC2B 00          0 20311 DEFB 00h
EC2C 00          0 20312 DEFB 00h
EC2D 00          0 20313 DEFB 00h
EC2E 00          0 20314 DEFB 00h
EC2F 00          0 20315 DEFB 00h
EC30 00          0 20316 DEFB 00h
EC31 00          0 20317 DEFB 00h
EC32 00          0 20318 DEFB 00h
EC33 00          0 20319 DEFB 00h
EC34 00          0 20320 DEFB 00h
EC35 00          0 20321 DEFB 00h
EC36 00          0 20322 DEFB 00h
EC37 00          0 20323 DEFB 00h
EC38 00          0 20324 DEFB 00h
EC39 00          0 20325 DEFB 00h
EC3A 00          0 20326 DEFB 00h
EC3B 00          0 20327 DEFB 00h
EC3C 00          0 20328 DEFB 00h
EC3D 00          0 20329 DEFB 00h
EC3E 00          0 20330 DEFB 00h
EC3F 00          0 20331 DEFB 00h
EC40 00          0 20332 DEFB 00h
EC41 00          0 20333 DEFB 00h
EC42 00          0 20334 DEFB 00h
EC43 00          0 20335 DEFB 00h
EC44 00          0 20336 DEFB 00h
EC45 00          0 20337 DEFB 00h
EC46 00          0 20338 DEFB 00h
EC47 00          0 20339 DEFB 00h
EC48 00          0 20340 DEFB 00h
EC49 00          0 20341 DEFB 00h
EC4A 00          0 20342 DEFB 00h
EC4B 00          0 20343 DEFB 00h
EC4C 00          0 20344 DEFB 00h
EC4D 00          0 20345 DEFB 00h
EC4E 00          0 20346 DEFB 00h
EC4F 00          0 20347 DEFB 00h
EC50 00          0 20348 DEFB 00h
EC51 00          0 20349 DEFB 00h
EC52 00          0 20350 DEFB 00h
EC53 00          0 20351 DEFB 00h
EC54 00          0 20352 DEFB 00h
EC55 00          0 20353 DEFB 00h
EC56 00          0 20354 DEFB 00h
EC57 00          0 20355 DEFB 00h
EC58 00          0 20356 DEFB 00h
EC59 00          0 20357 DEFB 00h
EC5A 00          0 20358 DEFB 00h
EC5B 00          0 20359 DEFB 00h
EC5C 00          0 20360 DEFB 00h
EC5D 00          0 20361 DEFB 00h
EC5E 00          0 20362 DEFB 00h
EC5F 00          0 20363 DEFB 00h
EC60 00          0 20364 DEFB 00h
EC61 00          0 20365 DEFB 00h
EC62 00          0 20366 DEFB 00h
EC63 00          0 20367 DEFB 00h
EC64 00          0 20368 DEFB 00h
EC65 00          0 20369 DEFB 00h
EC66 00          0 20370 DEFB 00h
EC67 00          0 20371 DEFB 00h
EC68 00          0 20372 DEFB 00h
EC69 00          0 20373 DEFB 00h
EC6A 00          0 20374 DEFB 00h
EC6B 00          0 20375 DEFB 00h
EC6C 00          0 20376 DEFB 00h
EC6D 00          0 20377 DEFB 00h
EC6E 00          0 20378 DEFB 00h
EC6F 00          0 20379 DEFB 00h
EC70 00          0 20380 DEFB 00h
EC71 00          0 20381 DEFB 00h
EC72 00          0 20382 DEFB 00h
EC73 00          0 20383 DEFB 00h
EC74 00          0 20384 DEFB 00h
EC75 00          0 20385 DEFB 00h
EC76 00          0 20386 DEFB 00h
EC77 00          0 20387 DEFB 00h
EC78 00          0 20388 DEFB 00h
EC79 00          0 20389 DEFB 00h
EC7A 00          0 20390 DEFB 00h
EC7B 00          0 20391 DEFB 00h
EC7C 00          0 20392 DEFB 00h
EC7D 00          0 20393 DEFB 00h
EC7E 00          0 20394 DEFB 00h
EC7F 00          0 20395 DEFB 00h
EC80 00          0 20396 DEFB 00h
EC81 00          0 20397 DEFB 00h
EC82 00          0 20398 DEFB 00h
EC83 00          0 20399 DEFB 00h
EC84 00          0 20400 DEFB 00h
EC85 00          0 20401 DEFB 00h
EC86 00          0 20402 DEFB 00h
EC87 00          0 20403 DEFB 00h
EC88 00          0 20404 DEFB 00h
EC89 00          0 20405 DEFB 00h
EC8A 00          0 20406 DEFB 00h
EC8B 00          0 20407 DEFB 00h
EC8C 00          0 20408 DEFB 00h
EC8D 00          0 20409 DEFB 00h
EC8E 00          0 20410 DEFB 00h
EC8F 00          0 20411 DEFB 00h
EC90 00          0 20412 DEFB 00h
EC91 00          0 20413 DEFB 00h
EC92 00          0 20414 DEFB 00h
EC93 00          0 20415 DEFB 00h
EC94 00          0 20416 DEFB 00h
EC95 00          0 20417 DEFB 00h
EC96 00          0 20418 DEFB 00h
EC97 00          0 20419 DEFB 00h
EC98 00          0 20420 DEFB 00h
EC99 00          0 20421 DEFB 00h
EC9A 00          0 20422 DEFB 00h
EC9B 00          0 20423 DEFB 00h
EC9C 00          0 20424 DEFB 00h
EC9D 00          0 20425 DEFB 00h
EC9E 00          0 20426 DEFB 00h
EC9F 00          0 20427 DEFB 00h
ECA0 00          0 20428 DEFB 00h
ECA1 00          0 20429 DEFB 00h
ECA2 00          0 20430 DEFB 00h
ECA3 00          0 20431 DEFB 00h
ECA4 00          0 20432 DEFB 00h
ECA5 00          0 20433 DEFB 00h
ECA6 00          0 20434 DEFB 00h
ECA7 00          0 20435 DEFB 00h
ECA8 00          0 20436 DEFB 00h
ECA9 00          0 20437 DEFB 00h
ECAA 00          0 20438 DEFB 00h
ECAB 00          0 20439 DEFB 00h
ECAC 00          0 20440 DEFB 00h
ECAD 00          0 20441 DEFB 00h
ECAE 00          0 20442 DEFB 00h
ECAF 00          0 20443 DEFB 00h
ECB0 00          0 20444 DEFB 00h
ECB1 00          0 20445 DEFB 00h
ECB2 00          0 20446 DEFB 00h
ECB3 00          0 20447 DEFB 00h
ECB4 00          0 20448 DEFB 00h
ECB5 00          0 20449 DEFB 00h
ECB6 00          0 20450 DEFB 00h
ECB7 00          0 20451 DEFB 00h
ECB8 00          0 20452 DEFB 00h
ECB9 00          0 20453 DEFB 00h
ECBA 00          0 20454 DEFB 00h
ECBB 00          0 20455 DEFB 00h
ECBC 00          0 20456 DEFB 00h
ECBD 00          0 20457 DEFB 00h
ECBE 00          0 20458 DEFB 00h
ECBF 00          0 20459 DEFB 00h
ECC0 00          0 20460 DEFB 00h
ECC1 00          0 20461 DEFB 00h
ECC2 00          0 20462 DEFB 00h
ECC3 00          0 20463 DEFB 00h
ECC4 00          0 20464 DEFB 00h
ECC5 00          0 20465 DEFB 00h
ECC6 00          0 20466 DEFB 00h
ECC7 00          0 20467 DEFB 00h
ECC8 00          0 20468 DEFB 00h
ECC9 00          0 20469 DEFB 00h
ECCA 00          0 20470 DEFB 00h
ECCB 00          0 20471 DEFB 00h
ECCC 00          0 20472 DEFB 00h
ECCD 00          0 20473 DEFB 00h
ECCE 00          0 20474 DEFB 00h
ECCF 00          0 20475 DEFB 00h
ECD0 00          0 20476 DEFB 00h
ECD1 00          0 20477 DEFB 00h
ECD2 00          0 20478 DEFB 00h
ECD3 00          0 20479 DEFB 00h
ECD4 00          0 20480 DEFB 00h
ECD5 00          0 20481 DEFB 00h
ECD6 00          0 20482 DEFB 00h
ECD7 00          0 20483 DEFB 00h
ECD8 00          0 20484 DEFB 00h
ECD9 00          0 20485 DEFB 00h
ECDA 00          0 20486 DEFB 00h
ECDB 00          0 20487 DEFB 00h
ECDC 00          0 20488 DEFB 00h
ECDD 00          0 20489 DEFB 00h
ECDE 00          0 20490 DEFB 00h
ECDF 00          0 20491 DEFB 00h
ECE0 00          0 20492 DEFB 00h
ECE1 00          0 20493 DEFB 00h
ECE2 00          0 20494 DEFB 00h
ECE3 00          0 20495 DEFB 00h
ECE4 00          0 20496 DEFB 00h
ECE5 00          0 20497 DEFB 00h
ECE6 00          0 20498 DEFB 00h
ECE7 00          0 20499 DEFB 00h
ECE8 00          0 20500 DEFB 00h
ECE9 00          0 20501 DEFB 00h
ECEA 00          0 20502 DEFB 00h
ECEB 00          0 20503 DEFB 00h
ECEC 00          0 20504 DEFB 00h
ECED 00          0 20505 DEFB 00h
ECEE 00          0 20506 DEFB 00h
ECEF 00          0 20507 DEFB 00h
ECF0 00          0 20508 DEFB 00h
ECF1 00          0 20509 DEFB 00h
ECF2 00          0 20510 DEFB 00h
ECF3 00          0 20511 DEFB 00h
ECF4 00          0 20512 DEFB 00h
ECF5 00          0 20513 DEFB 00h
ECF6 00          0 20514 DEFB 00h
ECF7 00          0 20515 DEFB 00h
ECF8 00          0 20516 DEFB 00h
ECF9 00          0 20517 DEFB 00h
ECFA 00          0 20518 DEFB 00h
ECFB 00          0 20519 DEFB 00h
ECFC 00          0 20520 DEFB 00h
ECFD 00          0 20521 DEFB 00h
ECFE 00          0 20522 DEFB 00h
ECFF 00          0 20523 DEFB 00h
ED00 00          0 20524 DEFB 00h
ED01 00          0 20525 DEFB 00h
ED02 00          0 20526 DEFB 00h
ED03 00          0 20527 DEFB 00h
ED04 00          0 20528 DEFB 00h
ED05 00          0 20529 DEFB 00h
ED06 00          0 20530 DEFB 00h
ED07 00          0 20531 DEFB 00h
ED08 00          0 20532 DEFB 00h
ED09 00          0 20533 DEFB 00h
ED0A 00          0 20534 DEFB 00h
ED0B 00          0 20535 DEFB 00h
ED0C 00          0 20536 DEFB 00h
ED0D 00          0 20537 DEFB 00h
ED0E 00          0 20538 DEFB 00h
ED0F 00          0 20539 DEFB 00h
ED10 00          0 20540 DEFB 00h
ED11 00          0 20541 DEFB 00h
ED12 00          0 20542 DEFB 00h
ED13 00          0 20543 DEFB 00h
ED14 00          0 20544 DEFB 00h
ED15 00          0 20545 DEFB 00h
ED16 00          0 20546 DEFB 00h
ED17 00          0 20547 DEFB 00h
ED18 00          0 20548 DEFB 00h
ED19 00          0 20549 DEFB 00h
ED1A 00          0 20550 DEFB 00h
ED1B 00          0 20551 DEFB 00h
ED1C 00          0 20552 DEFB 00h
ED1D 00          0 20553 DEFB 00h
ED1E 00          0 20554 DEFB 00h
ED1F 00          0 20555 DEFB 00h
ED20 00          0 20556 DEFB 00h
ED21 00          0 20557 DEFB 00h
ED22 00          0 20558 DEFB 00h
ED23 00          0 20559 DEFB 00h
ED24 00          0 20560 DEFB 00h
ED25 00          0 20561 DEFB 00h
ED26 00          0 20562 DEFB 00h
ED27 00          0 20563 DEFB 00h
ED28 00          0 20564 DEFB 00h
ED29 00          0 20565 DEFB 00h
ED2A 00          0 20566 DEFB 00h
ED2B 00          0 20567 DEFB 00h
ED2C 00          0 20568 DEFB 00h
ED2D 00          0 20569 DEFB 00h
ED2E 00          0 20570 DEFB 00h
ED2F 00          0 20571 DEFB 00h
ED30 00          0 20572 DEFB 00h
ED31 00          0 20573 DEFB 00h
ED32 00          0 20574 DEFB 00h
ED33 00          0 20575 DEFB 00h
ED34 00          0 20576 DEFB 00h
ED35 00          0 20577 DEFB 00h
ED36 00          0 20578 DEFB 00h
ED37 00          0 20579 DEFB 00h
ED38 00          0 20580 DEFB 00h
ED39 00          0 20581 DEFB 00h
ED3A 00          0 20582 DEFB 00h
ED3B 00          0 20583 DEFB 00h
ED3C 00          0 20584 DEFB 00h
ED3D 00          0 20585 DEFB 00h
ED3E 00          0 20586 DEFB 00h
ED3F 00          0 20587 DEFB 00h
ED40 00          0 20588 DEFB 00h
ED41 00          0 20589 DEFB 00h
ED42 00          0 20590 DEFB 00h
ED43 00          0 20591 DEFB 00h
ED44 00          0 20592 DEFB 00h
ED45 00          0 20593 DEFB 00h
ED46 00          0 20594 DEFB 00h
ED47 00          0 20595 DEFB 00h
ED48 00          0 20596 DEFB 00h
ED49 00          0 20597 DEFB 00h
ED4A 00          0 20598 DEFB 00h
ED4B 00          0 20599 DEFB 00h
ED4C 00          0 20600 DEFB 00h
ED4D 00          0 20601 DEFB 00h
ED4E 00          0 20602 DEFB 00h
ED4F 00          0 20603 DEFB 00h
ED50 00          0 20604 DEFB 00h
ED51 00          0 20605 DEFB 00h
ED52 00          0 20606 DEFB 00h
ED53 00          0 20607 DEFB 00h
ED54 00          0 20608 DEFB 00h
ED55 00          0 20609 DEFB 00h
ED56 00          0 20610 DEFB 00h
ED57 00          0 20611 DEFB 00h
ED58 00          0 20612 DEFB 00h
ED59 00          0 20613 DEFB 00h
ED5A 00          0 20614 DEFB 00h
ED5B 00          0 20615 DEFB 00h
ED5C 00          0 20616 DEFB 00h
ED5D 00          0 20617 DEFB 00h
ED5E 00          0 20618 DEFB 00h
ED5F 00          0 20619 DEFB 00h
ED60 00          0 20620 DEFB 00h
ED61 00          0 20621 DEFB 00h
ED62 00          0 20622 DEFB 00h
ED63 00          0 20623 DEFB 00h
ED64 00          0 20624 DEFB 00h
ED65 00          0 20625 DEFB 00h
ED66 00          0 20626 DEFB 00h
ED67 00          0 20627 DEFB 00h
ED68 00          0 20628 DEFB 00h
ED69 00          0 20629 DEFB 00h
ED6A 00          0 20630 DEFB 00h
ED6B 00          0 20631 DEFB 00h
ED6C 00          0 20632 DEFB 00h
ED6D 00          0 20633 DEFB 00h
ED6E 00          0 20634 DEFB 00h
ED6F 00          0 20635 DEFB 00h
ED70 00          0 20636 DEFB 00h
ED71 00          0 20637 DEFB 00h
ED72 00          0 20638 DEFB 00h
ED73 00          0 20639 DEFB 00h
ED74 00          0 20640 DEFB 00h
ED75 00          0 20641 DEFB 00h
ED76 00          0 20642 DEFB 00h
ED77 00          0 20643 DEFB 00h
ED78 00          0 20644 DEFB 00h
ED79 00          0 20645 DEFB 00h
ED7A 00          0 20646 DEFB 00h
ED7B 00          0 20647 DEFB 00h
ED7C 00          0 20648 DEFB 00h
ED7D 00          0 20649 DEFB 00h
ED7E 00          0 20650 DEFB 00h
ED7F 00          0 20651 DEFB 00h
ED80 00          0 20652 DEFB 00h
ED81 00          0 20653 DEFB 00h
ED82 00          0 20654 DEFB 00h
ED83 00          0 20655 DEFB 00h
ED84 00          0 20656 DEFB 00h
ED85 00          0 20657 DEFB 00h
ED86 00          0 20658 DEFB 00h
ED87 00          0 20659 DEFB 00h
ED88 00          0 20660 DEFB 00h
ED89 00          0 20661 DEFB 00h
ED8A 00          0 20662 DEFB 00h
ED8B 00          0 20663 DEFB 00h
ED8C 00          0 20664 DEFB 00h
ED8D 00          0 20665 DEFB 00h
ED8E 00          0 20666 DEFB 00h
ED8F 00          0 20667 DEFB 00h
ED90 00          0 20668 DEFB 00h
ED91 00          0 20669 DEFB 00h
ED92 00          0 20670 DEFB 00h
ED93 00          0 20671 DEFB 00h
ED94 00          0 20672 DEFB 00h
ED95 00          0 20673 DEFB 00h
ED96 00          0 20674 DEFB 00h
ED97 00          0 20675 DEFB 00h
ED98 00          0 20676 DEFB 00h
ED99 00          0 20677 DEFB 00h
ED9A 00          0 20678 DEFB 00h
ED9B 00          0 20679 DEFB 00h
ED9C 00          0 20680 DEFB 00h
ED9D 00          0 20681 DEFB 00h
ED9E 00          0 20682 DEFB 00h
ED9F 00          0 20683 DEFB 00h
EDA0 00          0 20684 DEFB 00h
EDA1 00          0 20685 DEFB 00h
EDA2 00          0 20686 DEFB 00h
EDA3 00          0 20687 DEFB 00h
EDA4 00          0 20688 DEFB 00h
EDA5 00          0 20689 DEFB 00h
EDA6 00          0 20690 DEFB 00h
EDA7 00          0 20691 DEFB 00h
EDA8 00          0 20692 DEFB 00h
EDA9 00          0 20693 DEFB 00h
EDAA 00          0 20694 DEFB 00h
EDAB 00          0 20695 DEFB 00h
EDAC 00          0 20696 DEFB 00h
EDAD 00          0 20697 DEFB 00h
EDAE 00          0 20698 DEFB 00h
EDAF 00          0 20699 DEFB 00h
EDB0 00          0 20700 DEFB 00h
EDB1 00          0 20701 DEFB 00h
EDB2 00          0 20702 DEFB 00h
EDB3 00          0 20703 DEFB 00h
EDB4 00          0 20704 DEFB 00h
EDB5 00          0 20705 DEFB 00h
EDB6 00          0 20706 DEFB 00h
EDB7 00          0 20707 DEFB 00h
EDB8 00          0 20708 DEFB 00h
EDB9 00          0 20709 DEFB 00h
EDBA 00          0 20710 DEFB 00h
EDBB 00          0 20711 DEFB 00h
EDBC 00          0 20712 DEFB 00h
EDBD 00          0 20713 DEFB 00h
EDBE 00          0 20714 DEFB 00h
EDBF 00          0 20715 DEFB 00h
EDC0 00          0 20716 DEFB 00h
EDC1 00          0 20717 DEFB 00h
EDC2 00          0 20718 DEFB 00h
EDC3 00          0 20719 DEFB 00h
EDC4 00          0 20720 DEFB 00h
EDC5 00          0 20721 DEFB 00h
EDC6 00          0 20722 DEFB 00h
EDC7 00          0 20723 DEFB 00h
EDC8 00          0 20724 DEFB 00h
EDC9 00          0 20725 DEFB 00h
EDCA 00          0 20726 DEFB 00h
EDCB 00          0 20727 DEFB 00h
EDCC 00          0 20728 DEFB 00h
EDCD 00          0 20729 DEFB 00h
EDCE 00          0 20730 DEFB 00h
EDCF 00          0 20731 DEFB 00h
EDD0 00          0 20732 DEFB 00h
EDD1 00          0 20733 DEFB 00h
EDD2 00          0 20734 DEFB 00h
EDD3 00          0 20735 DEFB 00h
EDD4 00          0 20736 DEFB 00h
EDD5 00          0 20737 DEFB 00h
EDD6 00          0 20738 DEFB 00h
EDD7 00          0 20739 DEFB 00h
EDD8 00          0 20740 DEFB 00h
EDD9 00          0 20741 DEFB 00h
EDDA 00          0 20742 DEFB 00h
EDDB 00          0 20743 DEFB 00h
EDDC 00          0 20744 DEFB 00h
EDDD 00          0 20745 DEFB 00h
EDDE 00          0 20746 DEFB 00h
EDDF 00          0 20747 DEFB 00h
EDE0 00          0 20748 DEFB 00h
EDE1 00          0 20749 DEFB 00h
EDE2 00          0 20750 DEFB 00h
EDE3 00          0 20751 DEFB 00h
EDE4 00          0 20752 DEFB 00h
EDE5 00          0 20753 DEFB 00h
EDE6 00          0 20754 DEFB 00h
EDE7 00          0 20755 DEFB 00h
EDE8 00          0 20756 DEFB 00h
EDE9 00          0 20757 DEFB 00h
EDEA 00          0 20758 DEFB 00h
EDEB 00          0 20759 DEFB 00h
EDEC 00          0 20760 DEFB 00h
EDED 00          0 20761 DEFB 00h
EDEE 00          0 20762 DEFB 00h
EDEF 00          0 20763 DEFB 00h
EDF0 00          0 20764 DEFB 00h
EDF1 00          0 20765 DEFB 00h
EDF2 00          0 20766 DEFB 00h
EDF3 00          0 20767 DEFB 00h
EDF4 00          0 20768 DEFB 00h
EDF5 00          0 20769 DEFB 00h
EDF6 00          0 20770 DEFB 00h
EDF7 00          0 20771 DEFB 00h
EDF8 00          0 20772 DEFB 00h
EDF9 00          0 20773 DEFB 00h
EDFA 00          0 20774 DEFB 00h
EDFB 00          0 20775 DEFB 00h
EDFC 00          0 20776 DEFB 00h
EDFD 00          0 20777 DEFB 00h
EDFE 00          0 20778 DEFB 00h
EDFF 00          0 20779 DEFB 00h
EE00 00          0 20780 DEFB 00h
EE01 00          0 20781 DEFB 00h
EE02 00          0 20782 DEFB 00h
EE03 00          0 20783 DEFB 00h
EE04 00          0 20784 DEFB 00h
EE05 00          0 20785 DEFB 00h
EE06 00          0 20786 DEFB 00h
EE07 00          0 20787 DEFB 00h
EE08 00          0 20788 DEFB 00h
EE09 00          0 20789 DEFB 00h
EE0A 00          0 20790 DEFB 00h
EE0B 00          0 20791 DEFB 00h
EE0C 00          0 20792 DEFB 00h
EE0D 00          0 20793 DEFB 00h
EE0E 00          0 20794 DEFB 00h
EE0F 00          0 20795 DEFB 00h
EE10 00          0 20796 DEFB 00h
EE11 00          0 20797 DEFB 00h
EE12 00          0 20798 DEFB 00h
EE13 00          0 20799 DEFB 00h
EE14 00          0 20800 DEFB 00h
EE15 00          0 20801 DEFB 00h
EE16 00          0 20802 DEFB 00h
EE17 00          0 20803 DEFB 00h
EE18 00          0 20804 DEFB 00h
EE19 00          0 20805 DEFB 00h
EE1A 00          0 20806 DEFB 00h
EE1B 00          0 20807 DEFB 00h
EE1C 00          0 20808 DEFB 00h
EE1D 00          0 20809 DEFB 00h
EE1E 00          0 20810 DEFB 00h
EE1F 00          0 20811 DEFB 00h
EE20 00          0 20812 DEFB 00h
EE21 00          0 20813 DEFB 00h
EE22 00          0 20814 DEFB 00h
EE23 00          0 20815 DEFB 00h
EE24 00          0 20816 DEFB 00h
EE25 00          0 20817 DEFB 00h
EE26 00          0 20818 DEFB 00h
EE27 00          0 20819 DEFB 00h
EE28 00          0 20820 DEFB 00h
EE29 00          0 20821 DEFB 00h
EE2A 00          0 20822 DEFB 00h
EE2B 00          0 20823 DEFB 00h
EE2C 00          0 20824 DEFB 00h
EE2D 00          0 20825 DEFB 00h
EE2E 00          0 20826 DEFB 00h
EE2F 00          0 20827 DEFB 00h
EE30 00          0 20828 DEFB 00h
EE31 00          0 20829 DEFB 00h
EE32 00          0 20830 DEFB 00h
EE33 00          0 20831 DEFB 00h
EE34 00          0 20832 DEFB 00h
EE35 00          0 20833 DEFB 00h
EE36 00          0 20834 DEFB 00h
EE37 00          0 20835 DEFB 00h
EE38 00          0 20836 DEFB 00h
EE39 00          0 20837 DEFB 00h
EE3A 00          0 20838 DEFB 00h
EE3B 00          0 20839 DEFB 00h
EE3C 00          0 20840 DEFB 00h
EE3D 00          0 20841 DEFB 00h
EE3E 00          0 20842 DEFB 00h
EE3F 00          0 20843 DEFB 00h
EE40 00          0 20844 DEFB 00h
EE41 00          0 20845 DEFB 00h
EE42 00          0 20846 DEFB 00h
EE43 00          0 20847 DEFB 00h
EE44 00          0 20848 DEFB 00h
EE45 00          0 20849 DEFB 00h
EE46 00          0 20850 DEFB 00h
EE47 00          0 20851 DEFB 00h
EE48 00          0 20852 DEFB 00h
EE49 00          0 20853 DEFB 00h
EE4A 00          0 20854 DEFB 00h
EE4B 00          0 20855 DEFB 00h
EE4C 00          0 20856 DEFB 00h
EE4D 00          0 20857 DEFB 00h
EE4E 00          0 20858 DEFB 00h
EE4F 00          0 20859 DEFB 00h
EE50 00          0 20860 DEFB 00h
EE51 00          0 20861 DEFB 00h
EE52 00          0 20862 DEFB 00h
EE53 00          0 20863 DEFB 00h
EE54 00          0 20864 DEFB 00h
EE55 00          0 20865 DEFB 00h
EE56 00          0 20866 DEFB 00h
EE57 00          0 20867 DEFB 00h
EE58 00          0 20868 DEFB 00h
EE59 00          0 20869 DEFB 00h
EE5A 00          0 20870 DEFB 00h
EE5B 00          0 20871 DEFB 00h
EE5C 00          0 20872 DEFB 00h
EE5D 00          0 20873 DEFB 00h
EE5E 00          0 20874 DEFB 00h
EE5F 00          0 20875 DEFB 00h
EE60 00          0 20876 DEFB 00h
EE61 00          0 20877 DEFB 00h
EE62 00          0 20878 DEFB 00h
EE63 00          0 20879 DEFB 00h
EE64 00          0 20880 DEFB 00h
EE65             0 20881 __LABEL733:
EE65 00 00       0 20882 DEFW 0000h
EE67 01          0 20883 DEFB 01h
EE68             0 20884 _attribBuffer:
EE68 6C F1       0 20885 DEFW __LABEL734
EE6A             0 20886 _attribBuffer.__DATA__.__PTR__:
EE6A 6C EE       0 20887 DEFW _attribBuffer.__DATA__
EE6C             0 20888 _attribBuffer.__DATA__:
EE6C 00          0 20889 DEFB 00h
EE6D 00          0 20890 DEFB 00h
EE6E 00          0 20891 DEFB 00h
EE6F 00          0 20892 DEFB 00h
EE70 00          0 20893 DEFB 00h
EE71 00          0 20894 DEFB 00h
EE72 00          0 20895 DEFB 00h
EE73 00          0 20896 DEFB 00h
EE74 00          0 20897 DEFB 00h
EE75 00          0 20898 DEFB 00h
EE76 00          0 20899 DEFB 00h
EE77 00          0 20900 DEFB 00h
EE78 00          0 20901 DEFB 00h
EE79 00          0 20902 DEFB 00h
EE7A 00          0 20903 DEFB 00h
EE7B 00          0 20904 DEFB 00h
EE7C 00          0 20905 DEFB 00h
EE7D 00          0 20906 DEFB 00h
EE7E 00          0 20907 DEFB 00h
EE7F 00          0 20908 DEFB 00h
EE80 00          0 20909 DEFB 00h
EE81 00          0 20910 DEFB 00h
EE82 00          0 20911 DEFB 00h
EE83 00          0 20912 DEFB 00h
EE84 00          0 20913 DEFB 00h
EE85 00          0 20914 DEFB 00h
EE86 00          0 20915 DEFB 00h
EE87 00          0 20916 DEFB 00h
EE88 00          0 20917 DEFB 00h
EE89 00          0 20918 DEFB 00h
EE8A 00          0 20919 DEFB 00h
EE8B 00          0 20920 DEFB 00h
EE8C 00          0 20921 DEFB 00h
EE8D 00          0 20922 DEFB 00h
EE8E 00          0 20923 DEFB 00h
EE8F 00          0 20924 DEFB 00h
EE90 00          0 20925 DEFB 00h
EE91 00          0 20926 DEFB 00h
EE92 00          0 20927 DEFB 00h
EE93 00          0 20928 DEFB 00h
EE94 00          0 20929 DEFB 00h
EE95 00          0 20930 DEFB 00h
EE96 00          0 20931 DEFB 00h
EE97 00          0 20932 DEFB 00h
EE98 00          0 20933 DEFB 00h
EE99 00          0 20934 DEFB 00h
EE9A 00          0 20935 DEFB 00h
EE9B 00          0 20936 DEFB 00h
EE9C 00          0 20937 DEFB 00h
EE9D 00          0 20938 DEFB 00h
EE9E 00          0 20939 DEFB 00h
EE9F 00          0 20940 DEFB 00h
EEA0 00          0 20941 DEFB 00h
EEA1 00          0 20942 DEFB 00h
EEA2 00          0 20943 DEFB 00h
EEA3 00          0 20944 DEFB 00h
EEA4 00          0 20945 DEFB 00h
EEA5 00          0 20946 DEFB 00h
EEA6 00          0 20947 DEFB 00h
EEA7 00          0 20948 DEFB 00h
EEA8 00          0 20949 DEFB 00h
EEA9 00          0 20950 DEFB 00h
EEAA 00          0 20951 DEFB 00h
EEAB 00          0 20952 DEFB 00h
EEAC 00          0 20953 DEFB 00h
EEAD 00          0 20954 DEFB 00h
EEAE 00          0 20955 DEFB 00h
EEAF 00          0 20956 DEFB 00h
EEB0 00          0 20957 DEFB 00h
EEB1 00          0 20958 DEFB 00h
EEB2 00          0 20959 DEFB 00h
EEB3 00          0 20960 DEFB 00h
EEB4 00          0 20961 DEFB 00h
EEB5 00          0 20962 DEFB 00h
EEB6 00          0 20963 DEFB 00h
EEB7 00          0 20964 DEFB 00h
EEB8 00          0 20965 DEFB 00h
EEB9 00          0 20966 DEFB 00h
EEBA 00          0 20967 DEFB 00h
EEBB 00          0 20968 DEFB 00h
EEBC 00          0 20969 DEFB 00h
EEBD 00          0 20970 DEFB 00h
EEBE 00          0 20971 DEFB 00h
EEBF 00          0 20972 DEFB 00h
EEC0 00          0 20973 DEFB 00h
EEC1 00          0 20974 DEFB 00h
EEC2 00          0 20975 DEFB 00h
EEC3 00          0 20976 DEFB 00h
EEC4 00          0 20977 DEFB 00h
EEC5 00          0 20978 DEFB 00h
EEC6 00          0 20979 DEFB 00h
EEC7 00          0 20980 DEFB 00h
EEC8 00          0 20981 DEFB 00h
EEC9 00          0 20982 DEFB 00h
EECA 00          0 20983 DEFB 00h
EECB 00          0 20984 DEFB 00h
EECC 00          0 20985 DEFB 00h
EECD 00          0 20986 DEFB 00h
EECE 00          0 20987 DEFB 00h
EECF 00          0 20988 DEFB 00h
EED0 00          0 20989 DEFB 00h
EED1 00          0 20990 DEFB 00h
EED2 00          0 20991 DEFB 00h
EED3 00          0 20992 DEFB 00h
EED4 00          0 20993 DEFB 00h
EED5 00          0 20994 DEFB 00h
EED6 00          0 20995 DEFB 00h
EED7 00          0 20996 DEFB 00h
EED8 00          0 20997 DEFB 00h
EED9 00          0 20998 DEFB 00h
EEDA 00          0 20999 DEFB 00h
EEDB 00          0 21000 DEFB 00h
EEDC 00          0 21001 DEFB 00h
EEDD 00          0 21002 DEFB 00h
EEDE 00          0 21003 DEFB 00h
EEDF 00          0 21004 DEFB 00h
EEE0 00          0 21005 DEFB 00h
EEE1 00          0 21006 DEFB 00h
EEE2 00          0 21007 DEFB 00h
EEE3 00          0 21008 DEFB 00h
EEE4 00          0 21009 DEFB 00h
EEE5 00          0 21010 DEFB 00h
EEE6 00          0 21011 DEFB 00h
EEE7 00          0 21012 DEFB 00h
EEE8 00          0 21013 DEFB 00h
EEE9 00          0 21014 DEFB 00h
EEEA 00          0 21015 DEFB 00h
EEEB 00          0 21016 DEFB 00h
EEEC 00          0 21017 DEFB 00h
EEED 00          0 21018 DEFB 00h
EEEE 00          0 21019 DEFB 00h
EEEF 00          0 21020 DEFB 00h
EEF0 00          0 21021 DEFB 00h
EEF1 00          0 21022 DEFB 00h
EEF2 00          0 21023 DEFB 00h
EEF3 00          0 21024 DEFB 00h
EEF4 00          0 21025 DEFB 00h
EEF5 00          0 21026 DEFB 00h
EEF6 00          0 21027 DEFB 00h
EEF7 00          0 21028 DEFB 00h
EEF8 00          0 21029 DEFB 00h
EEF9 00          0 21030 DEFB 00h
EEFA 00          0 21031 DEFB 00h
EEFB 00          0 21032 DEFB 00h
EEFC 00          0 21033 DEFB 00h
EEFD 00          0 21034 DEFB 00h
EEFE 00          0 21035 DEFB 00h
EEFF 00          0 21036 DEFB 00h
EF00 00          0 21037 DEFB 00h
EF01 00          0 21038 DEFB 00h
EF02 00          0 21039 DEFB 00h
EF03 00          0 21040 DEFB 00h
EF04 00          0 21041 DEFB 00h
EF05 00          0 21042 DEFB 00h
EF06 00          0 21043 DEFB 00h
EF07 00          0 21044 DEFB 00h
EF08 00          0 21045 DEFB 00h
EF09 00          0 21046 DEFB 00h
EF0A 00          0 21047 DEFB 00h
EF0B 00          0 21048 DEFB 00h
EF0C 00          0 21049 DEFB 00h
EF0D 00          0 21050 DEFB 00h
EF0E 00          0 21051 DEFB 00h
EF0F 00          0 21052 DEFB 00h
EF10 00          0 21053 DEFB 00h
EF11 00          0 21054 DEFB 00h
EF12 00          0 21055 DEFB 00h
EF13 00          0 21056 DEFB 00h
EF14 00          0 21057 DEFB 00h
EF15 00          0 21058 DEFB 00h
EF16 00          0 21059 DEFB 00h
EF17 00          0 21060 DEFB 00h
EF18 00          0 21061 DEFB 00h
EF19 00          0 21062 DEFB 00h
EF1A 00          0 21063 DEFB 00h
EF1B 00          0 21064 DEFB 00h
EF1C 00          0 21065 DEFB 00h
EF1D 00          0 21066 DEFB 00h
EF1E 00          0 21067 DEFB 00h
EF1F 00          0 21068 DEFB 00h
EF20 00          0 21069 DEFB 00h
EF21 00          0 21070 DEFB 00h
EF22 00          0 21071 DEFB 00h
EF23 00          0 21072 DEFB 00h
EF24 00          0 21073 DEFB 00h
EF25 00          0 21074 DEFB 00h
EF26 00          0 21075 DEFB 00h
EF27 00          0 21076 DEFB 00h
EF28 00          0 21077 DEFB 00h
EF29 00          0 21078 DEFB 00h
EF2A 00          0 21079 DEFB 00h
EF2B 00          0 21080 DEFB 00h
EF2C 00          0 21081 DEFB 00h
EF2D 00          0 21082 DEFB 00h
EF2E 00          0 21083 DEFB 00h
EF2F 00          0 21084 DEFB 00h
EF30 00          0 21085 DEFB 00h
EF31 00          0 21086 DEFB 00h
EF32 00          0 21087 DEFB 00h
EF33 00          0 21088 DEFB 00h
EF34 00          0 21089 DEFB 00h
EF35 00          0 21090 DEFB 00h
EF36 00          0 21091 DEFB 00h
EF37 00          0 21092 DEFB 00h
EF38 00          0 21093 DEFB 00h
EF39 00          0 21094 DEFB 00h
EF3A 00          0 21095 DEFB 00h
EF3B 00          0 21096 DEFB 00h
EF3C 00          0 21097 DEFB 00h
EF3D 00          0 21098 DEFB 00h
EF3E 00          0 21099 DEFB 00h
EF3F 00          0 21100 DEFB 00h
EF40 00          0 21101 DEFB 00h
EF41 00          0 21102 DEFB 00h
EF42 00          0 21103 DEFB 00h
EF43 00          0 21104 DEFB 00h
EF44 00          0 21105 DEFB 00h
EF45 00          0 21106 DEFB 00h
EF46 00          0 21107 DEFB 00h
EF47 00          0 21108 DEFB 00h
EF48 00          0 21109 DEFB 00h
EF49 00          0 21110 DEFB 00h
EF4A 00          0 21111 DEFB 00h
EF4B 00          0 21112 DEFB 00h
EF4C 00          0 21113 DEFB 00h
EF4D 00          0 21114 DEFB 00h
EF4E 00          0 21115 DEFB 00h
EF4F 00          0 21116 DEFB 00h
EF50 00          0 21117 DEFB 00h
EF51 00          0 21118 DEFB 00h
EF52 00          0 21119 DEFB 00h
EF53 00          0 21120 DEFB 00h
EF54 00          0 21121 DEFB 00h
EF55 00          0 21122 DEFB 00h
EF56 00          0 21123 DEFB 00h
EF57 00          0 21124 DEFB 00h
EF58 00          0 21125 DEFB 00h
EF59 00          0 21126 DEFB 00h
EF5A 00          0 21127 DEFB 00h
EF5B 00          0 21128 DEFB 00h
EF5C 00          0 21129 DEFB 00h
EF5D 00          0 21130 DEFB 00h
EF5E 00          0 21131 DEFB 00h
EF5F 00          0 21132 DEFB 00h
EF60 00          0 21133 DEFB 00h
EF61 00          0 21134 DEFB 00h
EF62 00          0 21135 DEFB 00h
EF63 00          0 21136 DEFB 00h
EF64 00          0 21137 DEFB 00h
EF65 00          0 21138 DEFB 00h
EF66 00          0 21139 DEFB 00h
EF67 00          0 21140 DEFB 00h
EF68 00          0 21141 DEFB 00h
EF69 00          0 21142 DEFB 00h
EF6A 00          0 21143 DEFB 00h
EF6B 00          0 21144 DEFB 00h
EF6C 00          0 21145 DEFB 00h
EF6D 00          0 21146 DEFB 00h
EF6E 00          0 21147 DEFB 00h
EF6F 00          0 21148 DEFB 00h
EF70 00          0 21149 DEFB 00h
EF71 00          0 21150 DEFB 00h
EF72 00          0 21151 DEFB 00h
EF73 00          0 21152 DEFB 00h
EF74 00          0 21153 DEFB 00h
EF75 00          0 21154 DEFB 00h
EF76 00          0 21155 DEFB 00h
EF77 00          0 21156 DEFB 00h
EF78 00          0 21157 DEFB 00h
EF79 00          0 21158 DEFB 00h
EF7A 00          0 21159 DEFB 00h
EF7B 00          0 21160 DEFB 00h
EF7C 00          0 21161 DEFB 00h
EF7D 00          0 21162 DEFB 00h
EF7E 00          0 21163 DEFB 00h
EF7F 00          0 21164 DEFB 00h
EF80 00          0 21165 DEFB 00h
EF81 00          0 21166 DEFB 00h
EF82 00          0 21167 DEFB 00h
EF83 00          0 21168 DEFB 00h
EF84 00          0 21169 DEFB 00h
EF85 00          0 21170 DEFB 00h
EF86 00          0 21171 DEFB 00h
EF87 00          0 21172 DEFB 00h
EF88 00          0 21173 DEFB 00h
EF89 00          0 21174 DEFB 00h
EF8A 00          0 21175 DEFB 00h
EF8B 00          0 21176 DEFB 00h
EF8C 00          0 21177 DEFB 00h
EF8D 00          0 21178 DEFB 00h
EF8E 00          0 21179 DEFB 00h
EF8F 00          0 21180 DEFB 00h
EF90 00          0 21181 DEFB 00h
EF91 00          0 21182 DEFB 00h
EF92 00          0 21183 DEFB 00h
EF93 00          0 21184 DEFB 00h
EF94 00          0 21185 DEFB 00h
EF95 00          0 21186 DEFB 00h
EF96 00          0 21187 DEFB 00h
EF97 00          0 21188 DEFB 00h
EF98 00          0 21189 DEFB 00h
EF99 00          0 21190 DEFB 00h
EF9A 00          0 21191 DEFB 00h
EF9B 00          0 21192 DEFB 00h
EF9C 00          0 21193 DEFB 00h
EF9D 00          0 21194 DEFB 00h
EF9E 00          0 21195 DEFB 00h
EF9F 00          0 21196 DEFB 00h
EFA0 00          0 21197 DEFB 00h
EFA1 00          0 21198 DEFB 00h
EFA2 00          0 21199 DEFB 00h
EFA3 00          0 21200 DEFB 00h
EFA4 00          0 21201 DEFB 00h
EFA5 00          0 21202 DEFB 00h
EFA6 00          0 21203 DEFB 00h
EFA7 00          0 21204 DEFB 00h
EFA8 00          0 21205 DEFB 00h
EFA9 00          0 21206 DEFB 00h
EFAA 00          0 21207 DEFB 00h
EFAB 00          0 21208 DEFB 00h
EFAC 00          0 21209 DEFB 00h
EFAD 00          0 21210 DEFB 00h
EFAE 00          0 21211 DEFB 00h
EFAF 00          0 21212 DEFB 00h
EFB0 00          0 21213 DEFB 00h
EFB1 00          0 21214 DEFB 00h
EFB2 00          0 21215 DEFB 00h
EFB3 00          0 21216 DEFB 00h
EFB4 00          0 21217 DEFB 00h
EFB5 00          0 21218 DEFB 00h
EFB6 00          0 21219 DEFB 00h
EFB7 00          0 21220 DEFB 00h
EFB8 00          0 21221 DEFB 00h
EFB9 00          0 21222 DEFB 00h
EFBA 00          0 21223 DEFB 00h
EFBB 00          0 21224 DEFB 00h
EFBC 00          0 21225 DEFB 00h
EFBD 00          0 21226 DEFB 00h
EFBE 00          0 21227 DEFB 00h
EFBF 00          0 21228 DEFB 00h
EFC0 00          0 21229 DEFB 00h
EFC1 00          0 21230 DEFB 00h
EFC2 00          0 21231 DEFB 00h
EFC3 00          0 21232 DEFB 00h
EFC4 00          0 21233 DEFB 00h
EFC5 00          0 21234 DEFB 00h
EFC6 00          0 21235 DEFB 00h
EFC7 00          0 21236 DEFB 00h
EFC8 00          0 21237 DEFB 00h
EFC9 00          0 21238 DEFB 00h
EFCA 00          0 21239 DEFB 00h
EFCB 00          0 21240 DEFB 00h
EFCC 00          0 21241 DEFB 00h
EFCD 00          0 21242 DEFB 00h
EFCE 00          0 21243 DEFB 00h
EFCF 00          0 21244 DEFB 00h
EFD0 00          0 21245 DEFB 00h
EFD1 00          0 21246 DEFB 00h
EFD2 00          0 21247 DEFB 00h
EFD3 00          0 21248 DEFB 00h
EFD4 00          0 21249 DEFB 00h
EFD5 00          0 21250 DEFB 00h
EFD6 00          0 21251 DEFB 00h
EFD7 00          0 21252 DEFB 00h
EFD8 00          0 21253 DEFB 00h
EFD9 00          0 21254 DEFB 00h
EFDA 00          0 21255 DEFB 00h
EFDB 00          0 21256 DEFB 00h
EFDC 00          0 21257 DEFB 00h
EFDD 00          0 21258 DEFB 00h
EFDE 00          0 21259 DEFB 00h
EFDF 00          0 21260 DEFB 00h
EFE0 00          0 21261 DEFB 00h
EFE1 00          0 21262 DEFB 00h
EFE2 00          0 21263 DEFB 00h
EFE3 00          0 21264 DEFB 00h
EFE4 00          0 21265 DEFB 00h
EFE5 00          0 21266 DEFB 00h
EFE6 00          0 21267 DEFB 00h
EFE7 00          0 21268 DEFB 00h
EFE8 00          0 21269 DEFB 00h
EFE9 00          0 21270 DEFB 00h
EFEA 00          0 21271 DEFB 00h
EFEB 00          0 21272 DEFB 00h
EFEC 00          0 21273 DEFB 00h
EFED 00          0 21274 DEFB 00h
EFEE 00          0 21275 DEFB 00h
EFEF 00          0 21276 DEFB 00h
EFF0 00          0 21277 DEFB 00h
EFF1 00          0 21278 DEFB 00h
EFF2 00          0 21279 DEFB 00h
EFF3 00          0 21280 DEFB 00h
EFF4 00          0 21281 DEFB 00h
EFF5 00          0 21282 DEFB 00h
EFF6 00          0 21283 DEFB 00h
EFF7 00          0 21284 DEFB 00h
EFF8 00          0 21285 DEFB 00h
EFF9 00          0 21286 DEFB 00h
EFFA 00          0 21287 DEFB 00h
EFFB 00          0 21288 DEFB 00h
EFFC 00          0 21289 DEFB 00h
EFFD 00          0 21290 DEFB 00h
EFFE 00          0 21291 DEFB 00h
EFFF 00          0 21292 DEFB 00h
F000 00          0 21293 DEFB 00h
F001 00          0 21294 DEFB 00h
F002 00          0 21295 DEFB 00h
F003 00          0 21296 DEFB 00h
F004 00          0 21297 DEFB 00h
F005 00          0 21298 DEFB 00h
F006 00          0 21299 DEFB 00h
F007 00          0 21300 DEFB 00h
F008 00          0 21301 DEFB 00h
F009 00          0 21302 DEFB 00h
F00A 00          0 21303 DEFB 00h
F00B 00          0 21304 DEFB 00h
F00C 00          0 21305 DEFB 00h
F00D 00          0 21306 DEFB 00h
F00E 00          0 21307 DEFB 00h
F00F 00          0 21308 DEFB 00h
F010 00          0 21309 DEFB 00h
F011 00          0 21310 DEFB 00h
F012 00          0 21311 DEFB 00h
F013 00          0 21312 DEFB 00h
F014 00          0 21313 DEFB 00h
F015 00          0 21314 DEFB 00h
F016 00          0 21315 DEFB 00h
F017 00          0 21316 DEFB 00h
F018 00          0 21317 DEFB 00h
F019 00          0 21318 DEFB 00h
F01A 00          0 21319 DEFB 00h
F01B 00          0 21320 DEFB 00h
F01C 00          0 21321 DEFB 00h
F01D 00          0 21322 DEFB 00h
F01E 00          0 21323 DEFB 00h
F01F 00          0 21324 DEFB 00h
F020 00          0 21325 DEFB 00h
F021 00          0 21326 DEFB 00h
F022 00          0 21327 DEFB 00h
F023 00          0 21328 DEFB 00h
F024 00          0 21329 DEFB 00h
F025 00          0 21330 DEFB 00h
F026 00          0 21331 DEFB 00h
F027 00          0 21332 DEFB 00h
F028 00          0 21333 DEFB 00h
F029 00          0 21334 DEFB 00h
F02A 00          0 21335 DEFB 00h
F02B 00          0 21336 DEFB 00h
F02C 00          0 21337 DEFB 00h
F02D 00          0 21338 DEFB 00h
F02E 00          0 21339 DEFB 00h
F02F 00          0 21340 DEFB 00h
F030 00          0 21341 DEFB 00h
F031 00          0 21342 DEFB 00h
F032 00          0 21343 DEFB 00h
F033 00          0 21344 DEFB 00h
F034 00          0 21345 DEFB 00h
F035 00          0 21346 DEFB 00h
F036 00          0 21347 DEFB 00h
F037 00          0 21348 DEFB 00h
F038 00          0 21349 DEFB 00h
F039 00          0 21350 DEFB 00h
F03A 00          0 21351 DEFB 00h
F03B 00          0 21352 DEFB 00h
F03C 00          0 21353 DEFB 00h
F03D 00          0 21354 DEFB 00h
F03E 00          0 21355 DEFB 00h
F03F 00          0 21356 DEFB 00h
F040 00          0 21357 DEFB 00h
F041 00          0 21358 DEFB 00h
F042 00          0 21359 DEFB 00h
F043 00          0 21360 DEFB 00h
F044 00          0 21361 DEFB 00h
F045 00          0 21362 DEFB 00h
F046 00          0 21363 DEFB 00h
F047 00          0 21364 DEFB 00h
F048 00          0 21365 DEFB 00h
F049 00          0 21366 DEFB 00h
F04A 00          0 21367 DEFB 00h
F04B 00          0 21368 DEFB 00h
F04C 00          0 21369 DEFB 00h
F04D 00          0 21370 DEFB 00h
F04E 00          0 21371 DEFB 00h
F04F 00          0 21372 DEFB 00h
F050 00          0 21373 DEFB 00h
F051 00          0 21374 DEFB 00h
F052 00          0 21375 DEFB 00h
F053 00          0 21376 DEFB 00h
F054 00          0 21377 DEFB 00h
F055 00          0 21378 DEFB 00h
F056 00          0 21379 DEFB 00h
F057 00          0 21380 DEFB 00h
F058 00          0 21381 DEFB 00h
F059 00          0 21382 DEFB 00h
F05A 00          0 21383 DEFB 00h
F05B 00          0 21384 DEFB 00h
F05C 00          0 21385 DEFB 00h
F05D 00          0 21386 DEFB 00h
F05E 00          0 21387 DEFB 00h
F05F 00          0 21388 DEFB 00h
F060 00          0 21389 DEFB 00h
F061 00          0 21390 DEFB 00h
F062 00          0 21391 DEFB 00h
F063 00          0 21392 DEFB 00h
F064 00          0 21393 DEFB 00h
F065 00          0 21394 DEFB 00h
F066 00          0 21395 DEFB 00h
F067 00          0 21396 DEFB 00h
F068 00          0 21397 DEFB 00h
F069 00          0 21398 DEFB 00h
F06A 00          0 21399 DEFB 00h
F06B 00          0 21400 DEFB 00h
F06C 00          0 21401 DEFB 00h
F06D 00          0 21402 DEFB 00h
F06E 00          0 21403 DEFB 00h
F06F 00          0 21404 DEFB 00h
F070 00          0 21405 DEFB 00h
F071 00          0 21406 DEFB 00h
F072 00          0 21407 DEFB 00h
F073 00          0 21408 DEFB 00h
F074 00          0 21409 DEFB 00h
F075 00          0 21410 DEFB 00h
F076 00          0 21411 DEFB 00h
F077 00          0 21412 DEFB 00h
F078 00          0 21413 DEFB 00h
F079 00          0 21414 DEFB 00h
F07A 00          0 21415 DEFB 00h
F07B 00          0 21416 DEFB 00h
F07C 00          0 21417 DEFB 00h
F07D 00          0 21418 DEFB 00h
F07E 00          0 21419 DEFB 00h
F07F 00          0 21420 DEFB 00h
F080 00          0 21421 DEFB 00h
F081 00          0 21422 DEFB 00h
F082 00          0 21423 DEFB 00h
F083 00          0 21424 DEFB 00h
F084 00          0 21425 DEFB 00h
F085 00          0 21426 DEFB 00h
F086 00          0 21427 DEFB 00h
F087 00          0 21428 DEFB 00h
F088 00          0 21429 DEFB 00h
F089 00          0 21430 DEFB 00h
F08A 00          0 21431 DEFB 00h
F08B 00          0 21432 DEFB 00h
F08C 00          0 21433 DEFB 00h
F08D 00          0 21434 DEFB 00h
F08E 00          0 21435 DEFB 00h
F08F 00          0 21436 DEFB 00h
F090 00          0 21437 DEFB 00h
F091 00          0 21438 DEFB 00h
F092 00          0 21439 DEFB 00h
F093 00          0 21440 DEFB 00h
F094 00          0 21441 DEFB 00h
F095 00          0 21442 DEFB 00h
F096 00          0 21443 DEFB 00h
F097 00          0 21444 DEFB 00h
F098 00          0 21445 DEFB 00h
F099 00          0 21446 DEFB 00h
F09A 00          0 21447 DEFB 00h
F09B 00          0 21448 DEFB 00h
F09C 00          0 21449 DEFB 00h
F09D 00          0 21450 DEFB 00h
F09E 00          0 21451 DEFB 00h
F09F 00          0 21452 DEFB 00h
F0A0 00          0 21453 DEFB 00h
F0A1 00          0 21454 DEFB 00h
F0A2 00          0 21455 DEFB 00h
F0A3 00          0 21456 DEFB 00h
F0A4 00          0 21457 DEFB 00h
F0A5 00          0 21458 DEFB 00h
F0A6 00          0 21459 DEFB 00h
F0A7 00          0 21460 DEFB 00h
F0A8 00          0 21461 DEFB 00h
F0A9 00          0 21462 DEFB 00h
F0AA 00          0 21463 DEFB 00h
F0AB 00          0 21464 DEFB 00h
F0AC 00          0 21465 DEFB 00h
F0AD 00          0 21466 DEFB 00h
F0AE 00          0 21467 DEFB 00h
F0AF 00          0 21468 DEFB 00h
F0B0 00          0 21469 DEFB 00h
F0B1 00          0 21470 DEFB 00h
F0B2 00          0 21471 DEFB 00h
F0B3 00          0 21472 DEFB 00h
F0B4 00          0 21473 DEFB 00h
F0B5 00          0 21474 DEFB 00h
F0B6 00          0 21475 DEFB 00h
F0B7 00          0 21476 DEFB 00h
F0B8 00          0 21477 DEFB 00h
F0B9 00          0 21478 DEFB 00h
F0BA 00          0 21479 DEFB 00h
F0BB 00          0 21480 DEFB 00h
F0BC 00          0 21481 DEFB 00h
F0BD 00          0 21482 DEFB 00h
F0BE 00          0 21483 DEFB 00h
F0BF 00          0 21484 DEFB 00h
F0C0 00          0 21485 DEFB 00h
F0C1 00          0 21486 DEFB 00h
F0C2 00          0 21487 DEFB 00h
F0C3 00          0 21488 DEFB 00h
F0C4 00          0 21489 DEFB 00h
F0C5 00          0 21490 DEFB 00h
F0C6 00          0 21491 DEFB 00h
F0C7 00          0 21492 DEFB 00h
F0C8 00          0 21493 DEFB 00h
F0C9 00          0 21494 DEFB 00h
F0CA 00          0 21495 DEFB 00h
F0CB 00          0 21496 DEFB 00h
F0CC 00          0 21497 DEFB 00h
F0CD 00          0 21498 DEFB 00h
F0CE 00          0 21499 DEFB 00h
F0CF 00          0 21500 DEFB 00h
F0D0 00          0 21501 DEFB 00h
F0D1 00          0 21502 DEFB 00h
F0D2 00          0 21503 DEFB 00h
F0D3 00          0 21504 DEFB 00h
F0D4 00          0 21505 DEFB 00h
F0D5 00          0 21506 DEFB 00h
F0D6 00          0 21507 DEFB 00h
F0D7 00          0 21508 DEFB 00h
F0D8 00          0 21509 DEFB 00h
F0D9 00          0 21510 DEFB 00h
F0DA 00          0 21511 DEFB 00h
F0DB 00          0 21512 DEFB 00h
F0DC 00          0 21513 DEFB 00h
F0DD 00          0 21514 DEFB 00h
F0DE 00          0 21515 DEFB 00h
F0DF 00          0 21516 DEFB 00h
F0E0 00          0 21517 DEFB 00h
F0E1 00          0 21518 DEFB 00h
F0E2 00          0 21519 DEFB 00h
F0E3 00          0 21520 DEFB 00h
F0E4 00          0 21521 DEFB 00h
F0E5 00          0 21522 DEFB 00h
F0E6 00          0 21523 DEFB 00h
F0E7 00          0 21524 DEFB 00h
F0E8 00          0 21525 DEFB 00h
F0E9 00          0 21526 DEFB 00h
F0EA 00          0 21527 DEFB 00h
F0EB 00          0 21528 DEFB 00h
F0EC 00          0 21529 DEFB 00h
F0ED 00          0 21530 DEFB 00h
F0EE 00          0 21531 DEFB 00h
F0EF 00          0 21532 DEFB 00h
F0F0 00          0 21533 DEFB 00h
F0F1 00          0 21534 DEFB 00h
F0F2 00          0 21535 DEFB 00h
F0F3 00          0 21536 DEFB 00h
F0F4 00          0 21537 DEFB 00h
F0F5 00          0 21538 DEFB 00h
F0F6 00          0 21539 DEFB 00h
F0F7 00          0 21540 DEFB 00h
F0F8 00          0 21541 DEFB 00h
F0F9 00          0 21542 DEFB 00h
F0FA 00          0 21543 DEFB 00h
F0FB 00          0 21544 DEFB 00h
F0FC 00          0 21545 DEFB 00h
F0FD 00          0 21546 DEFB 00h
F0FE 00          0 21547 DEFB 00h
F0FF 00          0 21548 DEFB 00h
F100 00          0 21549 DEFB 00h
F101 00          0 21550 DEFB 00h
F102 00          0 21551 DEFB 00h
F103 00          0 21552 DEFB 00h
F104 00          0 21553 DEFB 00h
F105 00          0 21554 DEFB 00h
F106 00          0 21555 DEFB 00h
F107 00          0 21556 DEFB 00h
F108 00          0 21557 DEFB 00h
F109 00          0 21558 DEFB 00h
F10A 00          0 21559 DEFB 00h
F10B 00          0 21560 DEFB 00h
F10C 00          0 21561 DEFB 00h
F10D 00          0 21562 DEFB 00h
F10E 00          0 21563 DEFB 00h
F10F 00          0 21564 DEFB 00h
F110 00          0 21565 DEFB 00h
F111 00          0 21566 DEFB 00h
F112 00          0 21567 DEFB 00h
F113 00          0 21568 DEFB 00h
F114 00          0 21569 DEFB 00h
F115 00          0 21570 DEFB 00h
F116 00          0 21571 DEFB 00h
F117 00          0 21572 DEFB 00h
F118 00          0 21573 DEFB 00h
F119 00          0 21574 DEFB 00h
F11A 00          0 21575 DEFB 00h
F11B 00          0 21576 DEFB 00h
F11C 00          0 21577 DEFB 00h
F11D 00          0 21578 DEFB 00h
F11E 00          0 21579 DEFB 00h
F11F 00          0 21580 DEFB 00h
F120 00          0 21581 DEFB 00h
F121 00          0 21582 DEFB 00h
F122 00          0 21583 DEFB 00h
F123 00          0 21584 DEFB 00h
F124 00          0 21585 DEFB 00h
F125 00          0 21586 DEFB 00h
F126 00          0 21587 DEFB 00h
F127 00          0 21588 DEFB 00h
F128 00          0 21589 DEFB 00h
F129 00          0 21590 DEFB 00h
F12A 00          0 21591 DEFB 00h
F12B 00          0 21592 DEFB 00h
F12C 00          0 21593 DEFB 00h
F12D 00          0 21594 DEFB 00h
F12E 00          0 21595 DEFB 00h
F12F 00          0 21596 DEFB 00h
F130 00          0 21597 DEFB 00h
F131 00          0 21598 DEFB 00h
F132 00          0 21599 DEFB 00h
F133 00          0 21600 DEFB 00h
F134 00          0 21601 DEFB 00h
F135 00          0 21602 DEFB 00h
F136 00          0 21603 DEFB 00h
F137 00          0 21604 DEFB 00h
F138 00          0 21605 DEFB 00h
F139 00          0 21606 DEFB 00h
F13A 00          0 21607 DEFB 00h
F13B 00          0 21608 DEFB 00h
F13C 00          0 21609 DEFB 00h
F13D 00          0 21610 DEFB 00h
F13E 00          0 21611 DEFB 00h
F13F 00          0 21612 DEFB 00h
F140 00          0 21613 DEFB 00h
F141 00          0 21614 DEFB 00h
F142 00          0 21615 DEFB 00h
F143 00          0 21616 DEFB 00h
F144 00          0 21617 DEFB 00h
F145 00          0 21618 DEFB 00h
F146 00          0 21619 DEFB 00h
F147 00          0 21620 DEFB 00h
F148 00          0 21621 DEFB 00h
F149 00          0 21622 DEFB 00h
F14A 00          0 21623 DEFB 00h
F14B 00          0 21624 DEFB 00h
F14C 00          0 21625 DEFB 00h
F14D 00          0 21626 DEFB 00h
F14E 00          0 21627 DEFB 00h
F14F 00          0 21628 DEFB 00h
F150 00          0 21629 DEFB 00h
F151 00          0 21630 DEFB 00h
F152 00          0 21631 DEFB 00h
F153 00          0 21632 DEFB 00h
F154 00          0 21633 DEFB 00h
F155 00          0 21634 DEFB 00h
F156 00          0 21635 DEFB 00h
F157 00          0 21636 DEFB 00h
F158 00          0 21637 DEFB 00h
F159 00          0 21638 DEFB 00h
F15A 00          0 21639 DEFB 00h
F15B 00          0 21640 DEFB 00h
F15C 00          0 21641 DEFB 00h
F15D 00          0 21642 DEFB 00h
F15E 00          0 21643 DEFB 00h
F15F 00          0 21644 DEFB 00h
F160 00          0 21645 DEFB 00h
F161 00          0 21646 DEFB 00h
F162 00          0 21647 DEFB 00h
F163 00          0 21648 DEFB 00h
F164 00          0 21649 DEFB 00h
F165 00          0 21650 DEFB 00h
F166 00          0 21651 DEFB 00h
F167 00          0 21652 DEFB 00h
F168 00          0 21653 DEFB 00h
F169 00          0 21654 DEFB 00h
F16A 00          0 21655 DEFB 00h
F16B 00          0 21656 DEFB 00h
F16C             0 21657 __LABEL734:
F16C 00 00       0 21658 DEFW 0000h
F16E 01          0 21659 DEFB 01h
F16F             0 21660 _tableCP:
F16F 73 F4       0 21661 DEFW __LABEL735
F171             0 21662 _tableCP.__DATA__.__PTR__:
F171 73 F1       0 21663 DEFW _tableCP.__DATA__
F173             0 21664 _tableCP.__DATA__:
F173 00          0 21665 DEFB 00h
F174 00          0 21666 DEFB 00h
F175 00          0 21667 DEFB 00h
F176 00          0 21668 DEFB 00h
F177 00          0 21669 DEFB 00h
F178 00          0 21670 DEFB 00h
F179 00          0 21671 DEFB 00h
F17A 00          0 21672 DEFB 00h
F17B 00          0 21673 DEFB 00h
F17C 00          0 21674 DEFB 00h
F17D 00          0 21675 DEFB 00h
F17E 00          0 21676 DEFB 00h
F17F 00          0 21677 DEFB 00h
F180 00          0 21678 DEFB 00h
F181 00          0 21679 DEFB 00h
F182 00          0 21680 DEFB 00h
F183 00          0 21681 DEFB 00h
F184 00          0 21682 DEFB 00h
F185 00          0 21683 DEFB 00h
F186 00          0 21684 DEFB 00h
F187 00          0 21685 DEFB 00h
F188 00          0 21686 DEFB 00h
F189 00          0 21687 DEFB 00h
F18A 00          0 21688 DEFB 00h
F18B 00          0 21689 DEFB 00h
F18C 00          0 21690 DEFB 00h
F18D 00          0 21691 DEFB 00h
F18E 00          0 21692 DEFB 00h
F18F 00          0 21693 DEFB 00h
F190 00          0 21694 DEFB 00h
F191 00          0 21695 DEFB 00h
F192 00          0 21696 DEFB 00h
F193 00          0 21697 DEFB 00h
F194 00          0 21698 DEFB 00h
F195 00          0 21699 DEFB 00h
F196 00          0 21700 DEFB 00h
F197 00          0 21701 DEFB 00h
F198 00          0 21702 DEFB 00h
F199 00          0 21703 DEFB 00h
F19A 00          0 21704 DEFB 00h
F19B 00          0 21705 DEFB 00h
F19C 00          0 21706 DEFB 00h
F19D 00          0 21707 DEFB 00h
F19E 00          0 21708 DEFB 00h
F19F 00          0 21709 DEFB 00h
F1A0 00          0 21710 DEFB 00h
F1A1 00          0 21711 DEFB 00h
F1A2 00          0 21712 DEFB 00h
F1A3 00          0 21713 DEFB 00h
F1A4 00          0 21714 DEFB 00h
F1A5 00          0 21715 DEFB 00h
F1A6 00          0 21716 DEFB 00h
F1A7 00          0 21717 DEFB 00h
F1A8 00          0 21718 DEFB 00h
F1A9 00          0 21719 DEFB 00h
F1AA 00          0 21720 DEFB 00h
F1AB 00          0 21721 DEFB 00h
F1AC 00          0 21722 DEFB 00h
F1AD 00          0 21723 DEFB 00h
F1AE 00          0 21724 DEFB 00h
F1AF 00          0 21725 DEFB 00h
F1B0 00          0 21726 DEFB 00h
F1B1 00          0 21727 DEFB 00h
F1B2 00          0 21728 DEFB 00h
F1B3 00          0 21729 DEFB 00h
F1B4 00          0 21730 DEFB 00h
F1B5 00          0 21731 DEFB 00h
F1B6 00          0 21732 DEFB 00h
F1B7 00          0 21733 DEFB 00h
F1B8 00          0 21734 DEFB 00h
F1B9 00          0 21735 DEFB 00h
F1BA 00          0 21736 DEFB 00h
F1BB 00          0 21737 DEFB 00h
F1BC 00          0 21738 DEFB 00h
F1BD 00          0 21739 DEFB 00h
F1BE 00          0 21740 DEFB 00h
F1BF 00          0 21741 DEFB 00h
F1C0 00          0 21742 DEFB 00h
F1C1 00          0 21743 DEFB 00h
F1C2 00          0 21744 DEFB 00h
F1C3 00          0 21745 DEFB 00h
F1C4 00          0 21746 DEFB 00h
F1C5 00          0 21747 DEFB 00h
F1C6 00          0 21748 DEFB 00h
F1C7 00          0 21749 DEFB 00h
F1C8 00          0 21750 DEFB 00h
F1C9 00          0 21751 DEFB 00h
F1CA 00          0 21752 DEFB 00h
F1CB 00          0 21753 DEFB 00h
F1CC 00          0 21754 DEFB 00h
F1CD 00          0 21755 DEFB 00h
F1CE 00          0 21756 DEFB 00h
F1CF 00          0 21757 DEFB 00h
F1D0 00          0 21758 DEFB 00h
F1D1 00          0 21759 DEFB 00h
F1D2 00          0 21760 DEFB 00h
F1D3 00          0 21761 DEFB 00h
F1D4 00          0 21762 DEFB 00h
F1D5 00          0 21763 DEFB 00h
F1D6 00          0 21764 DEFB 00h
F1D7 00          0 21765 DEFB 00h
F1D8 00          0 21766 DEFB 00h
F1D9 00          0 21767 DEFB 00h
F1DA 00          0 21768 DEFB 00h
F1DB 00          0 21769 DEFB 00h
F1DC 00          0 21770 DEFB 00h
F1DD 00          0 21771 DEFB 00h
F1DE 00          0 21772 DEFB 00h
F1DF 00          0 21773 DEFB 00h
F1E0 00          0 21774 DEFB 00h
F1E1 00          0 21775 DEFB 00h
F1E2 00          0 21776 DEFB 00h
F1E3 00          0 21777 DEFB 00h
F1E4 00          0 21778 DEFB 00h
F1E5 00          0 21779 DEFB 00h
F1E6 00          0 21780 DEFB 00h
F1E7 00          0 21781 DEFB 00h
F1E8 00          0 21782 DEFB 00h
F1E9 00          0 21783 DEFB 00h
F1EA 00          0 21784 DEFB 00h
F1EB 00          0 21785 DEFB 00h
F1EC 00          0 21786 DEFB 00h
F1ED 00          0 21787 DEFB 00h
F1EE 00          0 21788 DEFB 00h
F1EF 00          0 21789 DEFB 00h
F1F0 00          0 21790 DEFB 00h
F1F1 00          0 21791 DEFB 00h
F1F2 00          0 21792 DEFB 00h
F1F3 00          0 21793 DEFB 00h
F1F4 00          0 21794 DEFB 00h
F1F5 00          0 21795 DEFB 00h
F1F6 00          0 21796 DEFB 00h
F1F7 00          0 21797 DEFB 00h
F1F8 00          0 21798 DEFB 00h
F1F9 00          0 21799 DEFB 00h
F1FA 00          0 21800 DEFB 00h
F1FB 00          0 21801 DEFB 00h
F1FC 00          0 21802 DEFB 00h
F1FD 00          0 21803 DEFB 00h
F1FE 00          0 21804 DEFB 00h
F1FF 00          0 21805 DEFB 00h
F200 00          0 21806 DEFB 00h
F201 00          0 21807 DEFB 00h
F202 00          0 21808 DEFB 00h
F203 00          0 21809 DEFB 00h
F204 00          0 21810 DEFB 00h
F205 00          0 21811 DEFB 00h
F206 00          0 21812 DEFB 00h
F207 00          0 21813 DEFB 00h
F208 00          0 21814 DEFB 00h
F209 00          0 21815 DEFB 00h
F20A 00          0 21816 DEFB 00h
F20B 00          0 21817 DEFB 00h
F20C 00          0 21818 DEFB 00h
F20D 00          0 21819 DEFB 00h
F20E 00          0 21820 DEFB 00h
F20F 00          0 21821 DEFB 00h
F210 00          0 21822 DEFB 00h
F211 00          0 21823 DEFB 00h
F212 00          0 21824 DEFB 00h
F213 00          0 21825 DEFB 00h
F214 00          0 21826 DEFB 00h
F215 00          0 21827 DEFB 00h
F216 00          0 21828 DEFB 00h
F217 00          0 21829 DEFB 00h
F218 00          0 21830 DEFB 00h
F219 00          0 21831 DEFB 00h
F21A 00          0 21832 DEFB 00h
F21B 00          0 21833 DEFB 00h
F21C 00          0 21834 DEFB 00h
F21D 00          0 21835 DEFB 00h
F21E 00          0 21836 DEFB 00h
F21F 00          0 21837 DEFB 00h
F220 00          0 21838 DEFB 00h
F221 00          0 21839 DEFB 00h
F222 00          0 21840 DEFB 00h
F223 00          0 21841 DEFB 00h
F224 00          0 21842 DEFB 00h
F225 00          0 21843 DEFB 00h
F226 00          0 21844 DEFB 00h
F227 00          0 21845 DEFB 00h
F228 00          0 21846 DEFB 00h
F229 00          0 21847 DEFB 00h
F22A 00          0 21848 DEFB 00h
F22B 00          0 21849 DEFB 00h
F22C 00          0 21850 DEFB 00h
F22D 00          0 21851 DEFB 00h
F22E 00          0 21852 DEFB 00h
F22F 00          0 21853 DEFB 00h
F230 00          0 21854 DEFB 00h
F231 00          0 21855 DEFB 00h
F232 00          0 21856 DEFB 00h
F233 00          0 21857 DEFB 00h
F234 00          0 21858 DEFB 00h
F235 00          0 21859 DEFB 00h
F236 00          0 21860 DEFB 00h
F237 00          0 21861 DEFB 00h
F238 00          0 21862 DEFB 00h
F239 00          0 21863 DEFB 00h
F23A 00          0 21864 DEFB 00h
F23B 00          0 21865 DEFB 00h
F23C 00          0 21866 DEFB 00h
F23D 00          0 21867 DEFB 00h
F23E 00          0 21868 DEFB 00h
F23F 00          0 21869 DEFB 00h
F240 00          0 21870 DEFB 00h
F241 00          0 21871 DEFB 00h
F242 00          0 21872 DEFB 00h
F243 00          0 21873 DEFB 00h
F244 00          0 21874 DEFB 00h
F245 00          0 21875 DEFB 00h
F246 00          0 21876 DEFB 00h
F247 00          0 21877 DEFB 00h
F248 00          0 21878 DEFB 00h
F249 00          0 21879 DEFB 00h
F24A 00          0 21880 DEFB 00h
F24B 00          0 21881 DEFB 00h
F24C 00          0 21882 DEFB 00h
F24D 00          0 21883 DEFB 00h
F24E 00          0 21884 DEFB 00h
F24F 00          0 21885 DEFB 00h
F250 00          0 21886 DEFB 00h
F251 00          0 21887 DEFB 00h
F252 00          0 21888 DEFB 00h
F253 00          0 21889 DEFB 00h
F254 00          0 21890 DEFB 00h
F255 00          0 21891 DEFB 00h
F256 00          0 21892 DEFB 00h
F257 00          0 21893 DEFB 00h
F258 00          0 21894 DEFB 00h
F259 00          0 21895 DEFB 00h
F25A 00          0 21896 DEFB 00h
F25B 00          0 21897 DEFB 00h
F25C 00          0 21898 DEFB 00h
F25D 00          0 21899 DEFB 00h
F25E 00          0 21900 DEFB 00h
F25F 00          0 21901 DEFB 00h
F260 00          0 21902 DEFB 00h
F261 00          0 21903 DEFB 00h
F262 00          0 21904 DEFB 00h
F263 00          0 21905 DEFB 00h
F264 00          0 21906 DEFB 00h
F265 00          0 21907 DEFB 00h
F266 00          0 21908 DEFB 00h
F267 00          0 21909 DEFB 00h
F268 00          0 21910 DEFB 00h
F269 00          0 21911 DEFB 00h
F26A 00          0 21912 DEFB 00h
F26B 00          0 21913 DEFB 00h
F26C 00          0 21914 DEFB 00h
F26D 00          0 21915 DEFB 00h
F26E 00          0 21916 DEFB 00h
F26F 00          0 21917 DEFB 00h
F270 00          0 21918 DEFB 00h
F271 00          0 21919 DEFB 00h
F272 00          0 21920 DEFB 00h
F273 00          0 21921 DEFB 00h
F274 00          0 21922 DEFB 00h
F275 00          0 21923 DEFB 00h
F276 00          0 21924 DEFB 00h
F277 00          0 21925 DEFB 00h
F278 00          0 21926 DEFB 00h
F279 00          0 21927 DEFB 00h
F27A 00          0 21928 DEFB 00h
F27B 00          0 21929 DEFB 00h
F27C 00          0 21930 DEFB 00h
F27D 00          0 21931 DEFB 00h
F27E 00          0 21932 DEFB 00h
F27F 00          0 21933 DEFB 00h
F280 00          0 21934 DEFB 00h
F281 00          0 21935 DEFB 00h
F282 00          0 21936 DEFB 00h
F283 00          0 21937 DEFB 00h
F284 00          0 21938 DEFB 00h
F285 00          0 21939 DEFB 00h
F286 00          0 21940 DEFB 00h
F287 00          0 21941 DEFB 00h
F288 00          0 21942 DEFB 00h
F289 00          0 21943 DEFB 00h
F28A 00          0 21944 DEFB 00h
F28B 00          0 21945 DEFB 00h
F28C 00          0 21946 DEFB 00h
F28D 00          0 21947 DEFB 00h
F28E 00          0 21948 DEFB 00h
F28F 00          0 21949 DEFB 00h
F290 00          0 21950 DEFB 00h
F291 00          0 21951 DEFB 00h
F292 00          0 21952 DEFB 00h
F293 00          0 21953 DEFB 00h
F294 00          0 21954 DEFB 00h
F295 00          0 21955 DEFB 00h
F296 00          0 21956 DEFB 00h
F297 00          0 21957 DEFB 00h
F298 00          0 21958 DEFB 00h
F299 00          0 21959 DEFB 00h
F29A 00          0 21960 DEFB 00h
F29B 00          0 21961 DEFB 00h
F29C 00          0 21962 DEFB 00h
F29D 00          0 21963 DEFB 00h
F29E 00          0 21964 DEFB 00h
F29F 00          0 21965 DEFB 00h
F2A0 00          0 21966 DEFB 00h
F2A1 00          0 21967 DEFB 00h
F2A2 00          0 21968 DEFB 00h
F2A3 00          0 21969 DEFB 00h
F2A4 00          0 21970 DEFB 00h
F2A5 00          0 21971 DEFB 00h
F2A6 00          0 21972 DEFB 00h
F2A7 00          0 21973 DEFB 00h
F2A8 00          0 21974 DEFB 00h
F2A9 00          0 21975 DEFB 00h
F2AA 00          0 21976 DEFB 00h
F2AB 00          0 21977 DEFB 00h
F2AC 00          0 21978 DEFB 00h
F2AD 00          0 21979 DEFB 00h
F2AE 00          0 21980 DEFB 00h
F2AF 00          0 21981 DEFB 00h
F2B0 00          0 21982 DEFB 00h
F2B1 00          0 21983 DEFB 00h
F2B2 00          0 21984 DEFB 00h
F2B3 00          0 21985 DEFB 00h
F2B4 00          0 21986 DEFB 00h
F2B5 00          0 21987 DEFB 00h
F2B6 00          0 21988 DEFB 00h
F2B7 00          0 21989 DEFB 00h
F2B8 00          0 21990 DEFB 00h
F2B9 00          0 21991 DEFB 00h
F2BA 00          0 21992 DEFB 00h
F2BB 00          0 21993 DEFB 00h
F2BC 00          0 21994 DEFB 00h
F2BD 00          0 21995 DEFB 00h
F2BE 00          0 21996 DEFB 00h
F2BF 00          0 21997 DEFB 00h
F2C0 00          0 21998 DEFB 00h
F2C1 00          0 21999 DEFB 00h
F2C2 00          0 22000 DEFB 00h
F2C3 00          0 22001 DEFB 00h
F2C4 00          0 22002 DEFB 00h
F2C5 00          0 22003 DEFB 00h
F2C6 00          0 22004 DEFB 00h
F2C7 00          0 22005 DEFB 00h
F2C8 00          0 22006 DEFB 00h
F2C9 00          0 22007 DEFB 00h
F2CA 00          0 22008 DEFB 00h
F2CB 00          0 22009 DEFB 00h
F2CC 00          0 22010 DEFB 00h
F2CD 00          0 22011 DEFB 00h
F2CE 00          0 22012 DEFB 00h
F2CF 00          0 22013 DEFB 00h
F2D0 00          0 22014 DEFB 00h
F2D1 00          0 22015 DEFB 00h
F2D2 00          0 22016 DEFB 00h
F2D3 00          0 22017 DEFB 00h
F2D4 00          0 22018 DEFB 00h
F2D5 00          0 22019 DEFB 00h
F2D6 00          0 22020 DEFB 00h
F2D7 00          0 22021 DEFB 00h
F2D8 00          0 22022 DEFB 00h
F2D9 00          0 22023 DEFB 00h
F2DA 00          0 22024 DEFB 00h
F2DB 00          0 22025 DEFB 00h
F2DC 00          0 22026 DEFB 00h
F2DD 00          0 22027 DEFB 00h
F2DE 00          0 22028 DEFB 00h
F2DF 00          0 22029 DEFB 00h
F2E0 00          0 22030 DEFB 00h
F2E1 00          0 22031 DEFB 00h
F2E2 00          0 22032 DEFB 00h
F2E3 00          0 22033 DEFB 00h
F2E4 00          0 22034 DEFB 00h
F2E5 00          0 22035 DEFB 00h
F2E6 00          0 22036 DEFB 00h
F2E7 00          0 22037 DEFB 00h
F2E8 00          0 22038 DEFB 00h
F2E9 00          0 22039 DEFB 00h
F2EA 00          0 22040 DEFB 00h
F2EB 00          0 22041 DEFB 00h
F2EC 00          0 22042 DEFB 00h
F2ED 00          0 22043 DEFB 00h
F2EE 00          0 22044 DEFB 00h
F2EF 00          0 22045 DEFB 00h
F2F0 00          0 22046 DEFB 00h
F2F1 00          0 22047 DEFB 00h
F2F2 00          0 22048 DEFB 00h
F2F3 00          0 22049 DEFB 00h
F2F4 00          0 22050 DEFB 00h
F2F5 00          0 22051 DEFB 00h
F2F6 00          0 22052 DEFB 00h
F2F7 00          0 22053 DEFB 00h
F2F8 00          0 22054 DEFB 00h
F2F9 00          0 22055 DEFB 00h
F2FA 00          0 22056 DEFB 00h
F2FB 00          0 22057 DEFB 00h
F2FC 00          0 22058 DEFB 00h
F2FD 00          0 22059 DEFB 00h
F2FE 00          0 22060 DEFB 00h
F2FF 00          0 22061 DEFB 00h
F300 00          0 22062 DEFB 00h
F301 00          0 22063 DEFB 00h
F302 00          0 22064 DEFB 00h
F303 00          0 22065 DEFB 00h
F304 00          0 22066 DEFB 00h
F305 00          0 22067 DEFB 00h
F306 00          0 22068 DEFB 00h
F307 00          0 22069 DEFB 00h
F308 00          0 22070 DEFB 00h
F309 00          0 22071 DEFB 00h
F30A 00          0 22072 DEFB 00h
F30B 00          0 22073 DEFB 00h
F30C 00          0 22074 DEFB 00h
F30D 00          0 22075 DEFB 00h
F30E 00          0 22076 DEFB 00h
F30F 00          0 22077 DEFB 00h
F310 00          0 22078 DEFB 00h
F311 00          0 22079 DEFB 00h
F312 00          0 22080 DEFB 00h
F313 00          0 22081 DEFB 00h
F314 00          0 22082 DEFB 00h
F315 00          0 22083 DEFB 00h
F316 00          0 22084 DEFB 00h
F317 00          0 22085 DEFB 00h
F318 00          0 22086 DEFB 00h
F319 00          0 22087 DEFB 00h
F31A 00          0 22088 DEFB 00h
F31B 00          0 22089 DEFB 00h
F31C 00          0 22090 DEFB 00h
F31D 00          0 22091 DEFB 00h
F31E 00          0 22092 DEFB 00h
F31F 00          0 22093 DEFB 00h
F320 00          0 22094 DEFB 00h
F321 00          0 22095 DEFB 00h
F322 00          0 22096 DEFB 00h
F323 00          0 22097 DEFB 00h
F324 00          0 22098 DEFB 00h
F325 00          0 22099 DEFB 00h
F326 00          0 22100 DEFB 00h
F327 00          0 22101 DEFB 00h
F328 00          0 22102 DEFB 00h
F329 00          0 22103 DEFB 00h
F32A 00          0 22104 DEFB 00h
F32B 00          0 22105 DEFB 00h
F32C 00          0 22106 DEFB 00h
F32D 00          0 22107 DEFB 00h
F32E 00          0 22108 DEFB 00h
F32F 00          0 22109 DEFB 00h
F330 00          0 22110 DEFB 00h
F331 00          0 22111 DEFB 00h
F332 00          0 22112 DEFB 00h
F333 00          0 22113 DEFB 00h
F334 00          0 22114 DEFB 00h
F335 00          0 22115 DEFB 00h
F336 00          0 22116 DEFB 00h
F337 00          0 22117 DEFB 00h
F338 00          0 22118 DEFB 00h
F339 00          0 22119 DEFB 00h
F33A 00          0 22120 DEFB 00h
F33B 00          0 22121 DEFB 00h
F33C 00          0 22122 DEFB 00h
F33D 00          0 22123 DEFB 00h
F33E 00          0 22124 DEFB 00h
F33F 00          0 22125 DEFB 00h
F340 00          0 22126 DEFB 00h
F341 00          0 22127 DEFB 00h
F342 00          0 22128 DEFB 00h
F343 00          0 22129 DEFB 00h
F344 00          0 22130 DEFB 00h
F345 00          0 22131 DEFB 00h
F346 00          0 22132 DEFB 00h
F347 00          0 22133 DEFB 00h
F348 00          0 22134 DEFB 00h
F349 00          0 22135 DEFB 00h
F34A 00          0 22136 DEFB 00h
F34B 00          0 22137 DEFB 00h
F34C 00          0 22138 DEFB 00h
F34D 00          0 22139 DEFB 00h
F34E 00          0 22140 DEFB 00h
F34F 00          0 22141 DEFB 00h
F350 00          0 22142 DEFB 00h
F351 00          0 22143 DEFB 00h
F352 00          0 22144 DEFB 00h
F353 00          0 22145 DEFB 00h
F354 00          0 22146 DEFB 00h
F355 00          0 22147 DEFB 00h
F356 00          0 22148 DEFB 00h
F357 00          0 22149 DEFB 00h
F358 00          0 22150 DEFB 00h
F359 00          0 22151 DEFB 00h
F35A 00          0 22152 DEFB 00h
F35B 00          0 22153 DEFB 00h
F35C 00          0 22154 DEFB 00h
F35D 00          0 22155 DEFB 00h
F35E 00          0 22156 DEFB 00h
F35F 00          0 22157 DEFB 00h
F360 00          0 22158 DEFB 00h
F361 00          0 22159 DEFB 00h
F362 00          0 22160 DEFB 00h
F363 00          0 22161 DEFB 00h
F364 00          0 22162 DEFB 00h
F365 00          0 22163 DEFB 00h
F366 00          0 22164 DEFB 00h
F367 00          0 22165 DEFB 00h
F368 00          0 22166 DEFB 00h
F369 00          0 22167 DEFB 00h
F36A 00          0 22168 DEFB 00h
F36B 00          0 22169 DEFB 00h
F36C 00          0 22170 DEFB 00h
F36D 00          0 22171 DEFB 00h
F36E 00          0 22172 DEFB 00h
F36F 00          0 22173 DEFB 00h
F370 00          0 22174 DEFB 00h
F371 00          0 22175 DEFB 00h
F372 00          0 22176 DEFB 00h
F373 00          0 22177 DEFB 00h
F374 00          0 22178 DEFB 00h
F375 00          0 22179 DEFB 00h
F376 00          0 22180 DEFB 00h
F377 00          0 22181 DEFB 00h
F378 00          0 22182 DEFB 00h
F379 00          0 22183 DEFB 00h
F37A 00          0 22184 DEFB 00h
F37B 00          0 22185 DEFB 00h
F37C 00          0 22186 DEFB 00h
F37D 00          0 22187 DEFB 00h
F37E 00          0 22188 DEFB 00h
F37F 00          0 22189 DEFB 00h
F380 00          0 22190 DEFB 00h
F381 00          0 22191 DEFB 00h
F382 00          0 22192 DEFB 00h
F383 00          0 22193 DEFB 00h
F384 00          0 22194 DEFB 00h
F385 00          0 22195 DEFB 00h
F386 00          0 22196 DEFB 00h
F387 00          0 22197 DEFB 00h
F388 00          0 22198 DEFB 00h
F389 00          0 22199 DEFB 00h
F38A 00          0 22200 DEFB 00h
F38B 00          0 22201 DEFB 00h
F38C 00          0 22202 DEFB 00h
F38D 00          0 22203 DEFB 00h
F38E 00          0 22204 DEFB 00h
F38F 00          0 22205 DEFB 00h
F390 00          0 22206 DEFB 00h
F391 00          0 22207 DEFB 00h
F392 00          0 22208 DEFB 00h
F393 00          0 22209 DEFB 00h
F394 00          0 22210 DEFB 00h
F395 00          0 22211 DEFB 00h
F396 00          0 22212 DEFB 00h
F397 00          0 22213 DEFB 00h
F398 00          0 22214 DEFB 00h
F399 00          0 22215 DEFB 00h
F39A 00          0 22216 DEFB 00h
F39B 00          0 22217 DEFB 00h
F39C 00          0 22218 DEFB 00h
F39D 00          0 22219 DEFB 00h
F39E 00          0 22220 DEFB 00h
F39F 00          0 22221 DEFB 00h
F3A0 00          0 22222 DEFB 00h
F3A1 00          0 22223 DEFB 00h
F3A2 00          0 22224 DEFB 00h
F3A3 00          0 22225 DEFB 00h
F3A4 00          0 22226 DEFB 00h
F3A5 00          0 22227 DEFB 00h
F3A6 00          0 22228 DEFB 00h
F3A7 00          0 22229 DEFB 00h
F3A8 00          0 22230 DEFB 00h
F3A9 00          0 22231 DEFB 00h
F3AA 00          0 22232 DEFB 00h
F3AB 00          0 22233 DEFB 00h
F3AC 00          0 22234 DEFB 00h
F3AD 00          0 22235 DEFB 00h
F3AE 00          0 22236 DEFB 00h
F3AF 00          0 22237 DEFB 00h
F3B0 00          0 22238 DEFB 00h
F3B1 00          0 22239 DEFB 00h
F3B2 00          0 22240 DEFB 00h
F3B3 00          0 22241 DEFB 00h
F3B4 00          0 22242 DEFB 00h
F3B5 00          0 22243 DEFB 00h
F3B6 00          0 22244 DEFB 00h
F3B7 00          0 22245 DEFB 00h
F3B8 00          0 22246 DEFB 00h
F3B9 00          0 22247 DEFB 00h
F3BA 00          0 22248 DEFB 00h
F3BB 00          0 22249 DEFB 00h
F3BC 00          0 22250 DEFB 00h
F3BD 00          0 22251 DEFB 00h
F3BE 00          0 22252 DEFB 00h
F3BF 00          0 22253 DEFB 00h
F3C0 00          0 22254 DEFB 00h
F3C1 00          0 22255 DEFB 00h
F3C2 00          0 22256 DEFB 00h
F3C3 00          0 22257 DEFB 00h
F3C4 00          0 22258 DEFB 00h
F3C5 00          0 22259 DEFB 00h
F3C6 00          0 22260 DEFB 00h
F3C7 00          0 22261 DEFB 00h
F3C8 00          0 22262 DEFB 00h
F3C9 00          0 22263 DEFB 00h
F3CA 00          0 22264 DEFB 00h
F3CB 00          0 22265 DEFB 00h
F3CC 00          0 22266 DEFB 00h
F3CD 00          0 22267 DEFB 00h
F3CE 00          0 22268 DEFB 00h
F3CF 00          0 22269 DEFB 00h
F3D0 00          0 22270 DEFB 00h
F3D1 00          0 22271 DEFB 00h
F3D2 00          0 22272 DEFB 00h
F3D3 00          0 22273 DEFB 00h
F3D4 00          0 22274 DEFB 00h
F3D5 00          0 22275 DEFB 00h
F3D6 00          0 22276 DEFB 00h
F3D7 00          0 22277 DEFB 00h
F3D8 00          0 22278 DEFB 00h
F3D9 00          0 22279 DEFB 00h
F3DA 00          0 22280 DEFB 00h
F3DB 00          0 22281 DEFB 00h
F3DC 00          0 22282 DEFB 00h
F3DD 00          0 22283 DEFB 00h
F3DE 00          0 22284 DEFB 00h
F3DF 00          0 22285 DEFB 00h
F3E0 00          0 22286 DEFB 00h
F3E1 00          0 22287 DEFB 00h
F3E2 00          0 22288 DEFB 00h
F3E3 00          0 22289 DEFB 00h
F3E4 00          0 22290 DEFB 00h
F3E5 00          0 22291 DEFB 00h
F3E6 00          0 22292 DEFB 00h
F3E7 00          0 22293 DEFB 00h
F3E8 00          0 22294 DEFB 00h
F3E9 00          0 22295 DEFB 00h
F3EA 00          0 22296 DEFB 00h
F3EB 00          0 22297 DEFB 00h
F3EC 00          0 22298 DEFB 00h
F3ED 00          0 22299 DEFB 00h
F3EE 00          0 22300 DEFB 00h
F3EF 00          0 22301 DEFB 00h
F3F0 00          0 22302 DEFB 00h
F3F1 00          0 22303 DEFB 00h
F3F2 00          0 22304 DEFB 00h
F3F3 00          0 22305 DEFB 00h
F3F4 00          0 22306 DEFB 00h
F3F5 00          0 22307 DEFB 00h
F3F6 00          0 22308 DEFB 00h
F3F7 00          0 22309 DEFB 00h
F3F8 00          0 22310 DEFB 00h
F3F9 00          0 22311 DEFB 00h
F3FA 00          0 22312 DEFB 00h
F3FB 00          0 22313 DEFB 00h
F3FC 00          0 22314 DEFB 00h
F3FD 00          0 22315 DEFB 00h
F3FE 00          0 22316 DEFB 00h
F3FF 00          0 22317 DEFB 00h
F400 00          0 22318 DEFB 00h
F401 00          0 22319 DEFB 00h
F402 00          0 22320 DEFB 00h
F403 00          0 22321 DEFB 00h
F404 00          0 22322 DEFB 00h
F405 00          0 22323 DEFB 00h
F406 00          0 22324 DEFB 00h
F407 00          0 22325 DEFB 00h
F408 00          0 22326 DEFB 00h
F409 00          0 22327 DEFB 00h
F40A 00          0 22328 DEFB 00h
F40B 00          0 22329 DEFB 00h
F40C 00          0 22330 DEFB 00h
F40D 00          0 22331 DEFB 00h
F40E 00          0 22332 DEFB 00h
F40F 00          0 22333 DEFB 00h
F410 00          0 22334 DEFB 00h
F411 00          0 22335 DEFB 00h
F412 00          0 22336 DEFB 00h
F413 00          0 22337 DEFB 00h
F414 00          0 22338 DEFB 00h
F415 00          0 22339 DEFB 00h
F416 00          0 22340 DEFB 00h
F417 00          0 22341 DEFB 00h
F418 00          0 22342 DEFB 00h
F419 00          0 22343 DEFB 00h
F41A 00          0 22344 DEFB 00h
F41B 00          0 22345 DEFB 00h
F41C 00          0 22346 DEFB 00h
F41D 00          0 22347 DEFB 00h
F41E 00          0 22348 DEFB 00h
F41F 00          0 22349 DEFB 00h
F420 00          0 22350 DEFB 00h
F421 00          0 22351 DEFB 00h
F422 00          0 22352 DEFB 00h
F423 00          0 22353 DEFB 00h
F424 00          0 22354 DEFB 00h
F425 00          0 22355 DEFB 00h
F426 00          0 22356 DEFB 00h
F427 00          0 22357 DEFB 00h
F428 00          0 22358 DEFB 00h
F429 00          0 22359 DEFB 00h
F42A 00          0 22360 DEFB 00h
F42B 00          0 22361 DEFB 00h
F42C 00          0 22362 DEFB 00h
F42D 00          0 22363 DEFB 00h
F42E 00          0 22364 DEFB 00h
F42F 00          0 22365 DEFB 00h
F430 00          0 22366 DEFB 00h
F431 00          0 22367 DEFB 00h
F432 00          0 22368 DEFB 00h
F433 00          0 22369 DEFB 00h
F434 00          0 22370 DEFB 00h
F435 00          0 22371 DEFB 00h
F436 00          0 22372 DEFB 00h
F437 00          0 22373 DEFB 00h
F438 00          0 22374 DEFB 00h
F439 00          0 22375 DEFB 00h
F43A 00          0 22376 DEFB 00h
F43B 00          0 22377 DEFB 00h
F43C 00          0 22378 DEFB 00h
F43D 00          0 22379 DEFB 00h
F43E 00          0 22380 DEFB 00h
F43F 00          0 22381 DEFB 00h
F440 00          0 22382 DEFB 00h
F441 00          0 22383 DEFB 00h
F442 00          0 22384 DEFB 00h
F443 00          0 22385 DEFB 00h
F444 00          0 22386 DEFB 00h
F445 00          0 22387 DEFB 00h
F446 00          0 22388 DEFB 00h
F447 00          0 22389 DEFB 00h
F448 00          0 22390 DEFB 00h
F449 00          0 22391 DEFB 00h
F44A 00          0 22392 DEFB 00h
F44B 00          0 22393 DEFB 00h
F44C 00          0 22394 DEFB 00h
F44D 00          0 22395 DEFB 00h
F44E 00          0 22396 DEFB 00h
F44F 00          0 22397 DEFB 00h
F450 00          0 22398 DEFB 00h
F451 00          0 22399 DEFB 00h
F452 00          0 22400 DEFB 00h
F453 00          0 22401 DEFB 00h
F454 00          0 22402 DEFB 00h
F455 00          0 22403 DEFB 00h
F456 00          0 22404 DEFB 00h
F457 00          0 22405 DEFB 00h
F458 00          0 22406 DEFB 00h
F459 00          0 22407 DEFB 00h
F45A 00          0 22408 DEFB 00h
F45B 00          0 22409 DEFB 00h
F45C 00          0 22410 DEFB 00h
F45D 00          0 22411 DEFB 00h
F45E 00          0 22412 DEFB 00h
F45F 00          0 22413 DEFB 00h
F460 00          0 22414 DEFB 00h
F461 00          0 22415 DEFB 00h
F462 00          0 22416 DEFB 00h
F463 00          0 22417 DEFB 00h
F464 00          0 22418 DEFB 00h
F465 00          0 22419 DEFB 00h
F466 00          0 22420 DEFB 00h
F467 00          0 22421 DEFB 00h
F468 00          0 22422 DEFB 00h
F469 00          0 22423 DEFB 00h
F46A 00          0 22424 DEFB 00h
F46B 00          0 22425 DEFB 00h
F46C 00          0 22426 DEFB 00h
F46D 00          0 22427 DEFB 00h
F46E 00          0 22428 DEFB 00h
F46F 00          0 22429 DEFB 00h
F470 00          0 22430 DEFB 00h
F471 00          0 22431 DEFB 00h
F472 00          0 22432 DEFB 00h
F473             0 22433 __LABEL735:
F473 00 00       0 22434 DEFW 0000h
F475 02          0 22435 DEFB 02h
F476             0 22436 _tlc:
F476 82 F4       0 22437 DEFW __LABEL736
F478             0 22438 _tlc.__DATA__.__PTR__:
F478 7A F4       0 22439 DEFW _tlc.__DATA__
F47A             0 22440 _tlc.__DATA__:
F47A 3C          0 22441 DEFB 3Ch
F47B 42          0 22442 DEFB 42h
F47C A1          0 22443 DEFB 0A1h
F47D A1          0 22444 DEFB 0A1h
F47E A1          0 22445 DEFB 0A1h
F47F A1          0 22446 DEFB 0A1h
F480 A1          0 22447 DEFB 0A1h
F481 A1          0 22448 DEFB 0A1h
F482             0 22449 __LABEL736:
F482 00 00       0 22450 DEFW 0000h
F484 01          0 22451 DEFB 01h
F485             0 22452 _blc:
F485 91 F4       0 22453 DEFW __LABEL737
F487             0 22454 _blc.__DATA__.__PTR__:
F487 89 F4       0 22455 DEFW _blc.__DATA__
F489             0 22456 _blc.__DATA__:
F489 A1          0 22457 DEFB 0A1h
F48A A1          0 22458 DEFB 0A1h
F48B A1          0 22459 DEFB 0A1h
F48C A1          0 22460 DEFB 0A1h
F48D A1          0 22461 DEFB 0A1h
F48E A1          0 22462 DEFB 0A1h
F48F 42          0 22463 DEFB 42h
F490 3C          0 22464 DEFB 3Ch
F491             0 22465 __LABEL737:
F491 00 00       0 22466 DEFW 0000h
F493 01          0 22467 DEFB 01h
F494             0 22468 _mlor:
F494 A0 F4       0 22469 DEFW __LABEL738
F496             0 22470 _mlor.__DATA__.__PTR__:
F496 98 F4       0 22471 DEFW _mlor.__DATA__
F498             0 22472 _mlor.__DATA__:
F498 A1          0 22473 DEFB 0A1h
F499 A0          0 22474 DEFB 0A0h
F49A A0          0 22475 DEFB 0A0h
F49B A0          0 22476 DEFB 0A0h
F49C A0          0 22477 DEFB 0A0h
F49D A0          0 22478 DEFB 0A0h
F49E A0          0 22479 DEFB 0A0h
F49F A1          0 22480 DEFB 0A1h
F4A0             0 22481 __LABEL738:
F4A0 00 00       0 22482 DEFW 0000h
F4A2 01          0 22483 DEFB 01h
F4A3             0 22484 _mlol:
F4A3 AF F4       0 22485 DEFW __LABEL739
F4A5             0 22486 _mlol.__DATA__.__PTR__:
F4A5 A7 F4       0 22487 DEFW _mlol.__DATA__
F4A7             0 22488 _mlol.__DATA__:
F4A7 A1          0 22489 DEFB 0A1h
F4A8 21          0 22490 DEFB 21h
F4A9 21          0 22491 DEFB 21h
F4AA 21          0 22492 DEFB 21h
F4AB 21          0 22493 DEFB 21h
F4AC 21          0 22494 DEFB 21h
F4AD 21          0 22495 DEFB 21h
F4AE A1          0 22496 DEFB 0A1h
F4AF             0 22497 __LABEL739:
F4AF 00 00       0 22498 DEFW 0000h
F4B1 01          0 22499 DEFB 01h
F4B2             0 22500 _mlo:
F4B2 BE F4       0 22501 DEFW __LABEL740
F4B4             0 22502 _mlo.__DATA__.__PTR__:
F4B4 B6 F4       0 22503 DEFW _mlo.__DATA__
F4B6             0 22504 _mlo.__DATA__:
F4B6 FF          0 22505 DEFB 0FFh
F4B7 00          0 22506 DEFB 00h
F4B8 FF          0 22507 DEFB 0FFh
F4B9 00          0 22508 DEFB 00h
F4BA 00          0 22509 DEFB 00h
F4BB 00          0 22510 DEFB 00h
F4BC 00          0 22511 DEFB 00h
F4BD FF          0 22512 DEFB 0FFh
F4BE             0 22513 __LABEL740:
F4BE 00 00       0 22514 DEFW 0000h
F4C0 01          0 22515 DEFB 01h
F4C1             0 22516 _dot:
F4C1 CD F4       0 22517 DEFW __LABEL741
F4C3             0 22518 _dot.__DATA__.__PTR__:
F4C3 C5 F4       0 22519 DEFW _dot.__DATA__
F4C5             0 22520 _dot.__DATA__:
F4C5 00          0 22521 DEFB 00h
F4C6 00          0 22522 DEFB 00h
F4C7 18          0 22523 DEFB 18h
F4C8 24          0 22524 DEFB 24h
F4C9 5A          0 22525 DEFB 5Ah
F4CA 52          0 22526 DEFB 52h
F4CB 24          0 22527 DEFB 24h
F4CC 18          0 22528 DEFB 18h
F4CD             0 22529 __LABEL741:
F4CD 00 00       0 22530 DEFW 0000h
F4CF 01          0 22531 DEFB 01h
F4D0             0 22532 _tlcc:
F4D0 DC F4       0 22533 DEFW __LABEL742
F4D2             0 22534 _tlcc.__DATA__.__PTR__:
F4D2 D4 F4       0 22535 DEFW _tlcc.__DATA__
F4D4             0 22536 _tlcc.__DATA__:
F4D4 3F          0 22537 DEFB 3Fh
F4D5 40          0 22538 DEFB 40h
F4D6 80          0 22539 DEFB 80h
F4D7 A0          0 22540 DEFB 0A0h
F4D8 A0          0 22541 DEFB 0A0h
F4D9 A0          0 22542 DEFB 0A0h
F4DA A0          0 22543 DEFB 0A0h
F4DB A1          0 22544 DEFB 0A1h
F4DC             0 22545 __LABEL742:
F4DC 00 00       0 22546 DEFW 0000h
F4DE 01          0 22547 DEFB 01h
F4DF             0 22548 _blcc:
F4DF EB F4       0 22549 DEFW __LABEL743
F4E1             0 22550 _blcc.__DATA__.__PTR__:
F4E1 E3 F4       0 22551 DEFW _blcc.__DATA__
F4E3             0 22552 _blcc.__DATA__:
F4E3 A1          0 22553 DEFB 0A1h
F4E4 A0          0 22554 DEFB 0A0h
F4E5 A0          0 22555 DEFB 0A0h
F4E6 A0          0 22556 DEFB 0A0h
F4E7 A0          0 22557 DEFB 0A0h
F4E8 80          0 22558 DEFB 80h
F4E9 40          0 22559 DEFB 40h
F4EA 3F          0 22560 DEFB 3Fh
F4EB             0 22561 __LABEL743:
F4EB 00 00       0 22562 DEFW 0000h
F4ED 01          0 22563 DEFB 01h
F4EE             0 22564 _rec:
F4EE FA F4       0 22565 DEFW __LABEL744
F4F0             0 22566 _rec.__DATA__.__PTR__:
F4F0 F2 F4       0 22567 DEFW _rec.__DATA__
F4F2             0 22568 _rec.__DATA__:
F4F2 FC          0 22569 DEFB 0FCh
F4F3 02          0 22570 DEFB 02h
F4F4 F9          0 22571 DEFB 0F9h
F4F5 01          0 22572 DEFB 01h
F4F6 01          0 22573 DEFB 01h
F4F7 01          0 22574 DEFB 01h
F4F8 02          0 22575 DEFB 02h
F4F9 FC          0 22576 DEFB 0FCh
F4FA             0 22577 __LABEL744:
F4FA 00 00       0 22578 DEFW 0000h
F4FC 01          0 22579 DEFB 01h
F4FD             0 22580 _rct:
F4FD 09 F5       0 22581 DEFW __LABEL745
F4FF             0 22582 _rct.__DATA__.__PTR__:
F4FF 01 F5       0 22583 DEFW _rct.__DATA__
F501             0 22584 _rct.__DATA__:
F501 FC          0 22585 DEFB 0FCh
F502 02          0 22586 DEFB 02h
F503 F9          0 22587 DEFB 0F9h
F504 01          0 22588 DEFB 01h
F505 01          0 22589 DEFB 01h
F506 01          0 22590 DEFB 01h
F507 01          0 22591 DEFB 01h
F508 81          0 22592 DEFB 81h
F509             0 22593 __LABEL745:
F509 00 00       0 22594 DEFW 0000h
F50B 01          0 22595 DEFB 01h
F50C             0 22596 _rcbs:
F50C 18 F5       0 22597 DEFW __LABEL746
F50E             0 22598 _rcbs.__DATA__.__PTR__:
F50E 10 F5       0 22599 DEFW _rcbs.__DATA__
F510             0 22600 _rcbs.__DATA__:
F510 81          0 22601 DEFB 81h
F511 01          0 22602 DEFB 01h
F512 81          0 22603 DEFB 81h
F513 01          0 22604 DEFB 01h
F514 01          0 22605 DEFB 01h
F515 01          0 22606 DEFB 01h
F516 02          0 22607 DEFB 02h
F517 1C          0 22608 DEFB 1Ch
F518             0 22609 __LABEL746:
F518 00 00       0 22610 DEFW 0000h
F51A 01          0 22611 DEFB 01h
F51B             0 22612 _mlob:
F51B 27 F5       0 22613 DEFW __LABEL747
F51D             0 22614 _mlob.__DATA__.__PTR__:
F51D 1F F5       0 22615 DEFW _mlob.__DATA__
F51F             0 22616 _mlob.__DATA__:
F51F FF          0 22617 DEFB 0FFh
F520 00          0 22618 DEFB 00h
F521 FF          0 22619 DEFB 0FFh
F522 00          0 22620 DEFB 00h
F523 00          0 22621 DEFB 00h
F524 00          0 22622 DEFB 00h
F525 00          0 22623 DEFB 00h
F526 80          0 22624 DEFB 80h
F527             0 22625 __LABEL747:
F527 00 00       0 22626 DEFW 0000h
F529 01          0 22627 DEFB 01h
F52A             0 22628 _dgl:
F52A 36 F5       0 22629 DEFW __LABEL748
F52C             0 22630 _dgl.__DATA__.__PTR__:
F52C 2E F5       0 22631 DEFW _dgl.__DATA__
F52E             0 22632 _dgl.__DATA__:
F52E 60          0 22633 DEFB 60h
F52F 10          0 22634 DEFB 10h
F530 08          0 22635 DEFB 08h
F531 04          0 22636 DEFB 04h
F532 02          0 22637 DEFB 02h
F533 01          0 22638 DEFB 01h
F534 00          0 22639 DEFB 00h
F535 00          0 22640 DEFB 00h
F536             0 22641 __LABEL748:
F536 00 00       0 22642 DEFW 0000h
F538 01          0 22643 DEFB 01h
F539             0 22644 _dglc:
F539 45 F5       0 22645 DEFW __LABEL749
F53B             0 22646 _dglc.__DATA__.__PTR__:
F53B 3D F5       0 22647 DEFW _dglc.__DATA__
F53D             0 22648 _dglc.__DATA__:
F53D 10          0 22649 DEFB 10h
F53E 08          0 22650 DEFB 08h
F53F 04          0 22651 DEFB 04h
F540 02          0 22652 DEFB 02h
F541 01          0 22653 DEFB 01h
F542 01          0 22654 DEFB 01h
F543 82          0 22655 DEFB 82h
F544 7C          0 22656 DEFB 7Ch
F545             0 22657 __LABEL749:
F545 00 00       0 22658 DEFW 0000h
F547 01          0 22659 DEFB 01h
F548             0 22660 _mlc:
F548 54 F5       0 22661 DEFW __LABEL750
F54A             0 22662 _mlc.__DATA__.__PTR__:
F54A 4C F5       0 22663 DEFW _mlc.__DATA__
F54C             0 22664 _mlc.__DATA__:
F54C A1          0 22665 DEFB 0A1h
F54D A1          0 22666 DEFB 0A1h
F54E A1          0 22667 DEFB 0A1h
F54F A1          0 22668 DEFB 0A1h
F550 A1          0 22669 DEFB 0A1h
F551 A1          0 22670 DEFB 0A1h
F552 A1          0 22671 DEFB 0A1h
F553 A1          0 22672 DEFB 0A1h
F554             0 22673 __LABEL750:
F554 00 00       0 22674 DEFW 0000h
F556 01          0 22675 DEFB 01h
F557             0 22676 _rcb:
F557 63 F5       0 22677 DEFW __LABEL751
F559             0 22678 _rcb.__DATA__.__PTR__:
F559 5B F5       0 22679 DEFW _rcb.__DATA__
F55B             0 22680 _rcb.__DATA__:
F55B A1          0 22681 DEFB 0A1h
F55C 21          0 22682 DEFB 21h
F55D C1          0 22683 DEFB 0C1h
F55E 01          0 22684 DEFB 01h
F55F 01          0 22685 DEFB 01h
F560 01          0 22686 DEFB 01h
F561 02          0 22687 DEFB 02h
F562 FC          0 22688 DEFB 0FCh
F563             0 22689 __LABEL751:
F563 00 00       0 22690 DEFW 0000h
F565 01          0 22691 DEFB 01h
F566             0 22692 _energy:
F566 72 F5       0 22693 DEFW __LABEL752
F568             0 22694 _energy.__DATA__.__PTR__:
F568 6A F5       0 22695 DEFW _energy.__DATA__
F56A             0 22696 _energy.__DATA__:
F56A 7E          0 22697 DEFB 7Eh
F56B D5          0 22698 DEFB 0D5h
F56C AB          0 22699 DEFB 0ABh
F56D D5          0 22700 DEFB 0D5h
F56E AB          0 22701 DEFB 0ABh
F56F D5          0 22702 DEFB 0D5h
F570 AB          0 22703 DEFB 0ABh
F571 7E          0 22704 DEFB 7Eh
F572             0 22705 __LABEL752:
F572 00 00       0 22706 DEFW 0000h
F574 01          0 22707 DEFB 01h
F575             0 22708 _vampUp:
F575 81 F5       0 22709 DEFW __LABEL753
F577             0 22710 _vampUp.__DATA__.__PTR__:
F577 79 F5       0 22711 DEFW _vampUp.__DATA__
F579             0 22712 _vampUp.__DATA__:
F579 00          0 22713 DEFB 00h
F57A A5          0 22714 DEFB 0A5h
F57B DB          0 22715 DEFB 0DBh
F57C E7          0 22716 DEFB 0E7h
F57D FF          0 22717 DEFB 0FFh
F57E 7E          0 22718 DEFB 7Eh
F57F 18          0 22719 DEFB 18h
F580 00          0 22720 DEFB 00h
F581             0 22721 __LABEL753:
F581 00 00       0 22722 DEFW 0000h
F583 01          0 22723 DEFB 01h
F584             0 22724 _vampDown:
F584 90 F5       0 22725 DEFW __LABEL754
F586             0 22726 _vampDown.__DATA__.__PTR__:
F586 88 F5       0 22727 DEFW _vampDown.__DATA__
F588             0 22728 _vampDown.__DATA__:
F588 00          0 22729 DEFB 00h
F589 24          0 22730 DEFB 24h
F58A 5A          0 22731 DEFB 5Ah
F58B E7          0 22732 DEFB 0E7h
F58C FF          0 22733 DEFB 0FFh
F58D FF          0 22734 DEFB 0FFh
F58E 99          0 22735 DEFB 99h
F58F 00          0 22736 DEFB 00h
F590             0 22737 __LABEL754:
F590 00 00       0 22738 DEFW 0000h
F592 01          0 22739 DEFB 01h
F593             0 22740 _lampl:
F593 9F F5       0 22741 DEFW __LABEL755
F595             0 22742 _lampl.__DATA__.__PTR__:
F595 97 F5       0 22743 DEFW _lampl.__DATA__
F597             0 22744 _lampl.__DATA__:
F597 1F          0 22745 DEFB 1Fh
F598 18          0 22746 DEFB 18h
F599 7E          0 22747 DEFB 7Eh
F59A FF          0 22748 DEFB 0FFh
F59B 42          0 22749 DEFB 42h
F59C 7E          0 22750 DEFB 7Eh
F59D 24          0 22751 DEFB 24h
F59E 18          0 22752 DEFB 18h
F59F             0 22753 __LABEL755:
F59F 00 00       0 22754 DEFW 0000h
F5A1 01          0 22755 DEFB 01h
F5A2             0 22756 _lampr:
F5A2 AE F5       0 22757 DEFW __LABEL756
F5A4             0 22758 _lampr.__DATA__.__PTR__:
F5A4 A6 F5       0 22759 DEFW _lampr.__DATA__
F5A6             0 22760 _lampr.__DATA__:
F5A6 F8          0 22761 DEFB 0F8h
F5A7 18          0 22762 DEFB 18h
F5A8 7E          0 22763 DEFB 7Eh
F5A9 FF          0 22764 DEFB 0FFh
F5AA 42          0 22765 DEFB 42h
F5AB 7E          0 22766 DEFB 7Eh
F5AC 24          0 22767 DEFB 24h
F5AD 18          0 22768 DEFB 18h
F5AE             0 22769 __LABEL756:
F5AE 00 00       0 22770 DEFW 0000h
F5B0 01          0 22771 DEFB 01h
F5B1             0 22772 _spider:
F5B1 BD F5       0 22773 DEFW __LABEL757
F5B3             0 22774 _spider.__DATA__.__PTR__:
F5B3 B5 F5       0 22775 DEFW _spider.__DATA__
F5B5             0 22776 _spider.__DATA__:
F5B5 00          0 22777 DEFB 00h
F5B6 DB          0 22778 DEFB 0DBh
F5B7 3C          0 22779 DEFB 3Ch
F5B8 DB          0 22780 DEFB 0DBh
F5B9 3C          0 22781 DEFB 3Ch
F5BA 5A          0 22782 DEFB 5Ah
F5BB 42          0 22783 DEFB 42h
F5BC 00          0 22784 DEFB 00h
F5BD             0 22785 __LABEL757:
F5BD 00 00       0 22786 DEFW 0000h
F5BF 01          0 22787 DEFB 01h
F5C0             0 22788 _dynamite1:
F5C0 CC F5       0 22789 DEFW __LABEL758
F5C2             0 22790 _dynamite1.__DATA__.__PTR__:
F5C2 C4 F5       0 22791 DEFW _dynamite1.__DATA__
F5C4             0 22792 _dynamite1.__DATA__:
F5C4 28          0 22793 DEFB 28h
F5C5 10          0 22794 DEFB 10h
F5C6 08          0 22795 DEFB 08h
F5C7 3C          0 22796 DEFB 3Ch
F5C8 3C          0 22797 DEFB 3Ch
F5C9 3C          0 22798 DEFB 3Ch
F5CA 3C          0 22799 DEFB 3Ch
F5CB 3C          0 22800 DEFB 3Ch
F5CC             0 22801 __LABEL758:
F5CC 00 00       0 22802 DEFW 0000h
F5CE 01          0 22803 DEFB 01h
F5CF             0 22804 _dynamite2:
F5CF DB F5       0 22805 DEFW __LABEL759
F5D1             0 22806 _dynamite2.__DATA__.__PTR__:
F5D1 D3 F5       0 22807 DEFW _dynamite2.__DATA__
F5D3             0 22808 _dynamite2.__DATA__:
F5D3 14          0 22809 DEFB 14h
F5D4 08          0 22810 DEFB 08h
F5D5 10          0 22811 DEFB 10h
F5D6 3C          0 22812 DEFB 3Ch
F5D7 3C          0 22813 DEFB 3Ch
F5D8 3C          0 22814 DEFB 3Ch
F5D9 3C          0 22815 DEFB 3Ch
F5DA 3C          0 22816 DEFB 3Ch
F5DB             0 22817 __LABEL759:
F5DB 00 00       0 22818 DEFW 0000h
F5DD 01          0 22819 DEFB 01h
F5DE             0 22820 _skh1:
F5DE EA F5       0 22821 DEFW __LABEL760
F5E0             0 22822 _skh1.__DATA__.__PTR__:
F5E0 E2 F5       0 22823 DEFW _skh1.__DATA__
F5E2             0 22824 _skh1.__DATA__:
F5E2 00          0 22825 DEFB 00h
F5E3 06          0 22826 DEFB 06h
F5E4 AD          0 22827 DEFB 0ADh
F5E5 5B          0 22828 DEFB 5Bh
F5E6 08          0 22829 DEFB 08h
F5E7 06          0 22830 DEFB 06h
F5E8 00          0 22831 DEFB 00h
F5E9 00          0 22832 DEFB 00h
F5EA             0 22833 __LABEL760:
F5EA 00 00       0 22834 DEFW 0000h
F5EC 01          0 22835 DEFB 01h
F5ED             0 22836 _skh2:
F5ED F9 F5       0 22837 DEFW __LABEL761
F5EF             0 22838 _skh2.__DATA__.__PTR__:
F5EF F1 F5       0 22839 DEFW _skh2.__DATA__
F5F1             0 22840 _skh2.__DATA__:
F5F1 00          0 22841 DEFB 00h
F5F2 60          0 22842 DEFB 60h
F5F3 B5          0 22843 DEFB 0B5h
F5F4 DA          0 22844 DEFB 0DAh
F5F5 10          0 22845 DEFB 10h
F5F6 60          0 22846 DEFB 60h
F5F7 00          0 22847 DEFB 00h
F5F8 00          0 22848 DEFB 00h
F5F9             0 22849 __LABEL761:
F5F9 00 00       0 22850 DEFW 0000h
F5FB 01          0 22851 DEFB 01h
F5FC             0 22852 _skb:
F5FC 08 F6       0 22853 DEFW __LABEL762
F5FE             0 22854 _skb.__DATA__.__PTR__:
F5FE 00 F6       0 22855 DEFW _skb.__DATA__
F600             0 22856 _skb.__DATA__:
F600 00          0 22857 DEFB 00h
F601 CC          0 22858 DEFB 0CCh
F602 FF          0 22859 DEFB 0FFh
F603 FF          0 22860 DEFB 0FFh
F604 33          0 22861 DEFB 33h
F605 00          0 22862 DEFB 00h
F606 00          0 22863 DEFB 00h
F607 00          0 22864 DEFB 00h
F608             0 22865 __LABEL762:
F608 00 00       0 22866 DEFW 0000h
F60A 01          0 22867 DEFB 01h
F60B             0 22868 _bug1:
F60B 17 F6       0 22869 DEFW __LABEL763
F60D             0 22870 _bug1.__DATA__.__PTR__:
F60D 0F F6       0 22871 DEFW _bug1.__DATA__
F60F             0 22872 _bug1.__DATA__:
F60F 24          0 22873 DEFB 24h
F610 24          0 22874 DEFB 24h
F611 3C          0 22875 DEFB 3Ch
F612 C3          0 22876 DEFB 0C3h
F613 C3          0 22877 DEFB 0C3h
F614 3C          0 22878 DEFB 3Ch
F615 24          0 22879 DEFB 24h
F616 24          0 22880 DEFB 24h
F617             0 22881 __LABEL763:
F617 00 00       0 22882 DEFW 0000h
F619 01          0 22883 DEFB 01h
F61A             0 22884 _bug2:
F61A 26 F6       0 22885 DEFW __LABEL764
F61C             0 22886 _bug2.__DATA__.__PTR__:
F61C 1E F6       0 22887 DEFW _bug2.__DATA__
F61E             0 22888 _bug2.__DATA__:
F61E 00          0 22889 DEFB 00h
F61F C3          0 22890 DEFB 0C3h
F620 3C          0 22891 DEFB 3Ch
F621 C3          0 22892 DEFB 0C3h
F622 C3          0 22893 DEFB 0C3h
F623 3C          0 22894 DEFB 3Ch
F624 C3          0 22895 DEFB 0C3h
F625 00          0 22896 DEFB 00h
F626             0 22897 __LABEL764:
F626 00 00       0 22898 DEFW 0000h
F628 01          0 22899 DEFB 01h
F629             0 22900 _crock1:
F629 35 F6       0 22901 DEFW __LABEL765
F62B             0 22902 _crock1.__DATA__.__PTR__:
F62B 2D F6       0 22903 DEFW _crock1.__DATA__
F62D             0 22904 _crock1.__DATA__:
F62D 00          0 22905 DEFB 00h
F62E 00          0 22906 DEFB 00h
F62F 00          0 22907 DEFB 00h
F630 00          0 22908 DEFB 00h
F631 00          0 22909 DEFB 00h
F632 60          0 22910 DEFB 60h
F633 D0          0 22911 DEFB 0D0h
F634 FE          0 22912 DEFB 0FEh
F635             0 22913 __LABEL765:
F635 00 00       0 22914 DEFW 0000h
F637 01          0 22915 DEFB 01h
F638             0 22916 _crock2:
F638 44 F6       0 22917 DEFW __LABEL766
F63A             0 22918 _crock2.__DATA__.__PTR__:
F63A 3C F6       0 22919 DEFW _crock2.__DATA__
F63C             0 22920 _crock2.__DATA__:
F63C 00          0 22921 DEFB 00h
F63D 00          0 22922 DEFB 00h
F63E 00          0 22923 DEFB 00h
F63F 61          0 22924 DEFB 61h
F640 D6          0 22925 DEFB 0D6h
F641 F8          0 22926 DEFB 0F8h
F642 F0          0 22927 DEFB 0F0h
F643 7F          0 22928 DEFB 7Fh
F644             0 22929 __LABEL766:
F644 00 00       0 22930 DEFW 0000h
F646 01          0 22931 DEFB 01h
F647             0 22932 _walll:
F647 53 F6       0 22933 DEFW __LABEL767
F649             0 22934 _walll.__DATA__.__PTR__:
F649 4B F6       0 22935 DEFW _walll.__DATA__
F64B             0 22936 _walll.__DATA__:
F64B FD          0 22937 DEFB 0FDh
F64C FA          0 22938 DEFB 0FAh
F64D FD          0 22939 DEFB 0FDh
F64E F9          0 22940 DEFB 0F9h
F64F FE          0 22941 DEFB 0FEh
F650 FD          0 22942 DEFB 0FDh
F651 FA          0 22943 DEFB 0FAh
F652 FE          0 22944 DEFB 0FEh
F653             0 22945 __LABEL767:
F653 00 00       0 22946 DEFW 0000h
F655 01          0 22947 DEFB 01h
F656             0 22948 _wallr:
F656 62 F6       0 22949 DEFW __LABEL768
F658             0 22950 _wallr.__DATA__.__PTR__:
F658 5A F6       0 22951 DEFW _wallr.__DATA__
F65A             0 22952 _wallr.__DATA__:
F65A BF          0 22953 DEFB 0BFh
F65B 5F          0 22954 DEFB 5Fh
F65C BF          0 22955 DEFB 0BFh
F65D 9F          0 22956 DEFB 9Fh
F65E 7F          0 22957 DEFB 7Fh
F65F BF          0 22958 DEFB 0BFh
F660 5F          0 22959 DEFB 5Fh
F661 7F          0 22960 DEFB 7Fh
F662             0 22961 __LABEL768:
F662 00 00       0 22962 DEFW 0000h
F664 01          0 22963 DEFB 01h
F665             0 22964 _wallb:
F665 71 F6       0 22965 DEFW __LABEL769
F667             0 22966 _wallb.__DATA__.__PTR__:
F667 69 F6       0 22967 DEFW _wallb.__DATA__
F669             0 22968 _wallb.__DATA__:
F669 2D          0 22969 DEFB 2Dh
F66A D2          0 22970 DEFB 0D2h
F66B B5          0 22971 DEFB 0B5h
F66C FF          0 22972 DEFB 0FFh
F66D FF          0 22973 DEFB 0FFh
F66E FF          0 22974 DEFB 0FFh
F66F FF          0 22975 DEFB 0FFh
F670 FF          0 22976 DEFB 0FFh
F671             0 22977 __LABEL769:
F671 00 00       0 22978 DEFW 0000h
F673 01          0 22979 DEFB 01h
F674             0 22980 _wallt:
F674 80 F6       0 22981 DEFW __LABEL770
F676             0 22982 _wallt.__DATA__.__PTR__:
F676 78 F6       0 22983 DEFW _wallt.__DATA__
F678             0 22984 _wallt.__DATA__:
F678 FF          0 22985 DEFB 0FFh
F679 FF          0 22986 DEFB 0FFh
F67A FF          0 22987 DEFB 0FFh
F67B FF          0 22988 DEFB 0FFh
F67C FF          0 22989 DEFB 0FFh
F67D B5          0 22990 DEFB 0B5h
F67E D2          0 22991 DEFB 0D2h
F67F 2D          0 22992 DEFB 2Dh
F680             0 22993 __LABEL770:
F680 00 00       0 22994 DEFW 0000h
F682 01          0 22995 DEFB 01h
F683             0 22996 _walltr:
F683 8F F6       0 22997 DEFW __LABEL771
F685             0 22998 _walltr.__DATA__.__PTR__:
F685 87 F6       0 22999 DEFW _walltr.__DATA__
F687             0 23000 _walltr.__DATA__:
F687 B5          0 23001 DEFB 0B5h
F688 4A          0 23002 DEFB 4Ah
F689 AF          0 23003 DEFB 0AFh
F68A FA          0 23004 DEFB 0FAh
F68B FE          0 23005 DEFB 0FEh
F68C FD          0 23006 DEFB 0FDh
F68D FA          0 23007 DEFB 0FAh
F68E FD          0 23008 DEFB 0FDh
F68F             0 23009 __LABEL771:
F68F 00 00       0 23010 DEFW 0000h
F691 01          0 23011 DEFB 01h
F692             0 23012 _walltl:
F692 9E F6       0 23013 DEFW __LABEL772
F694             0 23014 _walltl.__DATA__.__PTR__:
F694 96 F6       0 23015 DEFW _walltl.__DATA__
F696             0 23016 _walltl.__DATA__:
F696 AD          0 23017 DEFB 0ADh
F697 52          0 23018 DEFB 52h
F698 F5          0 23019 DEFB 0F5h
F699 5F          0 23020 DEFB 5Fh
F69A 7F          0 23021 DEFB 7Fh
F69B BF          0 23022 DEFB 0BFh
F69C 5F          0 23023 DEFB 5Fh
F69D BF          0 23024 DEFB 0BFh
F69E             0 23025 __LABEL772:
F69E 00 00       0 23026 DEFW 0000h
F6A0 01          0 23027 DEFB 01h
F6A1             0 23028 _wallbr:
F6A1 AD F6       0 23029 DEFW __LABEL773
F6A3             0 23030 _wallbr.__DATA__.__PTR__:
F6A3 A5 F6       0 23031 DEFW _wallbr.__DATA__
F6A5             0 23032 _wallbr.__DATA__:
F6A5 FD          0 23033 DEFB 0FDh
F6A6 FA          0 23034 DEFB 0FAh
F6A7 FD          0 23035 DEFB 0FDh
F6A8 FE          0 23036 DEFB 0FEh
F6A9 FA          0 23037 DEFB 0FAh
F6AA AF          0 23038 DEFB 0AFh
F6AB 4A          0 23039 DEFB 4Ah
F6AC B5          0 23040 DEFB 0B5h
F6AD             0 23041 __LABEL773:
F6AD 00 00       0 23042 DEFW 0000h
F6AF 01          0 23043 DEFB 01h
F6B0             0 23044 _wallbl:
F6B0 BC F6       0 23045 DEFW __LABEL774
F6B2             0 23046 _wallbl.__DATA__.__PTR__:
F6B2 B4 F6       0 23047 DEFW _wallbl.__DATA__
F6B4             0 23048 _wallbl.__DATA__:
F6B4 BF          0 23049 DEFB 0BFh
F6B5 5F          0 23050 DEFB 5Fh
F6B6 BF          0 23051 DEFB 0BFh
F6B7 7F          0 23052 DEFB 7Fh
F6B8 5F          0 23053 DEFB 5Fh
F6B9 F5          0 23054 DEFB 0F5h
F6BA 52          0 23055 DEFB 52h
F6BB AD          0 23056 DEFB 0ADh
F6BC             0 23057 __LABEL774:
F6BC 00 00       0 23058 DEFW 0000h
F6BE 01          0 23059 DEFB 01h
F6BF             0 23060 _singleWallV:
F6BF CB F6       0 23061 DEFW __LABEL775
F6C1             0 23062 _singleWallV.__DATA__.__PTR__:
F6C1 C3 F6       0 23063 DEFW _singleWallV.__DATA__
F6C3             0 23064 _singleWallV.__DATA__:
F6C3 BE          0 23065 DEFB 0BEh
F6C4 5D          0 23066 DEFB 5Dh
F6C5 BD          0 23067 DEFB 0BDh
F6C6 7E          0 23068 DEFB 7Eh
F6C7 9E          0 23069 DEFB 9Eh
F6C8 BD          0 23070 DEFB 0BDh
F6C9 5E          0 23071 DEFB 5Eh
F6CA BD          0 23072 DEFB 0BDh
F6CB             0 23073 __LABEL775:
F6CB 00 00       0 23074 DEFW 0000h
F6CD 01          0 23075 DEFB 01h
F6CE             0 23076 _singleWallH:
F6CE DA F6       0 23077 DEFW __LABEL776
F6D0             0 23078 _singleWallH.__DATA__.__PTR__:
F6D0 D2 F6       0 23079 DEFW _singleWallH.__DATA__
F6D2             0 23080 _singleWallH.__DATA__:
F6D2 B5          0 23081 DEFB 0B5h
F6D3 4A          0 23082 DEFB 4Ah
F6D4 AD          0 23083 DEFB 0ADh
F6D5 FF          0 23084 DEFB 0FFh
F6D6 FF          0 23085 DEFB 0FFh
F6D7 FF          0 23086 DEFB 0FFh
F6D8 59          0 23087 DEFB 59h
F6D9 A6          0 23088 DEFB 0A6h
F6DA             0 23089 __LABEL776:
F6DA 00 00       0 23090 DEFW 0000h
F6DC 01          0 23091 DEFB 01h
F6DD             0 23092 _destructibleWallV:
F6DD E9 F6       0 23093 DEFW __LABEL777
F6DF             0 23094 _destructibleWallV.__DATA__.__PTR__:
F6DF E1 F6       0 23095 DEFW _destructibleWallV.__DATA__
F6E1             0 23096 _destructibleWallV.__DATA__:
F6E1 DB          0 23097 DEFB 0DBh
F6E2 BD          0 23098 DEFB 0BDh
F6E3 DB          0 23099 DEFB 0DBh
F6E4 BD          0 23100 DEFB 0BDh
F6E5 DB          0 23101 DEFB 0DBh
F6E6 BD          0 23102 DEFB 0BDh
F6E7 DB          0 23103 DEFB 0DBh
F6E8 BD          0 23104 DEFB 0BDh
F6E9             0 23105 __LABEL777:
F6E9 00 00       0 23106 DEFW 0000h
F6EB 01          0 23107 DEFB 01h
F6EC             0 23108 _destructibleWallH:
F6EC F8 F6       0 23109 DEFW __LABEL778
F6EE             0 23110 _destructibleWallH.__DATA__.__PTR__:
F6EE F0 F6       0 23111 DEFW _destructibleWallH.__DATA__
F6F0             0 23112 _destructibleWallH.__DATA__:
F6F0 FF          0 23113 DEFB 0FFh
F6F1 55          0 23114 DEFB 55h
F6F2 AA          0 23115 DEFB 0AAh
F6F3 FF          0 23116 DEFB 0FFh
F6F4 FF          0 23117 DEFB 0FFh
F6F5 AA          0 23118 DEFB 0AAh
F6F6 55          0 23119 DEFB 55h
F6F7 FF          0 23120 DEFB 0FFh
F6F8             0 23121 __LABEL778:
F6F8 00 00       0 23122 DEFW 0000h
F6FA 01          0 23123 DEFB 01h
F6FB             0 23124 _rockT:
F6FB 07 F7       0 23125 DEFW __LABEL779
F6FD             0 23126 _rockT.__DATA__.__PTR__:
F6FD FF F6       0 23127 DEFW _rockT.__DATA__
F6FF             0 23128 _rockT.__DATA__:
F6FF B5          0 23129 DEFB 0B5h
F700 6A          0 23130 DEFB 6Ah
F701 BD          0 23131 DEFB 0BDh
F702 79          0 23132 DEFB 79h
F703 7E          0 23133 DEFB 7Eh
F704 BD          0 23134 DEFB 0BDh
F705 FF          0 23135 DEFB 0FFh
F706 FF          0 23136 DEFB 0FFh
F707             0 23137 __LABEL779:
F707 00 00       0 23138 DEFW 0000h
F709 01          0 23139 DEFB 01h
F70A             0 23140 _rockB:
F70A 16 F7       0 23141 DEFW __LABEL780
F70C             0 23142 _rockB.__DATA__.__PTR__:
F70C 0E F7       0 23143 DEFW _rockB.__DATA__
F70E             0 23144 _rockB.__DATA__:
F70E FF          0 23145 DEFB 0FFh
F70F FF          0 23146 DEFB 0FFh
F710 BD          0 23147 DEFB 0BDh
F711 7E          0 23148 DEFB 7Eh
F712 9E          0 23149 DEFB 9Eh
F713 BD          0 23150 DEFB 0BDh
F714 56          0 23151 DEFB 56h
F715 AD          0 23152 DEFB 0ADh
F716             0 23153 __LABEL780:
F716 00 00       0 23154 DEFW 0000h
F718 01          0 23155 DEFB 01h
F719             0 23156 _rockL:
F719 25 F7       0 23157 DEFW __LABEL781
F71B             0 23158 _rockL.__DATA__.__PTR__:
F71B 1D F7       0 23159 DEFW _rockL.__DATA__
F71D             0 23160 _rockL.__DATA__:
F71D B7          0 23161 DEFB 0B7h
F71E 4B          0 23162 DEFB 4Bh
F71F AF          0 23163 DEFB 0AFh
F720 7F          0 23164 DEFB 7Fh
F721 BF          0 23165 DEFB 0BFh
F722 FF          0 23166 DEFB 0FFh
F723 5B          0 23167 DEFB 5Bh
F724 A7          0 23168 DEFB 0A7h
F725             0 23169 __LABEL781:
F725 00 00       0 23170 DEFW 0000h
F727 01          0 23171 DEFB 01h
F728             0 23172 _rockR:
F728 34 F7       0 23173 DEFW __LABEL782
F72A             0 23174 _rockR.__DATA__.__PTR__:
F72A 2C F7       0 23175 DEFW _rockR.__DATA__
F72C             0 23176 _rockR.__DATA__:
F72C E5          0 23177 DEFB 0E5h
F72D DA          0 23178 DEFB 0DAh
F72E FF          0 23179 DEFB 0FFh
F72F FD          0 23180 DEFB 0FDh
F730 FE          0 23181 DEFB 0FEh
F731 F5          0 23182 DEFB 0F5h
F732 D2          0 23183 DEFB 0D2h
F733 ED          0 23184 DEFB 0EDh
F734             0 23185 __LABEL782:
F734 00 00       0 23186 DEFW 0000h
F736 01          0 23187 DEFB 01h
F737             0 23188 _fly1:
F737 43 F7       0 23189 DEFW __LABEL783
F739             0 23190 _fly1.__DATA__.__PTR__:
F739 3B F7       0 23191 DEFW _fly1.__DATA__
F73B             0 23192 _fly1.__DATA__:
F73B 00          0 23193 DEFB 00h
F73C 42          0 23194 DEFB 42h
F73D BD          0 23195 DEFB 0BDh
F73E BD          0 23196 DEFB 0BDh
F73F A5          0 23197 DEFB 0A5h
F740 5A          0 23198 DEFB 5Ah
F741 00          0 23199 DEFB 00h
F742 00          0 23200 DEFB 00h
F743             0 23201 __LABEL783:
F743 00 00       0 23202 DEFW 0000h
F745 01          0 23203 DEFB 01h
F746             0 23204 _fly2:
F746 52 F7       0 23205 DEFW __LABEL784
F748             0 23206 _fly2.__DATA__.__PTR__:
F748 4A F7       0 23207 DEFW _fly2.__DATA__
F74A             0 23208 _fly2.__DATA__:
F74A 00          0 23209 DEFB 00h
F74B 00          0 23210 DEFB 00h
F74C 5A          0 23211 DEFB 5Ah
F74D BD          0 23212 DEFB 0BDh
F74E A5          0 23213 DEFB 0A5h
F74F BD          0 23214 DEFB 0BDh
F750 42          0 23215 DEFB 42h
F751 00          0 23216 DEFB 00h
F752             0 23217 __LABEL784:
F752 00 00       0 23218 DEFW 0000h
F754 01          0 23219 DEFB 01h
F755             0 23220 _crab1:
F755 61 F7       0 23221 DEFW __LABEL785
F757             0 23222 _crab1.__DATA__.__PTR__:
F757 59 F7       0 23223 DEFW _crab1.__DATA__
F759             0 23224 _crab1.__DATA__:
F759 60          0 23225 DEFB 60h
F75A A6          0 23226 DEFB 0A6h
F75B C5          0 23227 DEFB 0C5h
F75C BF          0 23228 DEFB 0BFh
F75D 7D          0 23229 DEFB 7Dh
F75E 5A          0 23230 DEFB 5Ah
F75F 3C          0 23231 DEFB 3Ch
F760 5A          0 23232 DEFB 5Ah
F761             0 23233 __LABEL785:
F761 00 00       0 23234 DEFW 0000h
F763 01          0 23235 DEFB 01h
F764             0 23236 _crab2:
F764 70 F7       0 23237 DEFW __LABEL786
F766             0 23238 _crab2.__DATA__.__PTR__:
F766 68 F7       0 23239 DEFW _crab2.__DATA__
F768             0 23240 _crab2.__DATA__:
F768 06          0 23241 DEFB 06h
F769 65          0 23242 DEFB 65h
F76A A3          0 23243 DEFB 0A3h
F76B FD          0 23244 DEFB 0FDh
F76C BE          0 23245 DEFB 0BEh
F76D 5A          0 23246 DEFB 5Ah
F76E 3C          0 23247 DEFB 3Ch
F76F 24          0 23248 DEFB 24h
F770             0 23249 __LABEL786:
F770 00 00       0 23250 DEFW 0000h
F772 01          0 23251 DEFB 01h
F773             0 23252 _solid:
F773 7F F7       0 23253 DEFW __LABEL787
F775             0 23254 _solid.__DATA__.__PTR__:
F775 77 F7       0 23255 DEFW _solid.__DATA__
F777             0 23256 _solid.__DATA__:
F777 FF          0 23257 DEFB 0FFh
F778 FF          0 23258 DEFB 0FFh
F779 FF          0 23259 DEFB 0FFh
F77A FF          0 23260 DEFB 0FFh
F77B FF          0 23261 DEFB 0FFh
F77C FF          0 23262 DEFB 0FFh
F77D FF          0 23263 DEFB 0FFh
F77E FF          0 23264 DEFB 0FFh
F77F             0 23265 __LABEL787:
F77F 00 00       0 23266 DEFW 0000h
F781 01          0 23267 DEFB 01h
F782             0 23268 _empty:
F782 8E F7       0 23269 DEFW __LABEL788
F784             0 23270 _empty.__DATA__.__PTR__:
F784 86 F7       0 23271 DEFW _empty.__DATA__
F786             0 23272 _empty.__DATA__:
F786 00          0 23273 DEFB 00h
F787 00          0 23274 DEFB 00h
F788 00          0 23275 DEFB 00h
F789 00          0 23276 DEFB 00h
F78A 00          0 23277 DEFB 00h
F78B 00          0 23278 DEFB 00h
F78C 00          0 23279 DEFB 00h
F78D 00          0 23280 DEFB 00h
F78E             0 23281 __LABEL788:
F78E 00 00       0 23282 DEFW 0000h
F790 01          0 23283 DEFB 01h
F791             0 23284 _water:
F791 9D F7       0 23285 DEFW __LABEL789
F793             0 23286 _water.__DATA__.__PTR__:
F793 95 F7       0 23287 DEFW _water.__DATA__
F795             0 23288 _water.__DATA__:
F795 33          0 23289 DEFB 33h
F796 CC          0 23290 DEFB 0CCh
F797 33          0 23291 DEFB 33h
F798 CC          0 23292 DEFB 0CCh
F799 33          0 23293 DEFB 33h
F79A CC          0 23294 DEFB 0CCh
F79B 33          0 23295 DEFB 33h
F79C CC          0 23296 DEFB 0CCh
F79D             0 23297 __LABEL789:
F79D 00 00       0 23298 DEFW 0000h
F79F 01          0 23299 DEFB 01h
F7A0             0 23300 _head1r:
F7A0 AC F7       0 23301 DEFW __LABEL790
F7A2             0 23302 _head1r.__DATA__.__PTR__:
F7A2 A4 F7       0 23303 DEFW _head1r.__DATA__
F7A4             0 23304 _head1r.__DATA__:
F7A4 FF          0 23305 DEFB 0FFh
F7A5 18          0 23306 DEFB 18h
F7A6 3C          0 23307 DEFB 3Ch
F7A7 72          0 23308 DEFB 72h
F7A8 7E          0 23309 DEFB 7Eh
F7A9 3C          0 23310 DEFB 3Ch
F7AA 98          0 23311 DEFB 98h
F7AB BC          0 23312 DEFB 0BCh
F7AC             0 23313 __LABEL790:
F7AC 00 00       0 23314 DEFW 0000h
F7AE 01          0 23315 DEFB 01h
F7AF             0 23316 _head2r:
F7AF BB F7       0 23317 DEFW __LABEL791
F7B1             0 23318 _head2r.__DATA__.__PTR__:
F7B1 B3 F7       0 23319 DEFW _head2r.__DATA__
F7B3             0 23320 _head2r.__DATA__:
F7B3 18          0 23321 DEFB 18h
F7B4 18          0 23322 DEFB 18h
F7B5 3C          0 23323 DEFB 3Ch
F7B6 72          0 23324 DEFB 72h
F7B7 7E          0 23325 DEFB 7Eh
F7B8 3C          0 23326 DEFB 3Ch
F7B9 98          0 23327 DEFB 98h
F7BA BC          0 23328 DEFB 0BCh
F7BB             0 23329 __LABEL791:
F7BB 00 00       0 23330 DEFW 0000h
F7BD 01          0 23331 DEFB 01h
F7BE             0 23332 _body1r:
F7BE CA F7       0 23333 DEFW __LABEL792
F7C0             0 23334 _body1r.__DATA__.__PTR__:
F7C0 C2 F7       0 23335 DEFW _body1r.__DATA__
F7C2             0 23336 _body1r.__DATA__:
F7C2 FF          0 23337 DEFB 0FFh
F7C3 7E          0 23338 DEFB 7Eh
F7C4 7C          0 23339 DEFB 7Ch
F7C5 3C          0 23340 DEFB 3Ch
F7C6 18          0 23341 DEFB 18h
F7C7 18          0 23342 DEFB 18h
F7C8 18          0 23343 DEFB 18h
F7C9 1C          0 23344 DEFB 1Ch
F7CA             0 23345 __LABEL792:
F7CA 00 00       0 23346 DEFW 0000h
F7CC 01          0 23347 DEFB 01h
F7CD             0 23348 _body2r:
F7CD D9 F7       0 23349 DEFW __LABEL793
F7CF             0 23350 _body2r.__DATA__.__PTR__:
F7CF D1 F7       0 23351 DEFW _body2r.__DATA__
F7D1             0 23352 _body2r.__DATA__:
F7D1 FF          0 23353 DEFB 0FFh
F7D2 7E          0 23354 DEFB 7Eh
F7D3 7C          0 23355 DEFB 7Ch
F7D4 3C          0 23356 DEFB 3Ch
F7D5 18          0 23357 DEFB 18h
F7D6 78          0 23358 DEFB 78h
F7D7 40          0 23359 DEFB 40h
F7D8 00          0 23360 DEFB 00h
F7D9             0 23361 __LABEL793:
F7D9 00 00       0 23362 DEFW 0000h
F7DB 01          0 23363 DEFB 01h
F7DC             0 23364 _head1l:
F7DC E8 F7       0 23365 DEFW __LABEL794
F7DE             0 23366 _head1l.__DATA__.__PTR__:
F7DE E0 F7       0 23367 DEFW _head1l.__DATA__
F7E0             0 23368 _head1l.__DATA__:
F7E0 FF          0 23369 DEFB 0FFh
F7E1 18          0 23370 DEFB 18h
F7E2 3C          0 23371 DEFB 3Ch
F7E3 4E          0 23372 DEFB 4Eh
F7E4 7E          0 23373 DEFB 7Eh
F7E5 3C          0 23374 DEFB 3Ch
F7E6 19          0 23375 DEFB 19h
F7E7 3D          0 23376 DEFB 3Dh
F7E8             0 23377 __LABEL794:
F7E8 00 00       0 23378 DEFW 0000h
F7EA 01          0 23379 DEFB 01h
F7EB             0 23380 _head2l:
F7EB F7 F7       0 23381 DEFW __LABEL795
F7ED             0 23382 _head2l.__DATA__.__PTR__:
F7ED EF F7       0 23383 DEFW _head2l.__DATA__
F7EF             0 23384 _head2l.__DATA__:
F7EF 18          0 23385 DEFB 18h
F7F0 18          0 23386 DEFB 18h
F7F1 3C          0 23387 DEFB 3Ch
F7F2 4E          0 23388 DEFB 4Eh
F7F3 7E          0 23389 DEFB 7Eh
F7F4 3C          0 23390 DEFB 3Ch
F7F5 19          0 23391 DEFB 19h
F7F6 3D          0 23392 DEFB 3Dh
F7F7             0 23393 __LABEL795:
F7F7 00 00       0 23394 DEFW 0000h
F7F9 01          0 23395 DEFB 01h
F7FA             0 23396 _body1l:
F7FA 06 F8       0 23397 DEFW __LABEL796
F7FC             0 23398 _body1l.__DATA__.__PTR__:
F7FC FE F7       0 23399 DEFW _body1l.__DATA__
F7FE             0 23400 _body1l.__DATA__:
F7FE FF          0 23401 DEFB 0FFh
F7FF 7E          0 23402 DEFB 7Eh
F800 3E          0 23403 DEFB 3Eh
F801 3C          0 23404 DEFB 3Ch
F802 18          0 23405 DEFB 18h
F803 18          0 23406 DEFB 18h
F804 18          0 23407 DEFB 18h
F805 38          0 23408 DEFB 38h
F806             0 23409 __LABEL796:
F806 00 00       0 23410 DEFW 0000h
F808 01          0 23411 DEFB 01h
F809             0 23412 _body2l:
F809 15 F8       0 23413 DEFW __LABEL797
F80B             0 23414 _body2l.__DATA__.__PTR__:
F80B 0D F8       0 23415 DEFW _body2l.__DATA__
F80D             0 23416 _body2l.__DATA__:
F80D FF          0 23417 DEFB 0FFh
F80E 7E          0 23418 DEFB 7Eh
F80F 3E          0 23419 DEFB 3Eh
F810 3C          0 23420 DEFB 3Ch
F811 18          0 23421 DEFB 18h
F812 1E          0 23422 DEFB 1Eh
F813 02          0 23423 DEFB 02h
F814 00          0 23424 DEFB 00h
F815             0 23425 __LABEL797:
F815 00 00       0 23426 DEFW 0000h
F817 01          0 23427 DEFB 01h
F818             0 23428 _death1u:
F818 24 F8       0 23429 DEFW __LABEL798
F81A             0 23430 _death1u.__DATA__.__PTR__:
F81A 1C F8       0 23431 DEFW _death1u.__DATA__
F81C             0 23432 _death1u.__DATA__:
F81C 81          0 23433 DEFB 81h
F81D 42          0 23434 DEFB 42h
F81E 24          0 23435 DEFB 24h
F81F 81          0 23436 DEFB 81h
F820 5A          0 23437 DEFB 5Ah
F821 3C          0 23438 DEFB 3Ch
F822 FF          0 23439 DEFB 0FFh
F823 7E          0 23440 DEFB 7Eh
F824             0 23441 __LABEL798:
F824 00 00       0 23442 DEFW 0000h
F826 01          0 23443 DEFB 01h
F827             0 23444 _death1d:
F827 33 F8       0 23445 DEFW __LABEL799
F829             0 23446 _death1d.__DATA__.__PTR__:
F829 2B F8       0 23447 DEFW _death1d.__DATA__
F82B             0 23448 _death1d.__DATA__:
F82B 7E          0 23449 DEFB 7Eh
F82C FF          0 23450 DEFB 0FFh
F82D 3C          0 23451 DEFB 3Ch
F82E 5A          0 23452 DEFB 5Ah
F82F 81          0 23453 DEFB 81h
F830 24          0 23454 DEFB 24h
F831 42          0 23455 DEFB 42h
F832 81          0 23456 DEFB 81h
F833             0 23457 __LABEL799:
F833 00 00       0 23458 DEFW 0000h
F835 01          0 23459 DEFB 01h
F836             0 23460 _death2u:
F836 42 F8       0 23461 DEFW __LABEL800
F838             0 23462 _death2u.__DATA__.__PTR__:
F838 3A F8       0 23463 DEFW _death2u.__DATA__
F83A             0 23464 _death2u.__DATA__:
F83A 00          0 23465 DEFB 00h
F83B 42          0 23466 DEFB 42h
F83C 24          0 23467 DEFB 24h
F83D 18          0 23468 DEFB 18h
F83E 42          0 23469 DEFB 42h
F83F 24          0 23470 DEFB 24h
F840 00          0 23471 DEFB 00h
F841 66          0 23472 DEFB 66h
F842             0 23473 __LABEL800:
F842 00 00       0 23474 DEFW 0000h
F844 01          0 23475 DEFB 01h
F845             0 23476 _death2d:
F845 51 F8       0 23477 DEFW __LABEL801
F847             0 23478 _death2d.__DATA__.__PTR__:
F847 49 F8       0 23479 DEFW _death2d.__DATA__
F849             0 23480 _death2d.__DATA__:
F849 66          0 23481 DEFB 66h
F84A 00          0 23482 DEFB 00h
F84B 24          0 23483 DEFB 24h
F84C 42          0 23484 DEFB 42h
F84D 18          0 23485 DEFB 18h
F84E 24          0 23486 DEFB 24h
F84F 42          0 23487 DEFB 42h
F850 00          0 23488 DEFB 00h
F851             0 23489 __LABEL801:
F851 00 00       0 23490 DEFW 0000h
F853 01          0 23491 DEFB 01h
F854             0 23492 _skull:
F854 60 F8       0 23493 DEFW __LABEL802
F856             0 23494 _skull.__DATA__.__PTR__:
F856 58 F8       0 23495 DEFW _skull.__DATA__
F858             0 23496 _skull.__DATA__:
F858 7E          0 23497 DEFB 7Eh
F859 FF          0 23498 DEFB 0FFh
F85A 99          0 23499 DEFB 99h
F85B 99          0 23500 DEFB 99h
F85C E7          0 23501 DEFB 0E7h
F85D 7E          0 23502 DEFB 7Eh
F85E 42          0 23503 DEFB 42h
F85F 3C          0 23504 DEFB 3Ch
F860             0 23505 __LABEL802:
F860 00 00       0 23506 DEFW 0000h
F862 01          0 23507 DEFB 01h
F863             0 23508 _outWall:
F863 6F F8       0 23509 DEFW __LABEL803
F865             0 23510 _outWall.__DATA__.__PTR__:
F865 67 F8       0 23511 DEFW _outWall.__DATA__
F867             0 23512 _outWall.__DATA__:
F867 CC          0 23513 DEFB 0CCh
F868 55          0 23514 DEFB 55h
F869 AA          0 23515 DEFB 0AAh
F86A AA          0 23516 DEFB 0AAh
F86B 55          0 23517 DEFB 55h
F86C 55          0 23518 DEFB 55h
F86D AA          0 23519 DEFB 0AAh
F86E 33          0 23520 DEFB 33h
F86F             0 23521 __LABEL803:
F86F 00 00       0 23522 DEFW 0000h
F871 01          0 23523 DEFB 01h
F872             0 23524 _personT:
F872 7E F8       0 23525 DEFW __LABEL804
F874             0 23526 _personT.__DATA__.__PTR__:
F874 76 F8       0 23527 DEFW _personT.__DATA__
F876             0 23528 _personT.__DATA__:
F876 3E          0 23529 DEFB 3Eh
F877 49          0 23530 DEFB 49h
F878 5D          0 23531 DEFB 5Dh
F879 49          0 23532 DEFB 49h
F87A 32          0 23533 DEFB 32h
F87B 0C          0 23534 DEFB 0Ch
F87C 68          0 23535 DEFB 68h
F87D F0          0 23536 DEFB 0F0h
F87E             0 23537 __LABEL804:
F87E 00 00       0 23538 DEFW 0000h
F880 01          0 23539 DEFB 01h
F881             0 23540 _personB:
F881 8D F8       0 23541 DEFW __LABEL805
F883             0 23542 _personB.__DATA__.__PTR__:
F883 85 F8       0 23543 DEFW _personB.__DATA__
F885             0 23544 _personB.__DATA__:
F885 D0          0 23545 DEFB 0D0h
F886 F0          0 23546 DEFB 0F0h
F887 60          0 23547 DEFB 60h
F888 F0          0 23548 DEFB 0F0h
F889 B0          0 23549 DEFB 0B0h
F88A BC          0 23550 DEFB 0BCh
F88B D6          0 23551 DEFB 0D6h
F88C 63          0 23552 DEFB 63h
F88D             0 23553 __LABEL805:
F88D 00 00       0 23554 DEFW 0000h
F88F 01          0 23555 DEFB 01h
F890             0 23556 _shot:
F890 9C F8       0 23557 DEFW __LABEL806
F892             0 23558 _shot.__DATA__.__PTR__:
F892 94 F8       0 23559 DEFW _shot.__DATA__
F894             0 23560 _shot.__DATA__:
F894 00          0 23561 DEFB 00h
F895 00          0 23562 DEFB 00h
F896 00          0 23563 DEFB 00h
F897 00          0 23564 DEFB 00h
F898 6A          0 23565 DEFB 6Ah
F899 00          0 23566 DEFB 00h
F89A 00          0 23567 DEFB 00h
F89B 00          0 23568 DEFB 00h
F89C             0 23569 __LABEL806:
F89C 00 00       0 23570 DEFW 0000h
F89E 01          0 23571 DEFB 01h
F89F             0 23572 _solidMap:
F89F 23 FA       0 23573 DEFW __LABEL807
F8A1             0 23574 _solidMap.__DATA__.__PTR__:
F8A1 A3 F8       0 23575 DEFW _solidMap.__DATA__
F8A3             0 23576 _solidMap.__DATA__:
F8A3 00          0 23577 DEFB 00h
F8A4 00          0 23578 DEFB 00h
F8A5 00          0 23579 DEFB 00h
F8A6 00          0 23580 DEFB 00h
F8A7 00          0 23581 DEFB 00h
F8A8 00          0 23582 DEFB 00h
F8A9 00          0 23583 DEFB 00h
F8AA 00          0 23584 DEFB 00h
F8AB 00          0 23585 DEFB 00h
F8AC 00          0 23586 DEFB 00h
F8AD 00          0 23587 DEFB 00h
F8AE 00          0 23588 DEFB 00h
F8AF 00          0 23589 DEFB 00h
F8B0 00          0 23590 DEFB 00h
F8B1 00          0 23591 DEFB 00h
F8B2 00          0 23592 DEFB 00h
F8B3 00          0 23593 DEFB 00h
F8B4 00          0 23594 DEFB 00h
F8B5 00          0 23595 DEFB 00h
F8B6 00          0 23596 DEFB 00h
F8B7 00          0 23597 DEFB 00h
F8B8 00          0 23598 DEFB 00h
F8B9 00          0 23599 DEFB 00h
F8BA 00          0 23600 DEFB 00h
F8BB 00          0 23601 DEFB 00h
F8BC 00          0 23602 DEFB 00h
F8BD 00          0 23603 DEFB 00h
F8BE 00          0 23604 DEFB 00h
F8BF 00          0 23605 DEFB 00h
F8C0 00          0 23606 DEFB 00h
F8C1 00          0 23607 DEFB 00h
F8C2 00          0 23608 DEFB 00h
F8C3 00          0 23609 DEFB 00h
F8C4 00          0 23610 DEFB 00h
F8C5 00          0 23611 DEFB 00h
F8C6 00          0 23612 DEFB 00h
F8C7 00          0 23613 DEFB 00h
F8C8 00          0 23614 DEFB 00h
F8C9 00          0 23615 DEFB 00h
F8CA 00          0 23616 DEFB 00h
F8CB 00          0 23617 DEFB 00h
F8CC 00          0 23618 DEFB 00h
F8CD 00          0 23619 DEFB 00h
F8CE 00          0 23620 DEFB 00h
F8CF 00          0 23621 DEFB 00h
F8D0 00          0 23622 DEFB 00h
F8D1 00          0 23623 DEFB 00h
F8D2 00          0 23624 DEFB 00h
F8D3 00          0 23625 DEFB 00h
F8D4 00          0 23626 DEFB 00h
F8D5 00          0 23627 DEFB 00h
F8D6 00          0 23628 DEFB 00h
F8D7 00          0 23629 DEFB 00h
F8D8 00          0 23630 DEFB 00h
F8D9 00          0 23631 DEFB 00h
F8DA 00          0 23632 DEFB 00h
F8DB 00          0 23633 DEFB 00h
F8DC 00          0 23634 DEFB 00h
F8DD 00          0 23635 DEFB 00h
F8DE 00          0 23636 DEFB 00h
F8DF 00          0 23637 DEFB 00h
F8E0 00          0 23638 DEFB 00h
F8E1 00          0 23639 DEFB 00h
F8E2 00          0 23640 DEFB 00h
F8E3 00          0 23641 DEFB 00h
F8E4 00          0 23642 DEFB 00h
F8E5 00          0 23643 DEFB 00h
F8E6 00          0 23644 DEFB 00h
F8E7 00          0 23645 DEFB 00h
F8E8 00          0 23646 DEFB 00h
F8E9 00          0 23647 DEFB 00h
F8EA 00          0 23648 DEFB 00h
F8EB 00          0 23649 DEFB 00h
F8EC 00          0 23650 DEFB 00h
F8ED 00          0 23651 DEFB 00h
F8EE 00          0 23652 DEFB 00h
F8EF 00          0 23653 DEFB 00h
F8F0 00          0 23654 DEFB 00h
F8F1 00          0 23655 DEFB 00h
F8F2 00          0 23656 DEFB 00h
F8F3 00          0 23657 DEFB 00h
F8F4 00          0 23658 DEFB 00h
F8F5 00          0 23659 DEFB 00h
F8F6 00          0 23660 DEFB 00h
F8F7 00          0 23661 DEFB 00h
F8F8 00          0 23662 DEFB 00h
F8F9 00          0 23663 DEFB 00h
F8FA 00          0 23664 DEFB 00h
F8FB 00          0 23665 DEFB 00h
F8FC 00          0 23666 DEFB 00h
F8FD 00          0 23667 DEFB 00h
F8FE 00          0 23668 DEFB 00h
F8FF 00          0 23669 DEFB 00h
F900 00          0 23670 DEFB 00h
F901 00          0 23671 DEFB 00h
F902 00          0 23672 DEFB 00h
F903 00          0 23673 DEFB 00h
F904 00          0 23674 DEFB 00h
F905 00          0 23675 DEFB 00h
F906 00          0 23676 DEFB 00h
F907 00          0 23677 DEFB 00h
F908 00          0 23678 DEFB 00h
F909 00          0 23679 DEFB 00h
F90A 00          0 23680 DEFB 00h
F90B 00          0 23681 DEFB 00h
F90C 00          0 23682 DEFB 00h
F90D 00          0 23683 DEFB 00h
F90E 00          0 23684 DEFB 00h
F90F 00          0 23685 DEFB 00h
F910 00          0 23686 DEFB 00h
F911 00          0 23687 DEFB 00h
F912 00          0 23688 DEFB 00h
F913 00          0 23689 DEFB 00h
F914 00          0 23690 DEFB 00h
F915 00          0 23691 DEFB 00h
F916 00          0 23692 DEFB 00h
F917 00          0 23693 DEFB 00h
F918 00          0 23694 DEFB 00h
F919 00          0 23695 DEFB 00h
F91A 00          0 23696 DEFB 00h
F91B 00          0 23697 DEFB 00h
F91C 00          0 23698 DEFB 00h
F91D 00          0 23699 DEFB 00h
F91E 00          0 23700 DEFB 00h
F91F 00          0 23701 DEFB 00h
F920 00          0 23702 DEFB 00h
F921 00          0 23703 DEFB 00h
F922 00          0 23704 DEFB 00h
F923 00          0 23705 DEFB 00h
F924 00          0 23706 DEFB 00h
F925 00          0 23707 DEFB 00h
F926 00          0 23708 DEFB 00h
F927 00          0 23709 DEFB 00h
F928 00          0 23710 DEFB 00h
F929 00          0 23711 DEFB 00h
F92A 00          0 23712 DEFB 00h
F92B 00          0 23713 DEFB 00h
F92C 00          0 23714 DEFB 00h
F92D 00          0 23715 DEFB 00h
F92E 00          0 23716 DEFB 00h
F92F 00          0 23717 DEFB 00h
F930 00          0 23718 DEFB 00h
F931 00          0 23719 DEFB 00h
F932 00          0 23720 DEFB 00h
F933 00          0 23721 DEFB 00h
F934 00          0 23722 DEFB 00h
F935 00          0 23723 DEFB 00h
F936 00          0 23724 DEFB 00h
F937 00          0 23725 DEFB 00h
F938 00          0 23726 DEFB 00h
F939 00          0 23727 DEFB 00h
F93A 00          0 23728 DEFB 00h
F93B 00          0 23729 DEFB 00h
F93C 00          0 23730 DEFB 00h
F93D 00          0 23731 DEFB 00h
F93E 00          0 23732 DEFB 00h
F93F 00          0 23733 DEFB 00h
F940 00          0 23734 DEFB 00h
F941 00          0 23735 DEFB 00h
F942 00          0 23736 DEFB 00h
F943 00          0 23737 DEFB 00h
F944 00          0 23738 DEFB 00h
F945 00          0 23739 DEFB 00h
F946 00          0 23740 DEFB 00h
F947 00          0 23741 DEFB 00h
F948 00          0 23742 DEFB 00h
F949 00          0 23743 DEFB 00h
F94A 00          0 23744 DEFB 00h
F94B 00          0 23745 DEFB 00h
F94C 00          0 23746 DEFB 00h
F94D 00          0 23747 DEFB 00h
F94E 00          0 23748 DEFB 00h
F94F 00          0 23749 DEFB 00h
F950 00          0 23750 DEFB 00h
F951 00          0 23751 DEFB 00h
F952 00          0 23752 DEFB 00h
F953 00          0 23753 DEFB 00h
F954 00          0 23754 DEFB 00h
F955 00          0 23755 DEFB 00h
F956 00          0 23756 DEFB 00h
F957 00          0 23757 DEFB 00h
F958 00          0 23758 DEFB 00h
F959 00          0 23759 DEFB 00h
F95A 00          0 23760 DEFB 00h
F95B 00          0 23761 DEFB 00h
F95C 00          0 23762 DEFB 00h
F95D 00          0 23763 DEFB 00h
F95E 00          0 23764 DEFB 00h
F95F 00          0 23765 DEFB 00h
F960 00          0 23766 DEFB 00h
F961 00          0 23767 DEFB 00h
F962 00          0 23768 DEFB 00h
F963 00          0 23769 DEFB 00h
F964 00          0 23770 DEFB 00h
F965 00          0 23771 DEFB 00h
F966 00          0 23772 DEFB 00h
F967 00          0 23773 DEFB 00h
F968 00          0 23774 DEFB 00h
F969 00          0 23775 DEFB 00h
F96A 00          0 23776 DEFB 00h
F96B 00          0 23777 DEFB 00h
F96C 00          0 23778 DEFB 00h
F96D 00          0 23779 DEFB 00h
F96E 00          0 23780 DEFB 00h
F96F 00          0 23781 DEFB 00h
F970 00          0 23782 DEFB 00h
F971 00          0 23783 DEFB 00h
F972 00          0 23784 DEFB 00h
F973 00          0 23785 DEFB 00h
F974 00          0 23786 DEFB 00h
F975 00          0 23787 DEFB 00h
F976 00          0 23788 DEFB 00h
F977 00          0 23789 DEFB 00h
F978 00          0 23790 DEFB 00h
F979 00          0 23791 DEFB 00h
F97A 00          0 23792 DEFB 00h
F97B 00          0 23793 DEFB 00h
F97C 00          0 23794 DEFB 00h
F97D 00          0 23795 DEFB 00h
F97E 00          0 23796 DEFB 00h
F97F 00          0 23797 DEFB 00h
F980 00          0 23798 DEFB 00h
F981 00          0 23799 DEFB 00h
F982 00          0 23800 DEFB 00h
F983 00          0 23801 DEFB 00h
F984 00          0 23802 DEFB 00h
F985 00          0 23803 DEFB 00h
F986 00          0 23804 DEFB 00h
F987 00          0 23805 DEFB 00h
F988 00          0 23806 DEFB 00h
F989 00          0 23807 DEFB 00h
F98A 00          0 23808 DEFB 00h
F98B 00          0 23809 DEFB 00h
F98C 00          0 23810 DEFB 00h
F98D 00          0 23811 DEFB 00h
F98E 00          0 23812 DEFB 00h
F98F 00          0 23813 DEFB 00h
F990 00          0 23814 DEFB 00h
F991 00          0 23815 DEFB 00h
F992 00          0 23816 DEFB 00h
F993 00          0 23817 DEFB 00h
F994 00          0 23818 DEFB 00h
F995 00          0 23819 DEFB 00h
F996 00          0 23820 DEFB 00h
F997 00          0 23821 DEFB 00h
F998 00          0 23822 DEFB 00h
F999 00          0 23823 DEFB 00h
F99A 00          0 23824 DEFB 00h
F99B 00          0 23825 DEFB 00h
F99C 00          0 23826 DEFB 00h
F99D 00          0 23827 DEFB 00h
F99E 00          0 23828 DEFB 00h
F99F 00          0 23829 DEFB 00h
F9A0 00          0 23830 DEFB 00h
F9A1 00          0 23831 DEFB 00h
F9A2 00          0 23832 DEFB 00h
F9A3 00          0 23833 DEFB 00h
F9A4 00          0 23834 DEFB 00h
F9A5 00          0 23835 DEFB 00h
F9A6 00          0 23836 DEFB 00h
F9A7 00          0 23837 DEFB 00h
F9A8 00          0 23838 DEFB 00h
F9A9 00          0 23839 DEFB 00h
F9AA 00          0 23840 DEFB 00h
F9AB 00          0 23841 DEFB 00h
F9AC 00          0 23842 DEFB 00h
F9AD 00          0 23843 DEFB 00h
F9AE 00          0 23844 DEFB 00h
F9AF 00          0 23845 DEFB 00h
F9B0 00          0 23846 DEFB 00h
F9B1 00          0 23847 DEFB 00h
F9B2 00          0 23848 DEFB 00h
F9B3 00          0 23849 DEFB 00h
F9B4 00          0 23850 DEFB 00h
F9B5 00          0 23851 DEFB 00h
F9B6 00          0 23852 DEFB 00h
F9B7 00          0 23853 DEFB 00h
F9B8 00          0 23854 DEFB 00h
F9B9 00          0 23855 DEFB 00h
F9BA 00          0 23856 DEFB 00h
F9BB 00          0 23857 DEFB 00h
F9BC 00          0 23858 DEFB 00h
F9BD 00          0 23859 DEFB 00h
F9BE 00          0 23860 DEFB 00h
F9BF 00          0 23861 DEFB 00h
F9C0 00          0 23862 DEFB 00h
F9C1 00          0 23863 DEFB 00h
F9C2 00          0 23864 DEFB 00h
F9C3 00          0 23865 DEFB 00h
F9C4 00          0 23866 DEFB 00h
F9C5 00          0 23867 DEFB 00h
F9C6 00          0 23868 DEFB 00h
F9C7 00          0 23869 DEFB 00h
F9C8 00          0 23870 DEFB 00h
F9C9 00          0 23871 DEFB 00h
F9CA 00          0 23872 DEFB 00h
F9CB 00          0 23873 DEFB 00h
F9CC 00          0 23874 DEFB 00h
F9CD 00          0 23875 DEFB 00h
F9CE 00          0 23876 DEFB 00h
F9CF 00          0 23877 DEFB 00h
F9D0 00          0 23878 DEFB 00h
F9D1 00          0 23879 DEFB 00h
F9D2 00          0 23880 DEFB 00h
F9D3 00          0 23881 DEFB 00h
F9D4 00          0 23882 DEFB 00h
F9D5 00          0 23883 DEFB 00h
F9D6 00          0 23884 DEFB 00h
F9D7 00          0 23885 DEFB 00h
F9D8 00          0 23886 DEFB 00h
F9D9 00          0 23887 DEFB 00h
F9DA 00          0 23888 DEFB 00h
F9DB 00          0 23889 DEFB 00h
F9DC 00          0 23890 DEFB 00h
F9DD 00          0 23891 DEFB 00h
F9DE 00          0 23892 DEFB 00h
F9DF 00          0 23893 DEFB 00h
F9E0 00          0 23894 DEFB 00h
F9E1 00          0 23895 DEFB 00h
F9E2 00          0 23896 DEFB 00h
F9E3 00          0 23897 DEFB 00h
F9E4 00          0 23898 DEFB 00h
F9E5 00          0 23899 DEFB 00h
F9E6 00          0 23900 DEFB 00h
F9E7 00          0 23901 DEFB 00h
F9E8 00          0 23902 DEFB 00h
F9E9 00          0 23903 DEFB 00h
F9EA 00          0 23904 DEFB 00h
F9EB 00          0 23905 DEFB 00h
F9EC 00          0 23906 DEFB 00h
F9ED 00          0 23907 DEFB 00h
F9EE 00          0 23908 DEFB 00h
F9EF 00          0 23909 DEFB 00h
F9F0 00          0 23910 DEFB 00h
F9F1 00          0 23911 DEFB 00h
F9F2 00          0 23912 DEFB 00h
F9F3 00          0 23913 DEFB 00h
F9F4 00          0 23914 DEFB 00h
F9F5 00          0 23915 DEFB 00h
F9F6 00          0 23916 DEFB 00h
F9F7 00          0 23917 DEFB 00h
F9F8 00          0 23918 DEFB 00h
F9F9 00          0 23919 DEFB 00h
F9FA 00          0 23920 DEFB 00h
F9FB 00          0 23921 DEFB 00h
F9FC 00          0 23922 DEFB 00h
F9FD 00          0 23923 DEFB 00h
F9FE 00          0 23924 DEFB 00h
F9FF 00          0 23925 DEFB 00h
FA00 00          0 23926 DEFB 00h
FA01 00          0 23927 DEFB 00h
FA02 00          0 23928 DEFB 00h
FA03 00          0 23929 DEFB 00h
FA04 00          0 23930 DEFB 00h
FA05 00          0 23931 DEFB 00h
FA06 00          0 23932 DEFB 00h
FA07 00          0 23933 DEFB 00h
FA08 00          0 23934 DEFB 00h
FA09 00          0 23935 DEFB 00h
FA0A 00          0 23936 DEFB 00h
FA0B 00          0 23937 DEFB 00h
FA0C 00          0 23938 DEFB 00h
FA0D 00          0 23939 DEFB 00h
FA0E 00          0 23940 DEFB 00h
FA0F 00          0 23941 DEFB 00h
FA10 00          0 23942 DEFB 00h
FA11 00          0 23943 DEFB 00h
FA12 00          0 23944 DEFB 00h
FA13 00          0 23945 DEFB 00h
FA14 00          0 23946 DEFB 00h
FA15 00          0 23947 DEFB 00h
FA16 00          0 23948 DEFB 00h
FA17 00          0 23949 DEFB 00h
FA18 00          0 23950 DEFB 00h
FA19 00          0 23951 DEFB 00h
FA1A 00          0 23952 DEFB 00h
FA1B 00          0 23953 DEFB 00h
FA1C 00          0 23954 DEFB 00h
FA1D 00          0 23955 DEFB 00h
FA1E 00          0 23956 DEFB 00h
FA1F 00          0 23957 DEFB 00h
FA20 00          0 23958 DEFB 00h
FA21 00          0 23959 DEFB 00h
FA22 00          0 23960 DEFB 00h
FA23             0 23961 __LABEL807:
FA23 01 00       0 23962 DEFW 0001h
FA25 0C 00       0 23963 DEFW 000Ch
FA27 01          0 23964 DEFB 01h
FA28             0 23965 _rLt:
FA28 34 FA       0 23966 DEFW __LABEL808
FA2A             0 23967 _rLt.__DATA__.__PTR__:
FA2A 2C FA       0 23968 DEFW _rLt.__DATA__
FA2C             0 23969 _rLt.__DATA__:
FA2C 0E          0 23970 DEFB 0Eh
FA2D 09          0 23971 DEFB 09h
FA2E 09          0 23972 DEFB 09h
FA2F 1E          0 23973 DEFB 1Eh
FA30 12          0 23974 DEFB 12h
FA31 22          0 23975 DEFB 22h
FA32 00          0 23976 DEFB 00h
FA33 00          0 23977 DEFB 00h
FA34             0 23978 __LABEL808:
FA34 00 00       0 23979 DEFW 0000h
FA36 01          0 23980 DEFB 01h
FA37             0 23981 _etLt:
FA37 43 FA       0 23982 DEFW __LABEL809
FA39             0 23983 _etLt.__DATA__.__PTR__:
FA39 3B FA       0 23984 DEFW _etLt.__DATA__
FA3B             0 23985 _etLt.__DATA__:
FA3B 04          0 23986 DEFB 04h
FA3C 67          0 23987 DEFB 67h
FA3D 94          0 23988 DEFB 94h
FA3E F4          0 23989 DEFB 0F4h
FA3F 84          0 23990 DEFB 84h
FA40 73          0 23991 DEFB 73h
FA41 00          0 23992 DEFB 00h
FA42 00          0 23993 DEFB 00h
FA43             0 23994 __LABEL809:
FA43 00 00       0 23995 DEFW 0000h
FA45 01          0 23996 DEFB 01h
FA46             0 23997 _urLt:
FA46 52 FA       0 23998 DEFW __LABEL810
FA48             0 23999 _urLt.__DATA__.__PTR__:
FA48 4A FA       0 24000 DEFW _urLt.__DATA__
FA4A             0 24001 _urLt.__DATA__:
FA4A 00          0 24002 DEFB 00h
FA4B 95          0 24003 DEFB 95h
FA4C 96          0 24004 DEFB 96h
FA4D 94          0 24005 DEFB 94h
FA4E 94          0 24006 DEFB 94h
FA4F 74          0 24007 DEFB 74h
FA50 00          0 24008 DEFB 00h
FA51 00          0 24009 DEFB 00h
FA52             0 24010 __LABEL810:
FA52 00 00       0 24011 DEFW 0000h
FA54 01          0 24012 DEFB 01h
FA55             0 24013 _nsLt:
FA55 61 FA       0 24014 DEFW __LABEL811
FA57             0 24015 _nsLt.__DATA__.__PTR__:
FA57 59 FA       0 24016 DEFW _nsLt.__DATA__
FA59             0 24017 _nsLt.__DATA__:
FA59 00          0 24018 DEFB 00h
FA5A E3          0 24019 DEFB 0E3h
FA5B 94          0 24020 DEFB 94h
FA5C 92          0 24021 DEFB 92h
FA5D 91          0 24022 DEFB 91h
FA5E 96          0 24023 DEFB 96h
FA5F 00          0 24024 DEFB 00h
FA60 00          0 24025 DEFB 00h
FA61             0 24026 __LABEL811:
FA61 00 00       0 24027 DEFW 0000h
FA63 01          0 24028 DEFB 01h
FA64             0 24029 _pattern1:
FA64 70 FA       0 24030 DEFW __LABEL812
FA66             0 24031 _pattern1.__DATA__.__PTR__:
FA66 68 FA       0 24032 DEFW _pattern1.__DATA__
FA68             0 24033 _pattern1.__DATA__:
FA68 00          0 24034 DEFB 00h
FA69 0C          0 24035 DEFB 0Ch
FA6A 12          0 24036 DEFB 12h
FA6B 0A          0 24037 DEFB 0Ah
FA6C 24          0 24038 DEFB 24h
FA6D 50          0 24039 DEFB 50h
FA6E 22          0 24040 DEFB 22h
FA6F 00          0 24041 DEFB 00h
FA70             0 24042 __LABEL812:
FA70 00 00       0 24043 DEFW 0000h
FA72 01          0 24044 DEFB 01h
FA73             0 24045 _pattern2:
FA73 7F FA       0 24046 DEFW __LABEL813
FA75             0 24047 _pattern2.__DATA__.__PTR__:
FA75 77 FA       0 24048 DEFW _pattern2.__DATA__
FA77             0 24049 _pattern2.__DATA__:
FA77 00          0 24050 DEFB 00h
FA78 20          0 24051 DEFB 20h
FA79 52          0 24052 DEFB 52h
FA7A 20          0 24053 DEFB 20h
FA7B 04          0 24054 DEFB 04h
FA7C 0A          0 24055 DEFB 0Ah
FA7D 24          0 24056 DEFB 24h
FA7E 00          0 24057 DEFB 00h
FA7F             0 24058 __LABEL813:
FA7F 00 00       0 24059 DEFW 0000h
FA81 01          0 24060 DEFB 01h
FA82             0 24061 _pattern3:
FA82 8E FA       0 24062 DEFW __LABEL814
FA84             0 24063 _pattern3.__DATA__.__PTR__:
FA84 86 FA       0 24064 DEFW _pattern3.__DATA__
FA86             0 24065 _pattern3.__DATA__:
FA86 00          0 24066 DEFB 00h
FA87 52          0 24067 DEFB 52h
FA88 00          0 24068 DEFB 00h
FA89 08          0 24069 DEFB 08h
FA8A 10          0 24070 DEFB 10h
FA8B 40          0 24071 DEFB 40h
FA8C 12          0 24072 DEFB 12h
FA8D 00          0 24073 DEFB 00h
FA8E             0 24074 __LABEL814:
FA8E 00 00       0 24075 DEFW 0000h
FA90 01          0 24076 DEFB 01h
FA91             0 24077 _enemyStates:
FA91 D7 FA       0 24078 DEFW __LABEL815
FA93             0 24079 _enemyStates.__DATA__.__PTR__:
FA93 95 FA       0 24080 DEFW _enemyStates.__DATA__
FA95             0 24081 _enemyStates.__DATA__:
FA95 00          0 24082 DEFB 00h
FA96 00          0 24083 DEFB 00h
FA97 00          0 24084 DEFB 00h
FA98 00          0 24085 DEFB 00h
FA99 00          0 24086 DEFB 00h
FA9A 00          0 24087 DEFB 00h
FA9B 00          0 24088 DEFB 00h
FA9C 00          0 24089 DEFB 00h
FA9D 00          0 24090 DEFB 00h
FA9E 00          0 24091 DEFB 00h
FA9F 00          0 24092 DEFB 00h
FAA0 00          0 24093 DEFB 00h
FAA1 00          0 24094 DEFB 00h
FAA2 00          0 24095 DEFB 00h
FAA3 00          0 24096 DEFB 00h
FAA4 00          0 24097 DEFB 00h
FAA5 00          0 24098 DEFB 00h
FAA6 00          0 24099 DEFB 00h
FAA7 00          0 24100 DEFB 00h
FAA8 00          0 24101 DEFB 00h
FAA9 00          0 24102 DEFB 00h
FAAA 00          0 24103 DEFB 00h
FAAB 00          0 24104 DEFB 00h
FAAC 00          0 24105 DEFB 00h
FAAD 00          0 24106 DEFB 00h
FAAE 00          0 24107 DEFB 00h
FAAF 00          0 24108 DEFB 00h
FAB0 00          0 24109 DEFB 00h
FAB1 00          0 24110 DEFB 00h
FAB2 00          0 24111 DEFB 00h
FAB3 00          0 24112 DEFB 00h
FAB4 00          0 24113 DEFB 00h
FAB5 00          0 24114 DEFB 00h
FAB6 00          0 24115 DEFB 00h
FAB7 00          0 24116 DEFB 00h
FAB8 00          0 24117 DEFB 00h
FAB9 00          0 24118 DEFB 00h
FABA 00          0 24119 DEFB 00h
FABB 00          0 24120 DEFB 00h
FABC 00          0 24121 DEFB 00h
FABD 00          0 24122 DEFB 00h
FABE 00          0 24123 DEFB 00h
FABF 00          0 24124 DEFB 00h
FAC0 00          0 24125 DEFB 00h
FAC1 00          0 24126 DEFB 00h
FAC2 00          0 24127 DEFB 00h
FAC3 00          0 24128 DEFB 00h
FAC4 00          0 24129 DEFB 00h
FAC5 00          0 24130 DEFB 00h
FAC6 00          0 24131 DEFB 00h
FAC7 00          0 24132 DEFB 00h
FAC8 00          0 24133 DEFB 00h
FAC9 00          0 24134 DEFB 00h
FACA 00          0 24135 DEFB 00h
FACB 00          0 24136 DEFB 00h
FACC 00          0 24137 DEFB 00h
FACD 00          0 24138 DEFB 00h
FACE 00          0 24139 DEFB 00h
FACF 00          0 24140 DEFB 00h
FAD0 00          0 24141 DEFB 00h
FAD1 00          0 24142 DEFB 00h
FAD2 00          0 24143 DEFB 00h
FAD3 00          0 24144 DEFB 00h
FAD4 00          0 24145 DEFB 00h
FAD5 00          0 24146 DEFB 00h
FAD6 00          0 24147 DEFB 00h
FAD7             0 24148 __LABEL815:
FAD7 01 00       0 24149 DEFW 0001h
FAD9 0B 00       0 24150 DEFW 000Bh
FADB 01          0 24151 DEFB 01h
FADC             0 24152 _keyStates:
FADC E5 FA       0 24153 DEFW __LABEL816
FADE             0 24154 _keyStates.__DATA__.__PTR__:
FADE E0 FA       0 24155 DEFW _keyStates.__DATA__
FAE0             0 24156 _keyStates.__DATA__:
FAE0 00          0 24157 DEFB 00h
FAE1 00          0 24158 DEFB 00h
FAE2 00          0 24159 DEFB 00h
FAE3 00          0 24160 DEFB 00h
FAE4 00          0 24161 DEFB 00h
FAE5             0 24162 __LABEL816:
FAE5 00 00       0 24163 DEFW 0000h
FAE7 01          0 24164 DEFB 01h
FAE8             0 24165 _screens.__DATA__ EQU 24200
FAE8             0 24166 _screens:
FAE8 EC FA       0 24167 DEFW __LABEL817
FAEA             0 24168 _screens.__DATA__.__PTR__:
FAEA 88 5E       0 24169 DEFW 24200
FAEC             0 24170 __LABEL817:
FAEC 01 00       0 24171 DEFW 0001h
FAEE 74 00       0 24172 DEFW 0074h
FAF0 01          0 24173 DEFB 01h
FAF1             0 24174 _maps.__DATA__ EQU 32320
FAF1             0 24175 _maps:
FAF1 F5 FA       0 24176 DEFW __LABEL818
FAF3             0 24177 _maps.__DATA__.__PTR__:
FAF3 40 7E       0 24178 DEFW 32320
FAF5             0 24179 __LABEL818:
FAF5 00 00       0 24180 DEFW 0000h
FAF7 01          0 24181 DEFB 01h
FAF8             0 24182 __LABEL674:
FAF8 10          0 24183 DEFB 10h
FAF9             0 24184 __LABEL716:
FAF9 00          0 24185 DEFB 00h
FAFA 00          0 24186 DEFB 00h
FAFB 01          0 24187 DEFB 01h
FAFC             0 24188 ZXBASIC_MEM_HEAP:
FAFC             0 24189 ; Defines DATA END
FAFC             0 24190 ZXBASIC_USER_DATA_END EQU ZXBASIC_MEM_HEAP + ZXBASIC_HEAP_SIZE
FAFC             0 24191 ; Defines USER DATA Length in bytes
FAFC             0 24192 ZXBASIC_USER_DATA_LEN EQU ZXBASIC_USER_DATA_END - ZXBASIC_USER_DATA
FAFC             0 24193 END
